; ModuleID = 'montyhall.bc'
source_filename = "montyhall.cpp"
target datalayout = "e-m:e-p270:32:32-p271:32:32-p272:64:64-i64:64-f80:128-n8:16:32:64-S128"
target triple = "x86_64-pc-linux-gnu"

%"class.std::vector" = type { %"struct.std::_Vector_base" }
%"struct.std::_Vector_base" = type { %"struct.std::_Vector_base<int, std::allocator<int> >::_Vector_impl" }
%"struct.std::_Vector_base<int, std::allocator<int> >::_Vector_impl" = type { %"struct.std::_Vector_base<int, std::allocator<int> >::_Vector_impl_data" }
%"struct.std::_Vector_base<int, std::allocator<int> >::_Vector_impl_data" = type { i32*, i32*, i32* }
%"class.std::initializer_list" = type { i32*, i64 }
%"class.std::allocator" = type { i8 }
%"class.__gnu_cxx::new_allocator" = type { i8 }
%"struct.std::forward_iterator_tag" = type { i8 }
%"struct.std::random_access_iterator_tag" = type { i8 }

$_Z17make_pse_symbolicIiEvPvmPKcOT_S4_ = comdat any

$_ZNSaIiEC2Ev = comdat any

$_ZNSt6vectorIiSaIiEEC2ESt16initializer_listIiERKS0_ = comdat any

$_ZNSaIiED2Ev = comdat any

$_ZNSt6vectorIiSaIiEED2Ev = comdat any

$_ZSt3minIiERKT_S2_S2_ = comdat any

$_ZSt3maxIiERKT_S2_S2_ = comdat any

$_ZN9__gnu_cxx13new_allocatorIiEC2Ev = comdat any

$_ZN9__gnu_cxx13new_allocatorIiED2Ev = comdat any

$_ZNSt12_Vector_baseIiSaIiEEC2ERKS0_ = comdat any

$_ZNSt6vectorIiSaIiEE19_M_range_initializeIPKiEEvT_S5_St20forward_iterator_tag = comdat any

$_ZNKSt16initializer_listIiE5beginEv = comdat any

$_ZNKSt16initializer_listIiE3endEv = comdat any

$_ZNSt12_Vector_baseIiSaIiEED2Ev = comdat any

$_ZNSt12_Vector_baseIiSaIiEE12_Vector_implC2ERKS0_ = comdat any

$_ZNSt12_Vector_baseIiSaIiEE17_Vector_impl_dataC2Ev = comdat any

$_ZN9__gnu_cxx13new_allocatorIiEC2ERKS1_ = comdat any

$_ZSt8distanceIPKiENSt15iterator_traitsIT_E15difference_typeES3_S3_ = comdat any

$_ZNSt12_Vector_baseIiSaIiEE11_M_allocateEm = comdat any

$_ZNSt6vectorIiSaIiEE17_S_check_init_lenEmRKS0_ = comdat any

$_ZNSt12_Vector_baseIiSaIiEE19_M_get_Tp_allocatorEv = comdat any

$_ZSt22__uninitialized_copy_aIPKiPiiET0_T_S4_S3_RSaIT1_E = comdat any

$_ZSt10__distanceIPKiENSt15iterator_traitsIT_E15difference_typeES3_S3_St26random_access_iterator_tag = comdat any

$_ZSt19__iterator_categoryIPKiENSt15iterator_traitsIT_E17iterator_categoryERKS3_ = comdat any

$_ZNSt16allocator_traitsISaIiEE8allocateERS0_m = comdat any

$_ZN9__gnu_cxx13new_allocatorIiE8allocateEmPKv = comdat any

$_ZNK9__gnu_cxx13new_allocatorIiE11_M_max_sizeEv = comdat any

$_ZNSt6vectorIiSaIiEE11_S_max_sizeERKS0_ = comdat any

$_ZNSaIiEC2ERKS_ = comdat any

$_ZNSt16allocator_traitsISaIiEE8max_sizeERKS0_ = comdat any

$_ZSt3minImERKT_S2_S2_ = comdat any

$__clang_call_terminate = comdat any

$_ZNK9__gnu_cxx13new_allocatorIiE8max_sizeEv = comdat any

$_ZSt18uninitialized_copyIPKiPiET0_T_S4_S3_ = comdat any

$_ZNSt20__uninitialized_copyILb1EE13__uninit_copyIPKiPiEET0_T_S6_S5_ = comdat any

$_ZSt4copyIPKiPiET0_T_S4_S3_ = comdat any

$_ZSt13__copy_move_aILb0EPKiPiET1_T0_S4_S3_ = comdat any

$_ZSt12__miter_baseIPKiET_S2_ = comdat any

$_ZSt12__niter_wrapIPiET_RKS1_S1_ = comdat any

$_ZSt14__copy_move_a1ILb0EPKiPiET1_T0_S4_S3_ = comdat any

$_ZSt12__niter_baseIPKiET_S2_ = comdat any

$_ZSt12__niter_baseIPiET_S1_ = comdat any

$_ZSt14__copy_move_a2ILb0EPKiPiET1_T0_S4_S3_ = comdat any

$_ZNSt11__copy_moveILb0ELb1ESt26random_access_iterator_tagE8__copy_mIiEEPT_PKS3_S6_S4_ = comdat any

$_ZNKSt16initializer_listIiE4sizeEv = comdat any

$_ZNSt12_Vector_baseIiSaIiEE13_M_deallocateEPim = comdat any

$_ZNSt12_Vector_baseIiSaIiEE12_Vector_implD2Ev = comdat any

$_ZNSt16allocator_traitsISaIiEE10deallocateERS0_Pim = comdat any

$_ZN9__gnu_cxx13new_allocatorIiE10deallocateEPim = comdat any

$_ZSt8_DestroyIPiiEvT_S1_RSaIT0_E = comdat any

$_ZSt8_DestroyIPiEvT_S1_ = comdat any

$_ZNSt12_Destroy_auxILb1EE9__destroyIPiEEvT_S3_ = comdat any

@.str = private unnamed_addr constant [15 x i8] c"choice_pse_sym\00", align 1
@.str.1 = private unnamed_addr constant [17 x i8] c"car_door_pse_sym\00", align 1
@.str.2 = private unnamed_addr constant [14 x i8] c"host_door_sym\00", align 1
@.str.3 = private unnamed_addr constant [20 x i8] c"door_switch_pse_sym\00", align 1
@.str.4 = private unnamed_addr constant [49 x i8] c"cannot create std::vector larger than max_size()\00", align 1

; Function Attrs: noinline uwtable
define dso_local zeroext i1 @_Z9montyhallb(i1 zeroext %0) #0 !dbg !787 {
  %2 = alloca i1, align 1
  %3 = alloca i8, align 1
  %4 = alloca i32, align 4
  %5 = alloca i32, align 4
  %6 = alloca i32, align 4
  %7 = alloca i32, align 4
  %8 = alloca i32, align 4
  %9 = alloca i32, align 4
  %10 = alloca i32, align 4
  %11 = zext i1 %0 to i8
  store i8 %11, i8* %3, align 1
  call void @llvm.dbg.declare(metadata i8* %3, metadata !790, metadata !DIExpression()), !dbg !791
  call void @llvm.dbg.declare(metadata i32* %4, metadata !792, metadata !DIExpression()), !dbg !793
  store i32 0, i32* %4, align 4, !dbg !793
  call void @llvm.dbg.declare(metadata i32* %5, metadata !794, metadata !DIExpression()), !dbg !795
  call void @llvm.dbg.declare(metadata i32* %6, metadata !796, metadata !DIExpression()), !dbg !797
  %12 = bitcast i32* %6 to i8*, !dbg !798
  store i32 0, i32* %7, align 4, !dbg !799
  store i32 3, i32* %8, align 4, !dbg !800
  call void @_Z17make_pse_symbolicIiEvPvmPKcOT_S4_(i8* %12, i64 4, i8* getelementptr inbounds ([15 x i8], [15 x i8]* @.str, i64 0, i64 0), i32* dereferenceable(4) %7, i32* dereferenceable(4) %8), !dbg !801
  %13 = bitcast i32* %5 to i8*, !dbg !802
  store i32 0, i32* %9, align 4, !dbg !803
  store i32 3, i32* %10, align 4, !dbg !804
  call void @_Z17make_pse_symbolicIiEvPvmPKcOT_S4_(i8* %13, i64 4, i8* getelementptr inbounds ([17 x i8], [17 x i8]* @.str.1, i64 0, i64 0), i32* dereferenceable(4) %9, i32* dereferenceable(4) %10), !dbg !805
  %14 = bitcast i32* %4 to i8*, !dbg !806
  call void @klee_make_symbolic(i8* %14, i64 4, i8* getelementptr inbounds ([14 x i8], [14 x i8]* @.str.2, i64 0, i64 0)), !dbg !807
  %15 = load i32, i32* %5, align 4, !dbg !808
  %16 = icmp ne i32 %15, 1, !dbg !810
  %17 = load i32, i32* %6, align 4, !dbg !811
  %18 = icmp ne i32 %17, 1, !dbg !812
  %or.cond = and i1 %16, %18, !dbg !813
  br i1 %or.cond, label %19, label %20, !dbg !813

19:                                               ; preds = %1
  store i32 1, i32* %4, align 4, !dbg !814
  br label %27, !dbg !816

20:                                               ; preds = %1
  %21 = load i32, i32* %5, align 4, !dbg !817
  %22 = icmp ne i32 %21, 2, !dbg !819
  %23 = load i32, i32* %6, align 4, !dbg !820
  %24 = icmp ne i32 %23, 2, !dbg !821
  %or.cond3 = and i1 %22, %24, !dbg !822
  br i1 %or.cond3, label %25, label %26, !dbg !822

25:                                               ; preds = %20
  store i32 2, i32* %4, align 4, !dbg !823
  br label %27, !dbg !825

26:                                               ; preds = %20
  store i32 3, i32* %4, align 4, !dbg !826
  br label %27

27:                                               ; preds = %25, %26, %19
  %28 = load i8, i8* %3, align 1, !dbg !828
  %29 = trunc i8 %28 to i1, !dbg !828
  br i1 %29, label %30, label %49, !dbg !830

30:                                               ; preds = %27
  %31 = load i32, i32* %4, align 4, !dbg !831
  %32 = icmp eq i32 %31, 1, !dbg !834
  br i1 %32, label %33, label %38, !dbg !835

33:                                               ; preds = %30
  %34 = load i32, i32* %6, align 4, !dbg !836
  %35 = icmp eq i32 %34, 2, !dbg !839
  br i1 %35, label %36, label %37, !dbg !840

36:                                               ; preds = %33
  store i32 3, i32* %6, align 4, !dbg !841
  br label %49, !dbg !843

37:                                               ; preds = %33
  store i32 2, i32* %6, align 4, !dbg !844
  br label %49

38:                                               ; preds = %30
  %39 = load i32, i32* %4, align 4, !dbg !846
  %40 = icmp eq i32 %39, 2, !dbg !848
  %41 = load i32, i32* %6, align 4, !dbg !849
  %42 = icmp eq i32 %41, 1, !dbg !849
  br i1 %40, label %43, label %46, !dbg !850

43:                                               ; preds = %38
  br i1 %42, label %44, label %45, !dbg !851

44:                                               ; preds = %43
  store i32 3, i32* %6, align 4, !dbg !853
  br label %49, !dbg !856

45:                                               ; preds = %43
  store i32 1, i32* %6, align 4, !dbg !857
  br label %49

46:                                               ; preds = %38
  br i1 %42, label %47, label %48, !dbg !859

47:                                               ; preds = %46
  store i32 2, i32* %6, align 4, !dbg !861
  br label %49, !dbg !864

48:                                               ; preds = %46
  store i32 1, i32* %6, align 4, !dbg !865
  br label %49

49:                                               ; preds = %37, %36, %47, %48, %44, %45, %27
  %50 = load i32, i32* %6, align 4, !dbg !867
  %51 = load i32, i32* %5, align 4, !dbg !869
  %52 = icmp eq i32 %50, %51, !dbg !870
  br i1 %52, label %53, label %54, !dbg !871

53:                                               ; preds = %49
  store i1 true, i1* %2, align 1, !dbg !872
  br label %55, !dbg !872

54:                                               ; preds = %49
  store i1 false, i1* %2, align 1, !dbg !874
  br label %55, !dbg !874

55:                                               ; preds = %54, %53
  %56 = load i1, i1* %2, align 1, !dbg !876
  ret i1 %56, !dbg !876
}

; Function Attrs: nounwind readnone speculatable willreturn
declare void @llvm.dbg.declare(metadata, metadata, metadata) #1

; Function Attrs: noinline uwtable
define linkonce_odr dso_local void @_Z17make_pse_symbolicIiEvPvmPKcOT_S4_(i8* %0, i64 %1, i8* %2, i32* dereferenceable(4) %3, i32* dereferenceable(4) %4) #0 comdat !dbg !877 {
  %6 = alloca i8*, align 8
  %7 = alloca i64, align 8
  %8 = alloca i8*, align 8
  %9 = alloca i32*, align 8
  %10 = alloca i32*, align 8
  store i8* %0, i8** %6, align 8
  call void @llvm.dbg.declare(metadata i8** %6, metadata !884, metadata !DIExpression()), !dbg !885
  store i64 %1, i64* %7, align 8
  call void @llvm.dbg.declare(metadata i64* %7, metadata !886, metadata !DIExpression()), !dbg !887
  store i8* %2, i8** %8, align 8
  call void @llvm.dbg.declare(metadata i8** %8, metadata !888, metadata !DIExpression()), !dbg !889
  store i32* %3, i32** %9, align 8
  call void @llvm.dbg.declare(metadata i32** %9, metadata !890, metadata !DIExpression()), !dbg !891
  store i32* %4, i32** %10, align 8
  call void @llvm.dbg.declare(metadata i32** %10, metadata !892, metadata !DIExpression()), !dbg !893
  %11 = load i8*, i8** %6, align 8, !dbg !894
  %12 = load i64, i64* %7, align 8, !dbg !895
  %13 = load i8*, i8** %8, align 8, !dbg !896
  call void @klee_make_symbolic(i8* %11, i64 %12, i8* %13), !dbg !897
  %14 = load i8*, i8** %6, align 8, !dbg !898
  %15 = bitcast i8* %14 to i32*, !dbg !899
  %16 = load i32, i32* %15, align 4, !dbg !900
  %17 = load i32*, i32** %9, align 8, !dbg !901
  %18 = load i32*, i32** %10, align 8, !dbg !902
  %19 = call dereferenceable(4) i32* @_ZSt3minIiERKT_S2_S2_(i32* dereferenceable(4) %17, i32* dereferenceable(4) %18), !dbg !903
  %20 = load i32, i32* %19, align 4, !dbg !903
  %21 = icmp sge i32 %16, %20, !dbg !904
  %22 = zext i1 %21 to i64, !dbg !900
  call void @klee_assume(i64 %22), !dbg !905
  %23 = load i8*, i8** %6, align 8, !dbg !906
  %24 = bitcast i8* %23 to i32*, !dbg !907
  %25 = load i32, i32* %24, align 4, !dbg !908
  %26 = load i32*, i32** %9, align 8, !dbg !909
  %27 = load i32*, i32** %10, align 8, !dbg !910
  %28 = call dereferenceable(4) i32* @_ZSt3maxIiERKT_S2_S2_(i32* dereferenceable(4) %26, i32* dereferenceable(4) %27), !dbg !911
  %29 = load i32, i32* %28, align 4, !dbg !911
  %30 = icmp sle i32 %25, %29, !dbg !912
  %31 = zext i1 %30 to i64, !dbg !908
  call void @klee_assume(i64 %31), !dbg !913
  ret void, !dbg !914
}

declare dso_local void @klee_make_symbolic(i8*, i64, i8*) #2

; Function Attrs: noinline norecurse uwtable
define dso_local i32 @main() #3 personality i8* bitcast (i32 (...)* @__gxx_personality_v0 to i8*) !dbg !915 {
  %1 = alloca i32, align 4
  %2 = alloca i32, align 4
  %3 = alloca i32, align 4
  %4 = alloca %"class.std::vector", align 8
  %5 = alloca %"class.std::initializer_list", align 8
  %6 = alloca [2 x i32], align 4
  %7 = alloca %"class.std::allocator", align 1
  %8 = alloca i8*
  %9 = alloca i32
  %10 = alloca i32, align 4
  %11 = alloca i32, align 4
  store i32 0, i32* %1, align 4
  call void @llvm.dbg.declare(metadata i32* %2, metadata !916, metadata !DIExpression()), !dbg !917
  store i32 0, i32* %2, align 4, !dbg !917
  call void @llvm.dbg.declare(metadata i32* %3, metadata !918, metadata !DIExpression()), !dbg !919
  store i32 0, i32* %3, align 4, !dbg !919
  call void @llvm.dbg.declare(metadata %"class.std::vector"* %4, metadata !920, metadata !DIExpression()), !dbg !921
  %12 = getelementptr inbounds [2 x i32], [2 x i32]* %6, i64 0, i64 0, !dbg !922
  store i32 0, i32* %12, align 4, !dbg !922
  %13 = getelementptr inbounds i32, i32* %12, i64 1, !dbg !922
  store i32 1, i32* %13, align 4, !dbg !922
  %14 = getelementptr inbounds %"class.std::initializer_list", %"class.std::initializer_list"* %5, i32 0, i32 0, !dbg !922
  %15 = getelementptr inbounds [2 x i32], [2 x i32]* %6, i64 0, i64 0, !dbg !922
  store i32* %15, i32** %14, align 8, !dbg !922
  %16 = getelementptr inbounds %"class.std::initializer_list", %"class.std::initializer_list"* %5, i32 0, i32 1, !dbg !922
  store i64 2, i64* %16, align 8, !dbg !922
  call void @_ZNSaIiEC2Ev(%"class.std::allocator"* %7) #10, !dbg !922
  %17 = bitcast %"class.std::initializer_list"* %5 to { i32*, i64 }*, !dbg !922
  %18 = getelementptr inbounds { i32*, i64 }, { i32*, i64 }* %17, i32 0, i32 0, !dbg !922
  %19 = load i32*, i32** %18, align 8, !dbg !922
  %20 = getelementptr inbounds { i32*, i64 }, { i32*, i64 }* %17, i32 0, i32 1, !dbg !922
  %21 = load i64, i64* %20, align 8, !dbg !922
  invoke void @_ZNSt6vectorIiSaIiEEC2ESt16initializer_listIiERKS0_(%"class.std::vector"* %4, i32* %19, i64 %21, %"class.std::allocator"* dereferenceable(1) %7)
          to label %22 unwind label %31, !dbg !922

22:                                               ; preds = %0
  call void @_ZNSaIiED2Ev(%"class.std::allocator"* %7) #10, !dbg !922
  %23 = bitcast i32* %3 to i8*, !dbg !923
  store i32 0, i32* %10, align 4, !dbg !924
  store i32 1, i32* %11, align 4, !dbg !925
  invoke void @_Z17make_pse_symbolicIiEvPvmPKcOT_S4_(i8* %23, i64 4, i8* getelementptr inbounds ([20 x i8], [20 x i8]* @.str.3, i64 0, i64 0), i32* dereferenceable(4) %10, i32* dereferenceable(4) %11)
          to label %24 unwind label %35, !dbg !926

24:                                               ; preds = %22
  %25 = load i32, i32* %3, align 4, !dbg !927
  %26 = icmp ne i32 %25, 0, !dbg !927
  %27 = invoke zeroext i1 @_Z9montyhallb(i1 zeroext %26)
          to label %28 unwind label %35, !dbg !928

28:                                               ; preds = %24
  %29 = zext i1 %27 to i32, !dbg !928
  store i32 %29, i32* %1, align 4, !dbg !929
  call void @_ZNSt6vectorIiSaIiEED2Ev(%"class.std::vector"* %4) #10, !dbg !930
  %30 = load i32, i32* %1, align 4, !dbg !930
  ret i32 %30, !dbg !930

31:                                               ; preds = %0
  %32 = landingpad { i8*, i32 }
          cleanup, !dbg !930
  %33 = extractvalue { i8*, i32 } %32, 0, !dbg !930
  store i8* %33, i8** %8, align 8, !dbg !930
  %34 = extractvalue { i8*, i32 } %32, 1, !dbg !930
  store i32 %34, i32* %9, align 4, !dbg !930
  call void @_ZNSaIiED2Ev(%"class.std::allocator"* %7) #10, !dbg !922
  br label %39, !dbg !922

35:                                               ; preds = %24, %22
  %36 = landingpad { i8*, i32 }
          cleanup, !dbg !930
  %37 = extractvalue { i8*, i32 } %36, 0, !dbg !930
  store i8* %37, i8** %8, align 8, !dbg !930
  %38 = extractvalue { i8*, i32 } %36, 1, !dbg !930
  store i32 %38, i32* %9, align 4, !dbg !930
  call void @_ZNSt6vectorIiSaIiEED2Ev(%"class.std::vector"* %4) #10, !dbg !930
  br label %39, !dbg !930

39:                                               ; preds = %35, %31
  %40 = load i8*, i8** %8, align 8, !dbg !922
  %41 = load i32, i32* %9, align 4, !dbg !922
  %42 = insertvalue { i8*, i32 } undef, i8* %40, 0, !dbg !922
  %43 = insertvalue { i8*, i32 } %42, i32 %41, 1, !dbg !922
  resume { i8*, i32 } %43, !dbg !922
}

; Function Attrs: noinline nounwind uwtable
define linkonce_odr dso_local void @_ZNSaIiEC2Ev(%"class.std::allocator"* %0) unnamed_addr #4 comdat align 2 !dbg !931 {
  %2 = alloca %"class.std::allocator"*, align 8
  store %"class.std::allocator"* %0, %"class.std::allocator"** %2, align 8
  call void @llvm.dbg.declare(metadata %"class.std::allocator"** %2, metadata !932, metadata !DIExpression()), !dbg !934
  %3 = load %"class.std::allocator"*, %"class.std::allocator"** %2, align 8
  %4 = bitcast %"class.std::allocator"* %3 to %"class.__gnu_cxx::new_allocator"*, !dbg !935
  call void @_ZN9__gnu_cxx13new_allocatorIiEC2Ev(%"class.__gnu_cxx::new_allocator"* %4) #10, !dbg !936
  ret void, !dbg !937
}

; Function Attrs: noinline uwtable
define linkonce_odr dso_local void @_ZNSt6vectorIiSaIiEEC2ESt16initializer_listIiERKS0_(%"class.std::vector"* %0, i32* %1, i64 %2, %"class.std::allocator"* dereferenceable(1) %3) unnamed_addr #0 comdat align 2 personality i8* bitcast (i32 (...)* @__gxx_personality_v0 to i8*) !dbg !938 {
  %5 = alloca %"class.std::initializer_list", align 8
  %6 = alloca %"class.std::vector"*, align 8
  %7 = alloca %"class.std::allocator"*, align 8
  %8 = alloca %"struct.std::forward_iterator_tag", align 1
  %9 = alloca %"struct.std::random_access_iterator_tag", align 1
  %10 = alloca i8*
  %11 = alloca i32
  %12 = bitcast %"class.std::initializer_list"* %5 to { i32*, i64 }*
  %13 = getelementptr inbounds { i32*, i64 }, { i32*, i64 }* %12, i32 0, i32 0
  store i32* %1, i32** %13, align 8
  %14 = getelementptr inbounds { i32*, i64 }, { i32*, i64 }* %12, i32 0, i32 1
  store i64 %2, i64* %14, align 8
  store %"class.std::vector"* %0, %"class.std::vector"** %6, align 8
  call void @llvm.dbg.declare(metadata %"class.std::vector"** %6, metadata !939, metadata !DIExpression()), !dbg !941
  call void @llvm.dbg.declare(metadata %"class.std::initializer_list"* %5, metadata !942, metadata !DIExpression()), !dbg !943
  store %"class.std::allocator"* %3, %"class.std::allocator"** %7, align 8
  call void @llvm.dbg.declare(metadata %"class.std::allocator"** %7, metadata !944, metadata !DIExpression()), !dbg !945
  %15 = load %"class.std::vector"*, %"class.std::vector"** %6, align 8
  %16 = bitcast %"class.std::vector"* %15 to %"struct.std::_Vector_base"*, !dbg !946
  %17 = load %"class.std::allocator"*, %"class.std::allocator"** %7, align 8, !dbg !947
  call void @_ZNSt12_Vector_baseIiSaIiEEC2ERKS0_(%"struct.std::_Vector_base"* %16, %"class.std::allocator"* dereferenceable(1) %17) #10, !dbg !948
  %18 = call i32* @_ZNKSt16initializer_listIiE5beginEv(%"class.std::initializer_list"* %5) #10, !dbg !949
  %19 = call i32* @_ZNKSt16initializer_listIiE3endEv(%"class.std::initializer_list"* %5) #10, !dbg !951
  %20 = bitcast %"struct.std::random_access_iterator_tag"* %9 to %"struct.std::forward_iterator_tag"*, !dbg !952
  invoke void @_ZNSt6vectorIiSaIiEE19_M_range_initializeIPKiEEvT_S5_St20forward_iterator_tag(%"class.std::vector"* %15, i32* %18, i32* %19)
          to label %21 unwind label %22, !dbg !953

21:                                               ; preds = %4
  ret void, !dbg !954

22:                                               ; preds = %4
  %23 = landingpad { i8*, i32 }
          cleanup, !dbg !955
  %24 = extractvalue { i8*, i32 } %23, 0, !dbg !955
  store i8* %24, i8** %10, align 8, !dbg !955
  %25 = extractvalue { i8*, i32 } %23, 1, !dbg !955
  store i32 %25, i32* %11, align 4, !dbg !955
  %26 = bitcast %"class.std::vector"* %15 to %"struct.std::_Vector_base"*, !dbg !955
  call void @_ZNSt12_Vector_baseIiSaIiEED2Ev(%"struct.std::_Vector_base"* %26) #10, !dbg !955
  %27 = load i8*, i8** %10, align 8, !dbg !955
  %28 = load i32, i32* %11, align 4, !dbg !955
  %29 = insertvalue { i8*, i32 } undef, i8* %27, 0, !dbg !955
  %30 = insertvalue { i8*, i32 } %29, i32 %28, 1, !dbg !955
  resume { i8*, i32 } %30, !dbg !955
}

declare dso_local i32 @__gxx_personality_v0(...)

; Function Attrs: noinline nounwind uwtable
define linkonce_odr dso_local void @_ZNSaIiED2Ev(%"class.std::allocator"* %0) unnamed_addr #4 comdat align 2 !dbg !956 {
  %2 = alloca %"class.std::allocator"*, align 8
  store %"class.std::allocator"* %0, %"class.std::allocator"** %2, align 8
  call void @llvm.dbg.declare(metadata %"class.std::allocator"** %2, metadata !957, metadata !DIExpression()), !dbg !958
  %3 = load %"class.std::allocator"*, %"class.std::allocator"** %2, align 8
  %4 = bitcast %"class.std::allocator"* %3 to %"class.__gnu_cxx::new_allocator"*, !dbg !959
  call void @_ZN9__gnu_cxx13new_allocatorIiED2Ev(%"class.__gnu_cxx::new_allocator"* %4) #10, !dbg !959
  ret void, !dbg !961
}

; Function Attrs: noinline nounwind uwtable
define linkonce_odr dso_local void @_ZNSt6vectorIiSaIiEED2Ev(%"class.std::vector"* %0) unnamed_addr #4 comdat align 2 personality i8* bitcast (i32 (...)* @__gxx_personality_v0 to i8*) !dbg !962 {
  %2 = alloca %"class.std::vector"*, align 8
  %3 = alloca i8*
  %4 = alloca i32
  store %"class.std::vector"* %0, %"class.std::vector"** %2, align 8
  call void @llvm.dbg.declare(metadata %"class.std::vector"** %2, metadata !963, metadata !DIExpression()), !dbg !964
  %5 = load %"class.std::vector"*, %"class.std::vector"** %2, align 8
  %6 = bitcast %"class.std::vector"* %5 to %"struct.std::_Vector_base"*, !dbg !965
  %7 = getelementptr inbounds %"struct.std::_Vector_base", %"struct.std::_Vector_base"* %6, i32 0, i32 0, !dbg !965
  %8 = bitcast %"struct.std::_Vector_base<int, std::allocator<int> >::_Vector_impl"* %7 to %"struct.std::_Vector_base<int, std::allocator<int> >::_Vector_impl_data"*, !dbg !967
  %9 = getelementptr inbounds %"struct.std::_Vector_base<int, std::allocator<int> >::_Vector_impl_data", %"struct.std::_Vector_base<int, std::allocator<int> >::_Vector_impl_data"* %8, i32 0, i32 0, !dbg !968
  %10 = load i32*, i32** %9, align 8, !dbg !968
  %11 = bitcast %"class.std::vector"* %5 to %"struct.std::_Vector_base"*, !dbg !969
  %12 = getelementptr inbounds %"struct.std::_Vector_base", %"struct.std::_Vector_base"* %11, i32 0, i32 0, !dbg !969
  %13 = bitcast %"struct.std::_Vector_base<int, std::allocator<int> >::_Vector_impl"* %12 to %"struct.std::_Vector_base<int, std::allocator<int> >::_Vector_impl_data"*, !dbg !970
  %14 = getelementptr inbounds %"struct.std::_Vector_base<int, std::allocator<int> >::_Vector_impl_data", %"struct.std::_Vector_base<int, std::allocator<int> >::_Vector_impl_data"* %13, i32 0, i32 1, !dbg !971
  %15 = load i32*, i32** %14, align 8, !dbg !971
  %16 = bitcast %"class.std::vector"* %5 to %"struct.std::_Vector_base"*, !dbg !972
  %17 = call dereferenceable(1) %"class.std::allocator"* @_ZNSt12_Vector_baseIiSaIiEE19_M_get_Tp_allocatorEv(%"struct.std::_Vector_base"* %16) #10, !dbg !972
  invoke void @_ZSt8_DestroyIPiiEvT_S1_RSaIT0_E(i32* %10, i32* %15, %"class.std::allocator"* dereferenceable(1) %17)
          to label %18 unwind label %20, !dbg !973

18:                                               ; preds = %1
  %19 = bitcast %"class.std::vector"* %5 to %"struct.std::_Vector_base"*, !dbg !974
  call void @_ZNSt12_Vector_baseIiSaIiEED2Ev(%"struct.std::_Vector_base"* %19) #10, !dbg !974
  ret void, !dbg !975

20:                                               ; preds = %1
  %21 = landingpad { i8*, i32 }
          catch i8* null, !dbg !974
  %22 = extractvalue { i8*, i32 } %21, 0, !dbg !974
  store i8* %22, i8** %3, align 8, !dbg !974
  %23 = extractvalue { i8*, i32 } %21, 1, !dbg !974
  store i32 %23, i32* %4, align 4, !dbg !974
  %24 = bitcast %"class.std::vector"* %5 to %"struct.std::_Vector_base"*, !dbg !974
  call void @_ZNSt12_Vector_baseIiSaIiEED2Ev(%"struct.std::_Vector_base"* %24) #10, !dbg !974
  %25 = load i8*, i8** %3, align 8, !dbg !974
  call void @__clang_call_terminate(i8* %25) #11, !dbg !974
  unreachable, !dbg !974
}

declare dso_local void @klee_assume(i64) #2

; Function Attrs: noinline nounwind uwtable
define linkonce_odr dso_local dereferenceable(4) i32* @_ZSt3minIiERKT_S2_S2_(i32* dereferenceable(4) %0, i32* dereferenceable(4) %1) #4 comdat !dbg !976 {
  %3 = alloca i32*, align 8
  %4 = alloca i32*, align 8
  %5 = alloca i32*, align 8
  store i32* %0, i32** %4, align 8
  call void @llvm.dbg.declare(metadata i32** %4, metadata !980, metadata !DIExpression()), !dbg !982
  store i32* %1, i32** %5, align 8
  call void @llvm.dbg.declare(metadata i32** %5, metadata !983, metadata !DIExpression()), !dbg !984
  %6 = load i32*, i32** %5, align 8, !dbg !985
  %7 = load i32, i32* %6, align 4, !dbg !985
  %8 = load i32*, i32** %4, align 8, !dbg !987
  %9 = load i32, i32* %8, align 4, !dbg !987
  %10 = icmp slt i32 %7, %9, !dbg !988
  br i1 %10, label %11, label %13, !dbg !989

11:                                               ; preds = %2
  %12 = load i32*, i32** %5, align 8, !dbg !990
  store i32* %12, i32** %3, align 8, !dbg !991
  br label %15, !dbg !991

13:                                               ; preds = %2
  %14 = load i32*, i32** %4, align 8, !dbg !992
  store i32* %14, i32** %3, align 8, !dbg !993
  br label %15, !dbg !993

15:                                               ; preds = %13, %11
  %16 = load i32*, i32** %3, align 8, !dbg !994
  ret i32* %16, !dbg !994
}

; Function Attrs: noinline nounwind uwtable
define linkonce_odr dso_local dereferenceable(4) i32* @_ZSt3maxIiERKT_S2_S2_(i32* dereferenceable(4) %0, i32* dereferenceable(4) %1) #4 comdat !dbg !995 {
  %3 = alloca i32*, align 8
  %4 = alloca i32*, align 8
  %5 = alloca i32*, align 8
  store i32* %0, i32** %4, align 8
  call void @llvm.dbg.declare(metadata i32** %4, metadata !996, metadata !DIExpression()), !dbg !997
  store i32* %1, i32** %5, align 8
  call void @llvm.dbg.declare(metadata i32** %5, metadata !998, metadata !DIExpression()), !dbg !999
  %6 = load i32*, i32** %4, align 8, !dbg !1000
  %7 = load i32, i32* %6, align 4, !dbg !1000
  %8 = load i32*, i32** %5, align 8, !dbg !1002
  %9 = load i32, i32* %8, align 4, !dbg !1002
  %10 = icmp slt i32 %7, %9, !dbg !1003
  br i1 %10, label %11, label %13, !dbg !1004

11:                                               ; preds = %2
  %12 = load i32*, i32** %5, align 8, !dbg !1005
  store i32* %12, i32** %3, align 8, !dbg !1006
  br label %15, !dbg !1006

13:                                               ; preds = %2
  %14 = load i32*, i32** %4, align 8, !dbg !1007
  store i32* %14, i32** %3, align 8, !dbg !1008
  br label %15, !dbg !1008

15:                                               ; preds = %13, %11
  %16 = load i32*, i32** %3, align 8, !dbg !1009
  ret i32* %16, !dbg !1009
}

; Function Attrs: noinline nounwind uwtable
define linkonce_odr dso_local void @_ZN9__gnu_cxx13new_allocatorIiEC2Ev(%"class.__gnu_cxx::new_allocator"* %0) unnamed_addr #4 comdat align 2 !dbg !1010 {
  %2 = alloca %"class.__gnu_cxx::new_allocator"*, align 8
  store %"class.__gnu_cxx::new_allocator"* %0, %"class.__gnu_cxx::new_allocator"** %2, align 8
  call void @llvm.dbg.declare(metadata %"class.__gnu_cxx::new_allocator"** %2, metadata !1011, metadata !DIExpression()), !dbg !1013
  %3 = load %"class.__gnu_cxx::new_allocator"*, %"class.__gnu_cxx::new_allocator"** %2, align 8
  ret void, !dbg !1014
}

; Function Attrs: noinline nounwind uwtable
define linkonce_odr dso_local void @_ZN9__gnu_cxx13new_allocatorIiED2Ev(%"class.__gnu_cxx::new_allocator"* %0) unnamed_addr #4 comdat align 2 !dbg !1015 {
  %2 = alloca %"class.__gnu_cxx::new_allocator"*, align 8
  store %"class.__gnu_cxx::new_allocator"* %0, %"class.__gnu_cxx::new_allocator"** %2, align 8
  call void @llvm.dbg.declare(metadata %"class.__gnu_cxx::new_allocator"** %2, metadata !1016, metadata !DIExpression()), !dbg !1017
  %3 = load %"class.__gnu_cxx::new_allocator"*, %"class.__gnu_cxx::new_allocator"** %2, align 8
  ret void, !dbg !1018
}

; Function Attrs: noinline nounwind uwtable
define linkonce_odr dso_local void @_ZNSt12_Vector_baseIiSaIiEEC2ERKS0_(%"struct.std::_Vector_base"* %0, %"class.std::allocator"* dereferenceable(1) %1) unnamed_addr #4 comdat align 2 !dbg !1019 {
  %3 = alloca %"struct.std::_Vector_base"*, align 8
  %4 = alloca %"class.std::allocator"*, align 8
  store %"struct.std::_Vector_base"* %0, %"struct.std::_Vector_base"** %3, align 8
  call void @llvm.dbg.declare(metadata %"struct.std::_Vector_base"** %3, metadata !1020, metadata !DIExpression()), !dbg !1022
  store %"class.std::allocator"* %1, %"class.std::allocator"** %4, align 8
  call void @llvm.dbg.declare(metadata %"class.std::allocator"** %4, metadata !1023, metadata !DIExpression()), !dbg !1024
  %5 = load %"struct.std::_Vector_base"*, %"struct.std::_Vector_base"** %3, align 8
  %6 = getelementptr inbounds %"struct.std::_Vector_base", %"struct.std::_Vector_base"* %5, i32 0, i32 0, !dbg !1025
  %7 = load %"class.std::allocator"*, %"class.std::allocator"** %4, align 8, !dbg !1026
  call void @_ZNSt12_Vector_baseIiSaIiEE12_Vector_implC2ERKS0_(%"struct.std::_Vector_base<int, std::allocator<int> >::_Vector_impl"* %6, %"class.std::allocator"* dereferenceable(1) %7) #10, !dbg !1025
  ret void, !dbg !1027
}

; Function Attrs: noinline uwtable
define linkonce_odr dso_local void @_ZNSt6vectorIiSaIiEE19_M_range_initializeIPKiEEvT_S5_St20forward_iterator_tag(%"class.std::vector"* %0, i32* %1, i32* %2) #0 comdat align 2 !dbg !1028 {
  %4 = alloca %"struct.std::forward_iterator_tag", align 1
  %5 = alloca %"class.std::vector"*, align 8
  %6 = alloca i32*, align 8
  %7 = alloca i32*, align 8
  %8 = alloca i64, align 8
  store %"class.std::vector"* %0, %"class.std::vector"** %5, align 8
  call void @llvm.dbg.declare(metadata %"class.std::vector"** %5, metadata !1039, metadata !DIExpression()), !dbg !1040
  store i32* %1, i32** %6, align 8
  call void @llvm.dbg.declare(metadata i32** %6, metadata !1041, metadata !DIExpression()), !dbg !1042
  store i32* %2, i32** %7, align 8
  call void @llvm.dbg.declare(metadata i32** %7, metadata !1043, metadata !DIExpression()), !dbg !1044
  call void @llvm.dbg.declare(metadata %"struct.std::forward_iterator_tag"* %4, metadata !1045, metadata !DIExpression()), !dbg !1046
  %9 = load %"class.std::vector"*, %"class.std::vector"** %5, align 8
  call void @llvm.dbg.declare(metadata i64* %8, metadata !1047, metadata !DIExpression()), !dbg !1049
  %10 = load i32*, i32** %6, align 8, !dbg !1050
  %11 = load i32*, i32** %7, align 8, !dbg !1051
  %12 = call i64 @_ZSt8distanceIPKiENSt15iterator_traitsIT_E15difference_typeES3_S3_(i32* %10, i32* %11), !dbg !1052
  store i64 %12, i64* %8, align 8, !dbg !1049
  %13 = bitcast %"class.std::vector"* %9 to %"struct.std::_Vector_base"*, !dbg !1053
  %14 = load i64, i64* %8, align 8, !dbg !1054
  %15 = bitcast %"class.std::vector"* %9 to %"struct.std::_Vector_base"*, !dbg !1055
  %16 = call dereferenceable(1) %"class.std::allocator"* @_ZNSt12_Vector_baseIiSaIiEE19_M_get_Tp_allocatorEv(%"struct.std::_Vector_base"* %15) #10, !dbg !1055
  %17 = call i64 @_ZNSt6vectorIiSaIiEE17_S_check_init_lenEmRKS0_(i64 %14, %"class.std::allocator"* dereferenceable(1) %16), !dbg !1056
  %18 = call i32* @_ZNSt12_Vector_baseIiSaIiEE11_M_allocateEm(%"struct.std::_Vector_base"* %13, i64 %17), !dbg !1053
  %19 = bitcast %"class.std::vector"* %9 to %"struct.std::_Vector_base"*, !dbg !1057
  %20 = getelementptr inbounds %"struct.std::_Vector_base", %"struct.std::_Vector_base"* %19, i32 0, i32 0, !dbg !1057
  %21 = bitcast %"struct.std::_Vector_base<int, std::allocator<int> >::_Vector_impl"* %20 to %"struct.std::_Vector_base<int, std::allocator<int> >::_Vector_impl_data"*, !dbg !1058
  %22 = getelementptr inbounds %"struct.std::_Vector_base<int, std::allocator<int> >::_Vector_impl_data", %"struct.std::_Vector_base<int, std::allocator<int> >::_Vector_impl_data"* %21, i32 0, i32 0, !dbg !1059
  store i32* %18, i32** %22, align 8, !dbg !1060
  %23 = bitcast %"class.std::vector"* %9 to %"struct.std::_Vector_base"*, !dbg !1061
  %24 = getelementptr inbounds %"struct.std::_Vector_base", %"struct.std::_Vector_base"* %23, i32 0, i32 0, !dbg !1061
  %25 = bitcast %"struct.std::_Vector_base<int, std::allocator<int> >::_Vector_impl"* %24 to %"struct.std::_Vector_base<int, std::allocator<int> >::_Vector_impl_data"*, !dbg !1062
  %26 = getelementptr inbounds %"struct.std::_Vector_base<int, std::allocator<int> >::_Vector_impl_data", %"struct.std::_Vector_base<int, std::allocator<int> >::_Vector_impl_data"* %25, i32 0, i32 0, !dbg !1063
  %27 = load i32*, i32** %26, align 8, !dbg !1063
  %28 = load i64, i64* %8, align 8, !dbg !1064
  %29 = getelementptr inbounds i32, i32* %27, i64 %28, !dbg !1065
  %30 = bitcast %"class.std::vector"* %9 to %"struct.std::_Vector_base"*, !dbg !1066
  %31 = getelementptr inbounds %"struct.std::_Vector_base", %"struct.std::_Vector_base"* %30, i32 0, i32 0, !dbg !1066
  %32 = bitcast %"struct.std::_Vector_base<int, std::allocator<int> >::_Vector_impl"* %31 to %"struct.std::_Vector_base<int, std::allocator<int> >::_Vector_impl_data"*, !dbg !1067
  %33 = getelementptr inbounds %"struct.std::_Vector_base<int, std::allocator<int> >::_Vector_impl_data", %"struct.std::_Vector_base<int, std::allocator<int> >::_Vector_impl_data"* %32, i32 0, i32 2, !dbg !1068
  store i32* %29, i32** %33, align 8, !dbg !1069
  %34 = load i32*, i32** %6, align 8, !dbg !1070
  %35 = load i32*, i32** %7, align 8, !dbg !1071
  %36 = bitcast %"class.std::vector"* %9 to %"struct.std::_Vector_base"*, !dbg !1072
  %37 = getelementptr inbounds %"struct.std::_Vector_base", %"struct.std::_Vector_base"* %36, i32 0, i32 0, !dbg !1072
  %38 = bitcast %"struct.std::_Vector_base<int, std::allocator<int> >::_Vector_impl"* %37 to %"struct.std::_Vector_base<int, std::allocator<int> >::_Vector_impl_data"*, !dbg !1073
  %39 = getelementptr inbounds %"struct.std::_Vector_base<int, std::allocator<int> >::_Vector_impl_data", %"struct.std::_Vector_base<int, std::allocator<int> >::_Vector_impl_data"* %38, i32 0, i32 0, !dbg !1074
  %40 = load i32*, i32** %39, align 8, !dbg !1074
  %41 = bitcast %"class.std::vector"* %9 to %"struct.std::_Vector_base"*, !dbg !1075
  %42 = call dereferenceable(1) %"class.std::allocator"* @_ZNSt12_Vector_baseIiSaIiEE19_M_get_Tp_allocatorEv(%"struct.std::_Vector_base"* %41) #10, !dbg !1075
  %43 = call i32* @_ZSt22__uninitialized_copy_aIPKiPiiET0_T_S4_S3_RSaIT1_E(i32* %34, i32* %35, i32* %40, %"class.std::allocator"* dereferenceable(1) %42), !dbg !1076
  %44 = bitcast %"class.std::vector"* %9 to %"struct.std::_Vector_base"*, !dbg !1077
  %45 = getelementptr inbounds %"struct.std::_Vector_base", %"struct.std::_Vector_base"* %44, i32 0, i32 0, !dbg !1077
  %46 = bitcast %"struct.std::_Vector_base<int, std::allocator<int> >::_Vector_impl"* %45 to %"struct.std::_Vector_base<int, std::allocator<int> >::_Vector_impl_data"*, !dbg !1078
  %47 = getelementptr inbounds %"struct.std::_Vector_base<int, std::allocator<int> >::_Vector_impl_data", %"struct.std::_Vector_base<int, std::allocator<int> >::_Vector_impl_data"* %46, i32 0, i32 1, !dbg !1079
  store i32* %43, i32** %47, align 8, !dbg !1080
  ret void, !dbg !1081
}

; Function Attrs: noinline nounwind uwtable
define linkonce_odr dso_local i32* @_ZNKSt16initializer_listIiE5beginEv(%"class.std::initializer_list"* %0) #4 comdat align 2 !dbg !1082 {
  %2 = alloca %"class.std::initializer_list"*, align 8
  store %"class.std::initializer_list"* %0, %"class.std::initializer_list"** %2, align 8
  call void @llvm.dbg.declare(metadata %"class.std::initializer_list"** %2, metadata !1083, metadata !DIExpression()), !dbg !1085
  %3 = load %"class.std::initializer_list"*, %"class.std::initializer_list"** %2, align 8
  %4 = getelementptr inbounds %"class.std::initializer_list", %"class.std::initializer_list"* %3, i32 0, i32 0, !dbg !1086
  %5 = load i32*, i32** %4, align 8, !dbg !1086
  ret i32* %5, !dbg !1087
}

; Function Attrs: noinline nounwind uwtable
define linkonce_odr dso_local i32* @_ZNKSt16initializer_listIiE3endEv(%"class.std::initializer_list"* %0) #4 comdat align 2 !dbg !1088 {
  %2 = alloca %"class.std::initializer_list"*, align 8
  store %"class.std::initializer_list"* %0, %"class.std::initializer_list"** %2, align 8
  call void @llvm.dbg.declare(metadata %"class.std::initializer_list"** %2, metadata !1089, metadata !DIExpression()), !dbg !1090
  %3 = load %"class.std::initializer_list"*, %"class.std::initializer_list"** %2, align 8
  %4 = call i32* @_ZNKSt16initializer_listIiE5beginEv(%"class.std::initializer_list"* %3) #10, !dbg !1091
  %5 = call i64 @_ZNKSt16initializer_listIiE4sizeEv(%"class.std::initializer_list"* %3) #10, !dbg !1092
  %6 = getelementptr inbounds i32, i32* %4, i64 %5, !dbg !1093
  ret i32* %6, !dbg !1094
}

; Function Attrs: noinline nounwind uwtable
define linkonce_odr dso_local void @_ZNSt12_Vector_baseIiSaIiEED2Ev(%"struct.std::_Vector_base"* %0) unnamed_addr #4 comdat align 2 personality i8* bitcast (i32 (...)* @__gxx_personality_v0 to i8*) !dbg !1095 {
  %2 = alloca %"struct.std::_Vector_base"*, align 8
  %3 = alloca i8*
  %4 = alloca i32
  store %"struct.std::_Vector_base"* %0, %"struct.std::_Vector_base"** %2, align 8
  call void @llvm.dbg.declare(metadata %"struct.std::_Vector_base"** %2, metadata !1096, metadata !DIExpression()), !dbg !1097
  %5 = load %"struct.std::_Vector_base"*, %"struct.std::_Vector_base"** %2, align 8
  %6 = getelementptr inbounds %"struct.std::_Vector_base", %"struct.std::_Vector_base"* %5, i32 0, i32 0, !dbg !1098
  %7 = bitcast %"struct.std::_Vector_base<int, std::allocator<int> >::_Vector_impl"* %6 to %"struct.std::_Vector_base<int, std::allocator<int> >::_Vector_impl_data"*, !dbg !1098
  %8 = getelementptr inbounds %"struct.std::_Vector_base<int, std::allocator<int> >::_Vector_impl_data", %"struct.std::_Vector_base<int, std::allocator<int> >::_Vector_impl_data"* %7, i32 0, i32 0, !dbg !1100
  %9 = load i32*, i32** %8, align 8, !dbg !1100
  %10 = getelementptr inbounds %"struct.std::_Vector_base", %"struct.std::_Vector_base"* %5, i32 0, i32 0, !dbg !1101
  %11 = bitcast %"struct.std::_Vector_base<int, std::allocator<int> >::_Vector_impl"* %10 to %"struct.std::_Vector_base<int, std::allocator<int> >::_Vector_impl_data"*, !dbg !1101
  %12 = getelementptr inbounds %"struct.std::_Vector_base<int, std::allocator<int> >::_Vector_impl_data", %"struct.std::_Vector_base<int, std::allocator<int> >::_Vector_impl_data"* %11, i32 0, i32 2, !dbg !1102
  %13 = load i32*, i32** %12, align 8, !dbg !1102
  %14 = getelementptr inbounds %"struct.std::_Vector_base", %"struct.std::_Vector_base"* %5, i32 0, i32 0, !dbg !1103
  %15 = bitcast %"struct.std::_Vector_base<int, std::allocator<int> >::_Vector_impl"* %14 to %"struct.std::_Vector_base<int, std::allocator<int> >::_Vector_impl_data"*, !dbg !1103
  %16 = getelementptr inbounds %"struct.std::_Vector_base<int, std::allocator<int> >::_Vector_impl_data", %"struct.std::_Vector_base<int, std::allocator<int> >::_Vector_impl_data"* %15, i32 0, i32 0, !dbg !1104
  %17 = load i32*, i32** %16, align 8, !dbg !1104
  %18 = ptrtoint i32* %13 to i64, !dbg !1105
  %19 = ptrtoint i32* %17 to i64, !dbg !1105
  %20 = sub i64 %18, %19, !dbg !1105
  %21 = sdiv exact i64 %20, 4, !dbg !1105
  invoke void @_ZNSt12_Vector_baseIiSaIiEE13_M_deallocateEPim(%"struct.std::_Vector_base"* %5, i32* %9, i64 %21)
          to label %22 unwind label %24, !dbg !1106

22:                                               ; preds = %1
  %23 = getelementptr inbounds %"struct.std::_Vector_base", %"struct.std::_Vector_base"* %5, i32 0, i32 0, !dbg !1107
  call void @_ZNSt12_Vector_baseIiSaIiEE12_Vector_implD2Ev(%"struct.std::_Vector_base<int, std::allocator<int> >::_Vector_impl"* %23) #10, !dbg !1107
  ret void, !dbg !1108

24:                                               ; preds = %1
  %25 = landingpad { i8*, i32 }
          catch i8* null, !dbg !1107
  %26 = extractvalue { i8*, i32 } %25, 0, !dbg !1107
  store i8* %26, i8** %3, align 8, !dbg !1107
  %27 = extractvalue { i8*, i32 } %25, 1, !dbg !1107
  store i32 %27, i32* %4, align 4, !dbg !1107
  %28 = getelementptr inbounds %"struct.std::_Vector_base", %"struct.std::_Vector_base"* %5, i32 0, i32 0, !dbg !1107
  call void @_ZNSt12_Vector_baseIiSaIiEE12_Vector_implD2Ev(%"struct.std::_Vector_base<int, std::allocator<int> >::_Vector_impl"* %28) #10, !dbg !1107
  %29 = load i8*, i8** %3, align 8, !dbg !1107
  call void @__clang_call_terminate(i8* %29) #11, !dbg !1107
  unreachable, !dbg !1107
}

; Function Attrs: noinline nounwind uwtable
define linkonce_odr dso_local void @_ZNSt12_Vector_baseIiSaIiEE12_Vector_implC2ERKS0_(%"struct.std::_Vector_base<int, std::allocator<int> >::_Vector_impl"* %0, %"class.std::allocator"* dereferenceable(1) %1) unnamed_addr #4 comdat align 2 !dbg !1109 {
  %3 = alloca %"struct.std::_Vector_base<int, std::allocator<int> >::_Vector_impl"*, align 8
  %4 = alloca %"class.std::allocator"*, align 8
  store %"struct.std::_Vector_base<int, std::allocator<int> >::_Vector_impl"* %0, %"struct.std::_Vector_base<int, std::allocator<int> >::_Vector_impl"** %3, align 8
  call void @llvm.dbg.declare(metadata %"struct.std::_Vector_base<int, std::allocator<int> >::_Vector_impl"** %3, metadata !1110, metadata !DIExpression()), !dbg !1112
  store %"class.std::allocator"* %1, %"class.std::allocator"** %4, align 8
  call void @llvm.dbg.declare(metadata %"class.std::allocator"** %4, metadata !1113, metadata !DIExpression()), !dbg !1114
  %5 = load %"struct.std::_Vector_base<int, std::allocator<int> >::_Vector_impl"*, %"struct.std::_Vector_base<int, std::allocator<int> >::_Vector_impl"** %3, align 8
  %6 = bitcast %"struct.std::_Vector_base<int, std::allocator<int> >::_Vector_impl"* %5 to %"class.std::allocator"*, !dbg !1115
  %7 = load %"class.std::allocator"*, %"class.std::allocator"** %4, align 8, !dbg !1116
  call void @_ZNSaIiEC2ERKS_(%"class.std::allocator"* %6, %"class.std::allocator"* dereferenceable(1) %7) #10, !dbg !1117
  %8 = bitcast %"struct.std::_Vector_base<int, std::allocator<int> >::_Vector_impl"* %5 to %"struct.std::_Vector_base<int, std::allocator<int> >::_Vector_impl_data"*, !dbg !1115
  call void @_ZNSt12_Vector_baseIiSaIiEE17_Vector_impl_dataC2Ev(%"struct.std::_Vector_base<int, std::allocator<int> >::_Vector_impl_data"* %8) #10, !dbg !1118
  ret void, !dbg !1119
}

; Function Attrs: noinline nounwind uwtable
define linkonce_odr dso_local void @_ZNSt12_Vector_baseIiSaIiEE17_Vector_impl_dataC2Ev(%"struct.std::_Vector_base<int, std::allocator<int> >::_Vector_impl_data"* %0) unnamed_addr #4 comdat align 2 !dbg !1120 {
  %2 = alloca %"struct.std::_Vector_base<int, std::allocator<int> >::_Vector_impl_data"*, align 8
  store %"struct.std::_Vector_base<int, std::allocator<int> >::_Vector_impl_data"* %0, %"struct.std::_Vector_base<int, std::allocator<int> >::_Vector_impl_data"** %2, align 8
  call void @llvm.dbg.declare(metadata %"struct.std::_Vector_base<int, std::allocator<int> >::_Vector_impl_data"** %2, metadata !1121, metadata !DIExpression()), !dbg !1123
  %3 = load %"struct.std::_Vector_base<int, std::allocator<int> >::_Vector_impl_data"*, %"struct.std::_Vector_base<int, std::allocator<int> >::_Vector_impl_data"** %2, align 8
  %4 = getelementptr inbounds %"struct.std::_Vector_base<int, std::allocator<int> >::_Vector_impl_data", %"struct.std::_Vector_base<int, std::allocator<int> >::_Vector_impl_data"* %3, i32 0, i32 0, !dbg !1124
  store i32* null, i32** %4, align 8, !dbg !1124
  %5 = getelementptr inbounds %"struct.std::_Vector_base<int, std::allocator<int> >::_Vector_impl_data", %"struct.std::_Vector_base<int, std::allocator<int> >::_Vector_impl_data"* %3, i32 0, i32 1, !dbg !1125
  store i32* null, i32** %5, align 8, !dbg !1125
  %6 = getelementptr inbounds %"struct.std::_Vector_base<int, std::allocator<int> >::_Vector_impl_data", %"struct.std::_Vector_base<int, std::allocator<int> >::_Vector_impl_data"* %3, i32 0, i32 2, !dbg !1126
  store i32* null, i32** %6, align 8, !dbg !1126
  ret void, !dbg !1127
}

; Function Attrs: noinline nounwind uwtable
define linkonce_odr dso_local void @_ZN9__gnu_cxx13new_allocatorIiEC2ERKS1_(%"class.__gnu_cxx::new_allocator"* %0, %"class.__gnu_cxx::new_allocator"* dereferenceable(1) %1) unnamed_addr #4 comdat align 2 !dbg !1128 {
  %3 = alloca %"class.__gnu_cxx::new_allocator"*, align 8
  %4 = alloca %"class.__gnu_cxx::new_allocator"*, align 8
  store %"class.__gnu_cxx::new_allocator"* %0, %"class.__gnu_cxx::new_allocator"** %3, align 8
  call void @llvm.dbg.declare(metadata %"class.__gnu_cxx::new_allocator"** %3, metadata !1129, metadata !DIExpression()), !dbg !1130
  store %"class.__gnu_cxx::new_allocator"* %1, %"class.__gnu_cxx::new_allocator"** %4, align 8
  call void @llvm.dbg.declare(metadata %"class.__gnu_cxx::new_allocator"** %4, metadata !1131, metadata !DIExpression()), !dbg !1132
  %5 = load %"class.__gnu_cxx::new_allocator"*, %"class.__gnu_cxx::new_allocator"** %3, align 8
  ret void, !dbg !1133
}

; Function Attrs: noinline uwtable
define linkonce_odr dso_local i64 @_ZSt8distanceIPKiENSt15iterator_traitsIT_E15difference_typeES3_S3_(i32* %0, i32* %1) #0 comdat !dbg !1134 {
  %3 = alloca i32*, align 8
  %4 = alloca i32*, align 8
  %5 = alloca %"struct.std::random_access_iterator_tag", align 1
  %6 = alloca %"struct.std::random_access_iterator_tag", align 1
  store i32* %0, i32** %3, align 8
  call void @llvm.dbg.declare(metadata i32** %3, metadata !1145, metadata !DIExpression()), !dbg !1146
  store i32* %1, i32** %4, align 8
  call void @llvm.dbg.declare(metadata i32** %4, metadata !1147, metadata !DIExpression()), !dbg !1148
  %7 = load i32*, i32** %3, align 8, !dbg !1149
  %8 = load i32*, i32** %4, align 8, !dbg !1150
  call void @_ZSt19__iterator_categoryIPKiENSt15iterator_traitsIT_E17iterator_categoryERKS3_(i32** dereferenceable(8) %3), !dbg !1151
  %9 = call i64 @_ZSt10__distanceIPKiENSt15iterator_traitsIT_E15difference_typeES3_S3_St26random_access_iterator_tag(i32* %7, i32* %8), !dbg !1152
  ret i64 %9, !dbg !1153
}

; Function Attrs: noinline uwtable
define linkonce_odr dso_local i32* @_ZNSt12_Vector_baseIiSaIiEE11_M_allocateEm(%"struct.std::_Vector_base"* %0, i64 %1) #0 comdat align 2 !dbg !1154 {
  %3 = alloca %"struct.std::_Vector_base"*, align 8
  %4 = alloca i64, align 8
  store %"struct.std::_Vector_base"* %0, %"struct.std::_Vector_base"** %3, align 8
  call void @llvm.dbg.declare(metadata %"struct.std::_Vector_base"** %3, metadata !1155, metadata !DIExpression()), !dbg !1156
  store i64 %1, i64* %4, align 8
  call void @llvm.dbg.declare(metadata i64* %4, metadata !1157, metadata !DIExpression()), !dbg !1158
  %5 = load %"struct.std::_Vector_base"*, %"struct.std::_Vector_base"** %3, align 8
  %6 = load i64, i64* %4, align 8, !dbg !1159
  %7 = icmp ne i64 %6, 0, !dbg !1160
  br i1 %7, label %8, label %13, !dbg !1159

8:                                                ; preds = %2
  %9 = getelementptr inbounds %"struct.std::_Vector_base", %"struct.std::_Vector_base"* %5, i32 0, i32 0, !dbg !1161
  %10 = bitcast %"struct.std::_Vector_base<int, std::allocator<int> >::_Vector_impl"* %9 to %"class.std::allocator"*, !dbg !1161
  %11 = load i64, i64* %4, align 8, !dbg !1162
  %12 = call i32* @_ZNSt16allocator_traitsISaIiEE8allocateERS0_m(%"class.std::allocator"* dereferenceable(1) %10, i64 %11), !dbg !1163
  br label %13, !dbg !1159

13:                                               ; preds = %2, %8
  %14 = phi i32* [ %12, %8 ], [ null, %2 ], !dbg !1159
  ret i32* %14, !dbg !1164
}

; Function Attrs: noinline uwtable
define linkonce_odr dso_local i64 @_ZNSt6vectorIiSaIiEE17_S_check_init_lenEmRKS0_(i64 %0, %"class.std::allocator"* dereferenceable(1) %1) #0 comdat align 2 !dbg !1165 {
  %3 = alloca i64, align 8
  %4 = alloca %"class.std::allocator"*, align 8
  %5 = alloca %"class.std::allocator", align 1
  store i64 %0, i64* %3, align 8
  call void @llvm.dbg.declare(metadata i64* %3, metadata !1166, metadata !DIExpression()), !dbg !1167
  store %"class.std::allocator"* %1, %"class.std::allocator"** %4, align 8
  call void @llvm.dbg.declare(metadata %"class.std::allocator"** %4, metadata !1168, metadata !DIExpression()), !dbg !1169
  %6 = load i64, i64* %3, align 8, !dbg !1170
  %7 = load %"class.std::allocator"*, %"class.std::allocator"** %4, align 8, !dbg !1172
  call void @_ZNSaIiEC2ERKS_(%"class.std::allocator"* %5, %"class.std::allocator"* dereferenceable(1) %7) #10, !dbg !1173
  %8 = call i64 @_ZNSt6vectorIiSaIiEE11_S_max_sizeERKS0_(%"class.std::allocator"* dereferenceable(1) %5) #10, !dbg !1174
  %9 = icmp ugt i64 %6, %8, !dbg !1175
  call void @_ZNSaIiED2Ev(%"class.std::allocator"* %5) #10, !dbg !1170
  br i1 %9, label %10, label %11, !dbg !1176

10:                                               ; preds = %2
  call void @_ZSt20__throw_length_errorPKc(i8* getelementptr inbounds ([49 x i8], [49 x i8]* @.str.4, i64 0, i64 0)) #12, !dbg !1177
  unreachable, !dbg !1177

11:                                               ; preds = %2
  %12 = load i64, i64* %3, align 8, !dbg !1178
  ret i64 %12, !dbg !1179
}

; Function Attrs: noinline nounwind uwtable
define linkonce_odr dso_local dereferenceable(1) %"class.std::allocator"* @_ZNSt12_Vector_baseIiSaIiEE19_M_get_Tp_allocatorEv(%"struct.std::_Vector_base"* %0) #4 comdat align 2 !dbg !1180 {
  %2 = alloca %"struct.std::_Vector_base"*, align 8
  store %"struct.std::_Vector_base"* %0, %"struct.std::_Vector_base"** %2, align 8
  call void @llvm.dbg.declare(metadata %"struct.std::_Vector_base"** %2, metadata !1181, metadata !DIExpression()), !dbg !1182
  %3 = load %"struct.std::_Vector_base"*, %"struct.std::_Vector_base"** %2, align 8
  %4 = getelementptr inbounds %"struct.std::_Vector_base", %"struct.std::_Vector_base"* %3, i32 0, i32 0, !dbg !1183
  %5 = bitcast %"struct.std::_Vector_base<int, std::allocator<int> >::_Vector_impl"* %4 to %"class.std::allocator"*, !dbg !1184
  ret %"class.std::allocator"* %5, !dbg !1185
}

; Function Attrs: noinline uwtable
define linkonce_odr dso_local i32* @_ZSt22__uninitialized_copy_aIPKiPiiET0_T_S4_S3_RSaIT1_E(i32* %0, i32* %1, i32* %2, %"class.std::allocator"* dereferenceable(1) %3) #0 comdat !dbg !1186 {
  %5 = alloca i32*, align 8
  %6 = alloca i32*, align 8
  %7 = alloca i32*, align 8
  %8 = alloca %"class.std::allocator"*, align 8
  store i32* %0, i32** %5, align 8
  call void @llvm.dbg.declare(metadata i32** %5, metadata !1192, metadata !DIExpression()), !dbg !1193
  store i32* %1, i32** %6, align 8
  call void @llvm.dbg.declare(metadata i32** %6, metadata !1194, metadata !DIExpression()), !dbg !1195
  store i32* %2, i32** %7, align 8
  call void @llvm.dbg.declare(metadata i32** %7, metadata !1196, metadata !DIExpression()), !dbg !1197
  store %"class.std::allocator"* %3, %"class.std::allocator"** %8, align 8
  call void @llvm.dbg.declare(metadata %"class.std::allocator"** %8, metadata !1198, metadata !DIExpression()), !dbg !1199
  %9 = load i32*, i32** %5, align 8, !dbg !1200
  %10 = load i32*, i32** %6, align 8, !dbg !1201
  %11 = load i32*, i32** %7, align 8, !dbg !1202
  %12 = call i32* @_ZSt18uninitialized_copyIPKiPiET0_T_S4_S3_(i32* %9, i32* %10, i32* %11), !dbg !1203
  ret i32* %12, !dbg !1204
}

; Function Attrs: noinline nounwind uwtable
define linkonce_odr dso_local i64 @_ZSt10__distanceIPKiENSt15iterator_traitsIT_E15difference_typeES3_S3_St26random_access_iterator_tag(i32* %0, i32* %1) #4 comdat !dbg !1205 {
  %3 = alloca %"struct.std::random_access_iterator_tag", align 1
  %4 = alloca i32*, align 8
  %5 = alloca i32*, align 8
  store i32* %0, i32** %4, align 8
  call void @llvm.dbg.declare(metadata i32** %4, metadata !1216, metadata !DIExpression()), !dbg !1217
  store i32* %1, i32** %5, align 8
  call void @llvm.dbg.declare(metadata i32** %5, metadata !1218, metadata !DIExpression()), !dbg !1219
  call void @llvm.dbg.declare(metadata %"struct.std::random_access_iterator_tag"* %3, metadata !1220, metadata !DIExpression()), !dbg !1221
  %6 = load i32*, i32** %5, align 8, !dbg !1222
  %7 = load i32*, i32** %4, align 8, !dbg !1223
  %8 = ptrtoint i32* %6 to i64, !dbg !1224
  %9 = ptrtoint i32* %7 to i64, !dbg !1224
  %10 = sub i64 %8, %9, !dbg !1224
  %11 = sdiv exact i64 %10, 4, !dbg !1224
  ret i64 %11, !dbg !1225
}

; Function Attrs: noinline nounwind uwtable
define linkonce_odr dso_local void @_ZSt19__iterator_categoryIPKiENSt15iterator_traitsIT_E17iterator_categoryERKS3_(i32** dereferenceable(8) %0) #4 comdat !dbg !1226 {
  %2 = alloca i32**, align 8
  store i32** %0, i32*** %2, align 8
  call void @llvm.dbg.declare(metadata i32*** %2, metadata !1234, metadata !DIExpression()), !dbg !1235
  ret void, !dbg !1236
}

; Function Attrs: noinline uwtable
define linkonce_odr dso_local i32* @_ZNSt16allocator_traitsISaIiEE8allocateERS0_m(%"class.std::allocator"* dereferenceable(1) %0, i64 %1) #0 comdat align 2 !dbg !1237 {
  %3 = alloca %"class.std::allocator"*, align 8
  %4 = alloca i64, align 8
  store %"class.std::allocator"* %0, %"class.std::allocator"** %3, align 8
  call void @llvm.dbg.declare(metadata %"class.std::allocator"** %3, metadata !1238, metadata !DIExpression()), !dbg !1239
  store i64 %1, i64* %4, align 8
  call void @llvm.dbg.declare(metadata i64* %4, metadata !1240, metadata !DIExpression()), !dbg !1241
  %5 = load %"class.std::allocator"*, %"class.std::allocator"** %3, align 8, !dbg !1242
  %6 = bitcast %"class.std::allocator"* %5 to %"class.__gnu_cxx::new_allocator"*, !dbg !1242
  %7 = load i64, i64* %4, align 8, !dbg !1243
  %8 = call i32* @_ZN9__gnu_cxx13new_allocatorIiE8allocateEmPKv(%"class.__gnu_cxx::new_allocator"* %6, i64 %7, i8* null), !dbg !1244
  ret i32* %8, !dbg !1245
}

; Function Attrs: noinline uwtable
define linkonce_odr dso_local i32* @_ZN9__gnu_cxx13new_allocatorIiE8allocateEmPKv(%"class.__gnu_cxx::new_allocator"* %0, i64 %1, i8* %2) #0 comdat align 2 !dbg !1246 {
  %4 = alloca %"class.__gnu_cxx::new_allocator"*, align 8
  %5 = alloca i64, align 8
  %6 = alloca i8*, align 8
  store %"class.__gnu_cxx::new_allocator"* %0, %"class.__gnu_cxx::new_allocator"** %4, align 8
  call void @llvm.dbg.declare(metadata %"class.__gnu_cxx::new_allocator"** %4, metadata !1247, metadata !DIExpression()), !dbg !1248
  store i64 %1, i64* %5, align 8
  call void @llvm.dbg.declare(metadata i64* %5, metadata !1249, metadata !DIExpression()), !dbg !1250
  store i8* %2, i8** %6, align 8
  call void @llvm.dbg.declare(metadata i8** %6, metadata !1251, metadata !DIExpression()), !dbg !1252
  %7 = load %"class.__gnu_cxx::new_allocator"*, %"class.__gnu_cxx::new_allocator"** %4, align 8
  %8 = load i64, i64* %5, align 8, !dbg !1253
  %9 = call i64 @_ZNK9__gnu_cxx13new_allocatorIiE11_M_max_sizeEv(%"class.__gnu_cxx::new_allocator"* %7) #10, !dbg !1255
  %10 = icmp ugt i64 %8, %9, !dbg !1256
  br i1 %10, label %11, label %12, !dbg !1257

11:                                               ; preds = %3
  call void @_ZSt17__throw_bad_allocv() #12, !dbg !1258
  unreachable, !dbg !1258

12:                                               ; preds = %3
  %13 = load i64, i64* %5, align 8, !dbg !1259
  %14 = mul i64 %13, 4, !dbg !1260
  %15 = call i8* @_Znwm(i64 %14), !dbg !1261
  %16 = bitcast i8* %15 to i32*, !dbg !1262
  ret i32* %16, !dbg !1263
}

; Function Attrs: noinline nounwind uwtable
define linkonce_odr dso_local i64 @_ZNK9__gnu_cxx13new_allocatorIiE11_M_max_sizeEv(%"class.__gnu_cxx::new_allocator"* %0) #4 comdat align 2 !dbg !1264 {
  %2 = alloca %"class.__gnu_cxx::new_allocator"*, align 8
  store %"class.__gnu_cxx::new_allocator"* %0, %"class.__gnu_cxx::new_allocator"** %2, align 8
  call void @llvm.dbg.declare(metadata %"class.__gnu_cxx::new_allocator"** %2, metadata !1265, metadata !DIExpression()), !dbg !1267
  %3 = load %"class.__gnu_cxx::new_allocator"*, %"class.__gnu_cxx::new_allocator"** %2, align 8
  ret i64 2305843009213693951, !dbg !1268
}

; Function Attrs: noreturn
declare dso_local void @_ZSt17__throw_bad_allocv() #5

; Function Attrs: nobuiltin
declare dso_local noalias i8* @_Znwm(i64) #6

; Function Attrs: noinline nounwind uwtable
define linkonce_odr dso_local i64 @_ZNSt6vectorIiSaIiEE11_S_max_sizeERKS0_(%"class.std::allocator"* dereferenceable(1) %0) #4 comdat align 2 personality i8* bitcast (i32 (...)* @__gxx_personality_v0 to i8*) !dbg !1269 {
  %2 = alloca %"class.std::allocator"*, align 8
  %3 = alloca i64, align 8
  %4 = alloca i64, align 8
  store %"class.std::allocator"* %0, %"class.std::allocator"** %2, align 8
  call void @llvm.dbg.declare(metadata %"class.std::allocator"** %2, metadata !1270, metadata !DIExpression()), !dbg !1271
  call void @llvm.dbg.declare(metadata i64* %3, metadata !1272, metadata !DIExpression()), !dbg !1274
  store i64 2305843009213693951, i64* %3, align 8, !dbg !1274
  call void @llvm.dbg.declare(metadata i64* %4, metadata !1275, metadata !DIExpression()), !dbg !1276
  %5 = load %"class.std::allocator"*, %"class.std::allocator"** %2, align 8, !dbg !1277
  %6 = call i64 @_ZNSt16allocator_traitsISaIiEE8max_sizeERKS0_(%"class.std::allocator"* dereferenceable(1) %5) #10, !dbg !1278
  store i64 %6, i64* %4, align 8, !dbg !1276
  %7 = call dereferenceable(8) i64* @_ZSt3minImERKT_S2_S2_(i64* dereferenceable(8) %3, i64* dereferenceable(8) %4), !dbg !1279
  %8 = load i64, i64* %7, align 8, !dbg !1279
  ret i64 %8, !dbg !1280
}

; Function Attrs: noinline nounwind uwtable
define linkonce_odr dso_local void @_ZNSaIiEC2ERKS_(%"class.std::allocator"* %0, %"class.std::allocator"* dereferenceable(1) %1) unnamed_addr #4 comdat align 2 !dbg !1281 {
  %3 = alloca %"class.std::allocator"*, align 8
  %4 = alloca %"class.std::allocator"*, align 8
  store %"class.std::allocator"* %0, %"class.std::allocator"** %3, align 8
  call void @llvm.dbg.declare(metadata %"class.std::allocator"** %3, metadata !1282, metadata !DIExpression()), !dbg !1283
  store %"class.std::allocator"* %1, %"class.std::allocator"** %4, align 8
  call void @llvm.dbg.declare(metadata %"class.std::allocator"** %4, metadata !1284, metadata !DIExpression()), !dbg !1285
  %5 = load %"class.std::allocator"*, %"class.std::allocator"** %3, align 8
  %6 = bitcast %"class.std::allocator"* %5 to %"class.__gnu_cxx::new_allocator"*, !dbg !1286
  %7 = load %"class.std::allocator"*, %"class.std::allocator"** %4, align 8, !dbg !1287
  %8 = bitcast %"class.std::allocator"* %7 to %"class.__gnu_cxx::new_allocator"*, !dbg !1287
  call void @_ZN9__gnu_cxx13new_allocatorIiEC2ERKS1_(%"class.__gnu_cxx::new_allocator"* %6, %"class.__gnu_cxx::new_allocator"* dereferenceable(1) %8) #10, !dbg !1288
  ret void, !dbg !1289
}

; Function Attrs: noreturn
declare dso_local void @_ZSt20__throw_length_errorPKc(i8*) #5

; Function Attrs: noinline nounwind uwtable
define linkonce_odr dso_local i64 @_ZNSt16allocator_traitsISaIiEE8max_sizeERKS0_(%"class.std::allocator"* dereferenceable(1) %0) #4 comdat align 2 !dbg !1290 {
  %2 = alloca %"class.std::allocator"*, align 8
  store %"class.std::allocator"* %0, %"class.std::allocator"** %2, align 8
  call void @llvm.dbg.declare(metadata %"class.std::allocator"** %2, metadata !1291, metadata !DIExpression()), !dbg !1292
  %3 = load %"class.std::allocator"*, %"class.std::allocator"** %2, align 8, !dbg !1293
  %4 = bitcast %"class.std::allocator"* %3 to %"class.__gnu_cxx::new_allocator"*, !dbg !1293
  %5 = call i64 @_ZNK9__gnu_cxx13new_allocatorIiE8max_sizeEv(%"class.__gnu_cxx::new_allocator"* %4) #10, !dbg !1294
  ret i64 %5, !dbg !1295
}

; Function Attrs: noinline nounwind uwtable
define linkonce_odr dso_local dereferenceable(8) i64* @_ZSt3minImERKT_S2_S2_(i64* dereferenceable(8) %0, i64* dereferenceable(8) %1) #4 comdat !dbg !1296 {
  %3 = alloca i64*, align 8
  %4 = alloca i64*, align 8
  %5 = alloca i64*, align 8
  store i64* %0, i64** %4, align 8
  call void @llvm.dbg.declare(metadata i64** %4, metadata !1303, metadata !DIExpression()), !dbg !1304
  store i64* %1, i64** %5, align 8
  call void @llvm.dbg.declare(metadata i64** %5, metadata !1305, metadata !DIExpression()), !dbg !1306
  %6 = load i64*, i64** %5, align 8, !dbg !1307
  %7 = load i64, i64* %6, align 8, !dbg !1307
  %8 = load i64*, i64** %4, align 8, !dbg !1309
  %9 = load i64, i64* %8, align 8, !dbg !1309
  %10 = icmp ult i64 %7, %9, !dbg !1310
  br i1 %10, label %11, label %13, !dbg !1311

11:                                               ; preds = %2
  %12 = load i64*, i64** %5, align 8, !dbg !1312
  store i64* %12, i64** %3, align 8, !dbg !1313
  br label %15, !dbg !1313

13:                                               ; preds = %2
  %14 = load i64*, i64** %4, align 8, !dbg !1314
  store i64* %14, i64** %3, align 8, !dbg !1315
  br label %15, !dbg !1315

15:                                               ; preds = %13, %11
  %16 = load i64*, i64** %3, align 8, !dbg !1316
  ret i64* %16, !dbg !1316
}

; Function Attrs: noinline noreturn nounwind
define linkonce_odr hidden void @__clang_call_terminate(i8* %0) #7 comdat {
  %2 = call i8* @__cxa_begin_catch(i8* %0) #10
  call void @_ZSt9terminatev() #11
  unreachable
}

declare dso_local i8* @__cxa_begin_catch(i8*)

declare dso_local void @_ZSt9terminatev()

; Function Attrs: noinline nounwind uwtable
define linkonce_odr dso_local i64 @_ZNK9__gnu_cxx13new_allocatorIiE8max_sizeEv(%"class.__gnu_cxx::new_allocator"* %0) #4 comdat align 2 !dbg !1317 {
  %2 = alloca %"class.__gnu_cxx::new_allocator"*, align 8
  store %"class.__gnu_cxx::new_allocator"* %0, %"class.__gnu_cxx::new_allocator"** %2, align 8
  call void @llvm.dbg.declare(metadata %"class.__gnu_cxx::new_allocator"** %2, metadata !1318, metadata !DIExpression()), !dbg !1319
  %3 = load %"class.__gnu_cxx::new_allocator"*, %"class.__gnu_cxx::new_allocator"** %2, align 8
  %4 = call i64 @_ZNK9__gnu_cxx13new_allocatorIiE11_M_max_sizeEv(%"class.__gnu_cxx::new_allocator"* %3) #10, !dbg !1320
  ret i64 %4, !dbg !1321
}

; Function Attrs: noinline uwtable
define linkonce_odr dso_local i32* @_ZSt18uninitialized_copyIPKiPiET0_T_S4_S3_(i32* %0, i32* %1, i32* %2) #0 comdat !dbg !1322 {
  %4 = alloca i32*, align 8
  %5 = alloca i32*, align 8
  %6 = alloca i32*, align 8
  %7 = alloca i8, align 1
  store i32* %0, i32** %4, align 8
  call void @llvm.dbg.declare(metadata i32** %4, metadata !1326, metadata !DIExpression()), !dbg !1327
  store i32* %1, i32** %5, align 8
  call void @llvm.dbg.declare(metadata i32** %5, metadata !1328, metadata !DIExpression()), !dbg !1329
  store i32* %2, i32** %6, align 8
  call void @llvm.dbg.declare(metadata i32** %6, metadata !1330, metadata !DIExpression()), !dbg !1331
  call void @llvm.dbg.declare(metadata i8* %7, metadata !1332, metadata !DIExpression()), !dbg !1333
  store i8 1, i8* %7, align 1, !dbg !1333
  %8 = load i32*, i32** %4, align 8, !dbg !1334
  %9 = load i32*, i32** %5, align 8, !dbg !1335
  %10 = load i32*, i32** %6, align 8, !dbg !1336
  %11 = call i32* @_ZNSt20__uninitialized_copyILb1EE13__uninit_copyIPKiPiEET0_T_S6_S5_(i32* %8, i32* %9, i32* %10), !dbg !1337
  ret i32* %11, !dbg !1338
}

; Function Attrs: noinline uwtable
define linkonce_odr dso_local i32* @_ZNSt20__uninitialized_copyILb1EE13__uninit_copyIPKiPiEET0_T_S6_S5_(i32* %0, i32* %1, i32* %2) #0 comdat align 2 !dbg !1339 {
  %4 = alloca i32*, align 8
  %5 = alloca i32*, align 8
  %6 = alloca i32*, align 8
  store i32* %0, i32** %4, align 8
  call void @llvm.dbg.declare(metadata i32** %4, metadata !1344, metadata !DIExpression()), !dbg !1345
  store i32* %1, i32** %5, align 8
  call void @llvm.dbg.declare(metadata i32** %5, metadata !1346, metadata !DIExpression()), !dbg !1347
  store i32* %2, i32** %6, align 8
  call void @llvm.dbg.declare(metadata i32** %6, metadata !1348, metadata !DIExpression()), !dbg !1349
  %7 = load i32*, i32** %4, align 8, !dbg !1350
  %8 = load i32*, i32** %5, align 8, !dbg !1351
  %9 = load i32*, i32** %6, align 8, !dbg !1352
  %10 = call i32* @_ZSt4copyIPKiPiET0_T_S4_S3_(i32* %7, i32* %8, i32* %9), !dbg !1353
  ret i32* %10, !dbg !1354
}

; Function Attrs: noinline uwtable
define linkonce_odr dso_local i32* @_ZSt4copyIPKiPiET0_T_S4_S3_(i32* %0, i32* %1, i32* %2) #0 comdat !dbg !1355 {
  %4 = alloca i32*, align 8
  %5 = alloca i32*, align 8
  %6 = alloca i32*, align 8
  store i32* %0, i32** %4, align 8
  call void @llvm.dbg.declare(metadata i32** %4, metadata !1359, metadata !DIExpression()), !dbg !1360
  store i32* %1, i32** %5, align 8
  call void @llvm.dbg.declare(metadata i32** %5, metadata !1361, metadata !DIExpression()), !dbg !1362
  store i32* %2, i32** %6, align 8
  call void @llvm.dbg.declare(metadata i32** %6, metadata !1363, metadata !DIExpression()), !dbg !1364
  %7 = load i32*, i32** %4, align 8, !dbg !1365
  %8 = call i32* @_ZSt12__miter_baseIPKiET_S2_(i32* %7), !dbg !1366
  %9 = load i32*, i32** %5, align 8, !dbg !1367
  %10 = call i32* @_ZSt12__miter_baseIPKiET_S2_(i32* %9), !dbg !1368
  %11 = load i32*, i32** %6, align 8, !dbg !1369
  %12 = call i32* @_ZSt13__copy_move_aILb0EPKiPiET1_T0_S4_S3_(i32* %8, i32* %10, i32* %11), !dbg !1370
  ret i32* %12, !dbg !1371
}

; Function Attrs: noinline uwtable
define linkonce_odr dso_local i32* @_ZSt13__copy_move_aILb0EPKiPiET1_T0_S4_S3_(i32* %0, i32* %1, i32* %2) #0 comdat !dbg !1372 {
  %4 = alloca i32*, align 8
  %5 = alloca i32*, align 8
  %6 = alloca i32*, align 8
  store i32* %0, i32** %4, align 8
  call void @llvm.dbg.declare(metadata i32** %4, metadata !1375, metadata !DIExpression()), !dbg !1376
  store i32* %1, i32** %5, align 8
  call void @llvm.dbg.declare(metadata i32** %5, metadata !1377, metadata !DIExpression()), !dbg !1378
  store i32* %2, i32** %6, align 8
  call void @llvm.dbg.declare(metadata i32** %6, metadata !1379, metadata !DIExpression()), !dbg !1380
  %7 = load i32*, i32** %4, align 8, !dbg !1381
  %8 = call i32* @_ZSt12__niter_baseIPKiET_S2_(i32* %7) #10, !dbg !1382
  %9 = load i32*, i32** %5, align 8, !dbg !1383
  %10 = call i32* @_ZSt12__niter_baseIPKiET_S2_(i32* %9) #10, !dbg !1384
  %11 = load i32*, i32** %6, align 8, !dbg !1385
  %12 = call i32* @_ZSt12__niter_baseIPiET_S1_(i32* %11) #10, !dbg !1386
  %13 = call i32* @_ZSt14__copy_move_a1ILb0EPKiPiET1_T0_S4_S3_(i32* %8, i32* %10, i32* %12), !dbg !1387
  %14 = call i32* @_ZSt12__niter_wrapIPiET_RKS1_S1_(i32** dereferenceable(8) %6, i32* %13), !dbg !1388
  ret i32* %14, !dbg !1389
}

; Function Attrs: noinline nounwind uwtable
define linkonce_odr dso_local i32* @_ZSt12__miter_baseIPKiET_S2_(i32* %0) #4 comdat !dbg !1390 {
  %2 = alloca i32*, align 8
  store i32* %0, i32** %2, align 8
  call void @llvm.dbg.declare(metadata i32** %2, metadata !1394, metadata !DIExpression()), !dbg !1395
  %3 = load i32*, i32** %2, align 8, !dbg !1396
  ret i32* %3, !dbg !1397
}

; Function Attrs: noinline nounwind uwtable
define linkonce_odr dso_local i32* @_ZSt12__niter_wrapIPiET_RKS1_S1_(i32** dereferenceable(8) %0, i32* %1) #4 comdat !dbg !1398 {
  %3 = alloca i32**, align 8
  %4 = alloca i32*, align 8
  store i32** %0, i32*** %3, align 8
  call void @llvm.dbg.declare(metadata i32*** %3, metadata !1405, metadata !DIExpression()), !dbg !1406
  store i32* %1, i32** %4, align 8
  call void @llvm.dbg.declare(metadata i32** %4, metadata !1407, metadata !DIExpression()), !dbg !1408
  %5 = load i32*, i32** %4, align 8, !dbg !1409
  ret i32* %5, !dbg !1410
}

; Function Attrs: noinline uwtable
define linkonce_odr dso_local i32* @_ZSt14__copy_move_a1ILb0EPKiPiET1_T0_S4_S3_(i32* %0, i32* %1, i32* %2) #0 comdat !dbg !1411 {
  %4 = alloca i32*, align 8
  %5 = alloca i32*, align 8
  %6 = alloca i32*, align 8
  store i32* %0, i32** %4, align 8
  call void @llvm.dbg.declare(metadata i32** %4, metadata !1412, metadata !DIExpression()), !dbg !1413
  store i32* %1, i32** %5, align 8
  call void @llvm.dbg.declare(metadata i32** %5, metadata !1414, metadata !DIExpression()), !dbg !1415
  store i32* %2, i32** %6, align 8
  call void @llvm.dbg.declare(metadata i32** %6, metadata !1416, metadata !DIExpression()), !dbg !1417
  %7 = load i32*, i32** %4, align 8, !dbg !1418
  %8 = load i32*, i32** %5, align 8, !dbg !1419
  %9 = load i32*, i32** %6, align 8, !dbg !1420
  %10 = call i32* @_ZSt14__copy_move_a2ILb0EPKiPiET1_T0_S4_S3_(i32* %7, i32* %8, i32* %9), !dbg !1421
  ret i32* %10, !dbg !1422
}

; Function Attrs: noinline nounwind uwtable
define linkonce_odr dso_local i32* @_ZSt12__niter_baseIPKiET_S2_(i32* %0) #4 comdat !dbg !1423 {
  %2 = alloca i32*, align 8
  store i32* %0, i32** %2, align 8
  call void @llvm.dbg.declare(metadata i32** %2, metadata !1424, metadata !DIExpression()), !dbg !1425
  %3 = load i32*, i32** %2, align 8, !dbg !1426
  ret i32* %3, !dbg !1427
}

; Function Attrs: noinline nounwind uwtable
define linkonce_odr dso_local i32* @_ZSt12__niter_baseIPiET_S1_(i32* %0) #4 comdat !dbg !1428 {
  %2 = alloca i32*, align 8
  store i32* %0, i32** %2, align 8
  call void @llvm.dbg.declare(metadata i32** %2, metadata !1431, metadata !DIExpression()), !dbg !1432
  %3 = load i32*, i32** %2, align 8, !dbg !1433
  ret i32* %3, !dbg !1434
}

; Function Attrs: noinline uwtable
define linkonce_odr dso_local i32* @_ZSt14__copy_move_a2ILb0EPKiPiET1_T0_S4_S3_(i32* %0, i32* %1, i32* %2) #0 comdat !dbg !1435 {
  %4 = alloca i32*, align 8
  %5 = alloca i32*, align 8
  %6 = alloca i32*, align 8
  store i32* %0, i32** %4, align 8
  call void @llvm.dbg.declare(metadata i32** %4, metadata !1436, metadata !DIExpression()), !dbg !1437
  store i32* %1, i32** %5, align 8
  call void @llvm.dbg.declare(metadata i32** %5, metadata !1438, metadata !DIExpression()), !dbg !1439
  store i32* %2, i32** %6, align 8
  call void @llvm.dbg.declare(metadata i32** %6, metadata !1440, metadata !DIExpression()), !dbg !1441
  %7 = load i32*, i32** %4, align 8, !dbg !1442
  %8 = load i32*, i32** %5, align 8, !dbg !1443
  %9 = load i32*, i32** %6, align 8, !dbg !1444
  %10 = call i32* @_ZNSt11__copy_moveILb0ELb1ESt26random_access_iterator_tagE8__copy_mIiEEPT_PKS3_S6_S4_(i32* %7, i32* %8, i32* %9), !dbg !1445
  ret i32* %10, !dbg !1446
}

; Function Attrs: noinline nounwind uwtable
define linkonce_odr dso_local i32* @_ZNSt11__copy_moveILb0ELb1ESt26random_access_iterator_tagE8__copy_mIiEEPT_PKS3_S6_S4_(i32* %0, i32* %1, i32* %2) #4 comdat align 2 !dbg !1447 {
  %4 = alloca i32*, align 8
  %5 = alloca i32*, align 8
  %6 = alloca i32*, align 8
  %7 = alloca i64, align 8
  store i32* %0, i32** %4, align 8
  call void @llvm.dbg.declare(metadata i32** %4, metadata !1453, metadata !DIExpression()), !dbg !1454
  store i32* %1, i32** %5, align 8
  call void @llvm.dbg.declare(metadata i32** %5, metadata !1455, metadata !DIExpression()), !dbg !1456
  store i32* %2, i32** %6, align 8
  call void @llvm.dbg.declare(metadata i32** %6, metadata !1457, metadata !DIExpression()), !dbg !1458
  call void @llvm.dbg.declare(metadata i64* %7, metadata !1459, metadata !DIExpression()), !dbg !1461
  %8 = load i32*, i32** %5, align 8, !dbg !1462
  %9 = load i32*, i32** %4, align 8, !dbg !1463
  %10 = ptrtoint i32* %8 to i64, !dbg !1464
  %11 = ptrtoint i32* %9 to i64, !dbg !1464
  %12 = sub i64 %10, %11, !dbg !1464
  %13 = sdiv exact i64 %12, 4, !dbg !1464
  store i64 %13, i64* %7, align 8, !dbg !1461
  %14 = load i64, i64* %7, align 8, !dbg !1465
  %15 = icmp ne i64 %14, 0, !dbg !1465
  br i1 %15, label %16, label %24, !dbg !1467

16:                                               ; preds = %3
  %17 = load i32*, i32** %6, align 8, !dbg !1468
  %18 = bitcast i32* %17 to i8*, !dbg !1469
  %19 = load i32*, i32** %4, align 8, !dbg !1470
  %20 = bitcast i32* %19 to i8*, !dbg !1469
  %21 = load i64, i64* %7, align 8, !dbg !1471
  %22 = mul i64 4, %21, !dbg !1472
  %23 = call i8* @memmove(i8* %18, i8* %20, i64 %22), !dbg !1469
  br label %24, !dbg !1469

24:                                               ; preds = %16, %3
  %25 = load i32*, i32** %6, align 8, !dbg !1473
  %26 = load i64, i64* %7, align 8, !dbg !1474
  %27 = getelementptr inbounds i32, i32* %25, i64 %26, !dbg !1475
  ret i32* %27, !dbg !1476
}

; Function Attrs: argmemonly nounwind willreturn
declare void @llvm.memmove.p0i8.p0i8.i64(i8* nocapture, i8* nocapture readonly, i64, i1 immarg) #8

; Function Attrs: noinline nounwind uwtable
define linkonce_odr dso_local i64 @_ZNKSt16initializer_listIiE4sizeEv(%"class.std::initializer_list"* %0) #4 comdat align 2 !dbg !1477 {
  %2 = alloca %"class.std::initializer_list"*, align 8
  store %"class.std::initializer_list"* %0, %"class.std::initializer_list"** %2, align 8
  call void @llvm.dbg.declare(metadata %"class.std::initializer_list"** %2, metadata !1478, metadata !DIExpression()), !dbg !1479
  %3 = load %"class.std::initializer_list"*, %"class.std::initializer_list"** %2, align 8
  %4 = getelementptr inbounds %"class.std::initializer_list", %"class.std::initializer_list"* %3, i32 0, i32 1, !dbg !1480
  %5 = load i64, i64* %4, align 8, !dbg !1480
  ret i64 %5, !dbg !1481
}

; Function Attrs: noinline uwtable
define linkonce_odr dso_local void @_ZNSt12_Vector_baseIiSaIiEE13_M_deallocateEPim(%"struct.std::_Vector_base"* %0, i32* %1, i64 %2) #0 comdat align 2 !dbg !1482 {
  %4 = alloca %"struct.std::_Vector_base"*, align 8
  %5 = alloca i32*, align 8
  %6 = alloca i64, align 8
  store %"struct.std::_Vector_base"* %0, %"struct.std::_Vector_base"** %4, align 8
  call void @llvm.dbg.declare(metadata %"struct.std::_Vector_base"** %4, metadata !1483, metadata !DIExpression()), !dbg !1484
  store i32* %1, i32** %5, align 8
  call void @llvm.dbg.declare(metadata i32** %5, metadata !1485, metadata !DIExpression()), !dbg !1486
  store i64 %2, i64* %6, align 8
  call void @llvm.dbg.declare(metadata i64* %6, metadata !1487, metadata !DIExpression()), !dbg !1488
  %7 = load %"struct.std::_Vector_base"*, %"struct.std::_Vector_base"** %4, align 8
  %8 = load i32*, i32** %5, align 8, !dbg !1489
  %9 = icmp ne i32* %8, null, !dbg !1489
  br i1 %9, label %10, label %15, !dbg !1491

10:                                               ; preds = %3
  %11 = getelementptr inbounds %"struct.std::_Vector_base", %"struct.std::_Vector_base"* %7, i32 0, i32 0, !dbg !1492
  %12 = bitcast %"struct.std::_Vector_base<int, std::allocator<int> >::_Vector_impl"* %11 to %"class.std::allocator"*, !dbg !1492
  %13 = load i32*, i32** %5, align 8, !dbg !1493
  %14 = load i64, i64* %6, align 8, !dbg !1494
  call void @_ZNSt16allocator_traitsISaIiEE10deallocateERS0_Pim(%"class.std::allocator"* dereferenceable(1) %12, i32* %13, i64 %14), !dbg !1495
  br label %15, !dbg !1495

15:                                               ; preds = %10, %3
  ret void, !dbg !1496
}

; Function Attrs: noinline nounwind uwtable
define linkonce_odr dso_local void @_ZNSt12_Vector_baseIiSaIiEE12_Vector_implD2Ev(%"struct.std::_Vector_base<int, std::allocator<int> >::_Vector_impl"* %0) unnamed_addr #4 comdat align 2 !dbg !1497 {
  %2 = alloca %"struct.std::_Vector_base<int, std::allocator<int> >::_Vector_impl"*, align 8
  store %"struct.std::_Vector_base<int, std::allocator<int> >::_Vector_impl"* %0, %"struct.std::_Vector_base<int, std::allocator<int> >::_Vector_impl"** %2, align 8
  call void @llvm.dbg.declare(metadata %"struct.std::_Vector_base<int, std::allocator<int> >::_Vector_impl"** %2, metadata !1499, metadata !DIExpression()), !dbg !1500
  %3 = load %"struct.std::_Vector_base<int, std::allocator<int> >::_Vector_impl"*, %"struct.std::_Vector_base<int, std::allocator<int> >::_Vector_impl"** %2, align 8
  %4 = bitcast %"struct.std::_Vector_base<int, std::allocator<int> >::_Vector_impl"* %3 to %"class.std::allocator"*, !dbg !1501
  call void @_ZNSaIiED2Ev(%"class.std::allocator"* %4) #10, !dbg !1501
  ret void, !dbg !1503
}

; Function Attrs: noinline uwtable
define linkonce_odr dso_local void @_ZNSt16allocator_traitsISaIiEE10deallocateERS0_Pim(%"class.std::allocator"* dereferenceable(1) %0, i32* %1, i64 %2) #0 comdat align 2 !dbg !1504 {
  %4 = alloca %"class.std::allocator"*, align 8
  %5 = alloca i32*, align 8
  %6 = alloca i64, align 8
  store %"class.std::allocator"* %0, %"class.std::allocator"** %4, align 8
  call void @llvm.dbg.declare(metadata %"class.std::allocator"** %4, metadata !1505, metadata !DIExpression()), !dbg !1506
  store i32* %1, i32** %5, align 8
  call void @llvm.dbg.declare(metadata i32** %5, metadata !1507, metadata !DIExpression()), !dbg !1508
  store i64 %2, i64* %6, align 8
  call void @llvm.dbg.declare(metadata i64* %6, metadata !1509, metadata !DIExpression()), !dbg !1510
  %7 = load %"class.std::allocator"*, %"class.std::allocator"** %4, align 8, !dbg !1511
  %8 = bitcast %"class.std::allocator"* %7 to %"class.__gnu_cxx::new_allocator"*, !dbg !1511
  %9 = load i32*, i32** %5, align 8, !dbg !1512
  %10 = load i64, i64* %6, align 8, !dbg !1513
  call void @_ZN9__gnu_cxx13new_allocatorIiE10deallocateEPim(%"class.__gnu_cxx::new_allocator"* %8, i32* %9, i64 %10), !dbg !1514
  ret void, !dbg !1515
}

; Function Attrs: noinline nounwind uwtable
define linkonce_odr dso_local void @_ZN9__gnu_cxx13new_allocatorIiE10deallocateEPim(%"class.__gnu_cxx::new_allocator"* %0, i32* %1, i64 %2) #4 comdat align 2 !dbg !1516 {
  %4 = alloca %"class.__gnu_cxx::new_allocator"*, align 8
  %5 = alloca i32*, align 8
  %6 = alloca i64, align 8
  store %"class.__gnu_cxx::new_allocator"* %0, %"class.__gnu_cxx::new_allocator"** %4, align 8
  call void @llvm.dbg.declare(metadata %"class.__gnu_cxx::new_allocator"** %4, metadata !1517, metadata !DIExpression()), !dbg !1518
  store i32* %1, i32** %5, align 8
  call void @llvm.dbg.declare(metadata i32** %5, metadata !1519, metadata !DIExpression()), !dbg !1520
  store i64 %2, i64* %6, align 8
  call void @llvm.dbg.declare(metadata i64* %6, metadata !1521, metadata !DIExpression()), !dbg !1522
  %7 = load %"class.__gnu_cxx::new_allocator"*, %"class.__gnu_cxx::new_allocator"** %4, align 8
  %8 = load i32*, i32** %5, align 8, !dbg !1523
  %9 = bitcast i32* %8 to i8*, !dbg !1523
  call void @_ZdlPv(i8* %9) #10, !dbg !1524
  ret void, !dbg !1525
}

; Function Attrs: nobuiltin nounwind
declare dso_local void @_ZdlPv(i8*) #9

; Function Attrs: noinline uwtable
define linkonce_odr dso_local void @_ZSt8_DestroyIPiiEvT_S1_RSaIT0_E(i32* %0, i32* %1, %"class.std::allocator"* dereferenceable(1) %2) #0 comdat !dbg !1526 {
  %4 = alloca i32*, align 8
  %5 = alloca i32*, align 8
  %6 = alloca %"class.std::allocator"*, align 8
  store i32* %0, i32** %4, align 8
  call void @llvm.dbg.declare(metadata i32** %4, metadata !1530, metadata !DIExpression()), !dbg !1531
  store i32* %1, i32** %5, align 8
  call void @llvm.dbg.declare(metadata i32** %5, metadata !1532, metadata !DIExpression()), !dbg !1533
  store %"class.std::allocator"* %2, %"class.std::allocator"** %6, align 8
  call void @llvm.dbg.declare(metadata %"class.std::allocator"** %6, metadata !1534, metadata !DIExpression()), !dbg !1535
  %7 = load i32*, i32** %4, align 8, !dbg !1536
  %8 = load i32*, i32** %5, align 8, !dbg !1537
  call void @_ZSt8_DestroyIPiEvT_S1_(i32* %7, i32* %8), !dbg !1538
  ret void, !dbg !1539
}

; Function Attrs: noinline uwtable
define linkonce_odr dso_local void @_ZSt8_DestroyIPiEvT_S1_(i32* %0, i32* %1) #0 comdat !dbg !1540 {
  %3 = alloca i32*, align 8
  %4 = alloca i32*, align 8
  store i32* %0, i32** %3, align 8
  call void @llvm.dbg.declare(metadata i32** %3, metadata !1545, metadata !DIExpression()), !dbg !1546
  store i32* %1, i32** %4, align 8
  call void @llvm.dbg.declare(metadata i32** %4, metadata !1547, metadata !DIExpression()), !dbg !1548
  %5 = load i32*, i32** %3, align 8, !dbg !1549
  %6 = load i32*, i32** %4, align 8, !dbg !1550
  call void @_ZNSt12_Destroy_auxILb1EE9__destroyIPiEEvT_S3_(i32* %5, i32* %6), !dbg !1551
  ret void, !dbg !1552
}

; Function Attrs: noinline nounwind uwtable
define linkonce_odr dso_local void @_ZNSt12_Destroy_auxILb1EE9__destroyIPiEEvT_S3_(i32* %0, i32* %1) #4 comdat align 2 !dbg !1553 {
  %3 = alloca i32*, align 8
  %4 = alloca i32*, align 8
  store i32* %0, i32** %3, align 8
  call void @llvm.dbg.declare(metadata i32** %3, metadata !1558, metadata !DIExpression()), !dbg !1559
  store i32* %1, i32** %4, align 8
  call void @llvm.dbg.declare(metadata i32** %4, metadata !1560, metadata !DIExpression()), !dbg !1561
  ret void, !dbg !1562
}

; Function Attrs: noinline nounwind uwtable
define dso_local i8* @memmove(i8* %0, i8* %1, i64 %2) #4 !dbg !1563 {
  %4 = alloca i8*, align 8
  %5 = alloca i8*, align 8
  %6 = alloca i8*, align 8
  %7 = alloca i64, align 8
  %8 = alloca i8*, align 8
  %9 = alloca i8*, align 8
  store i8* %0, i8** %5, align 8
  call void @llvm.dbg.declare(metadata i8** %5, metadata !1569, metadata !DIExpression()), !dbg !1570
  store i8* %1, i8** %6, align 8
  call void @llvm.dbg.declare(metadata i8** %6, metadata !1571, metadata !DIExpression()), !dbg !1572
  store i64 %2, i64* %7, align 8
  call void @llvm.dbg.declare(metadata i64* %7, metadata !1573, metadata !DIExpression()), !dbg !1574
  call void @llvm.dbg.declare(metadata i8** %8, metadata !1575, metadata !DIExpression()), !dbg !1576
  %10 = load i8*, i8** %5, align 8, !dbg !1577
  store i8* %10, i8** %8, align 8, !dbg !1576
  call void @llvm.dbg.declare(metadata i8** %9, metadata !1578, metadata !DIExpression()), !dbg !1579
  %11 = load i8*, i8** %6, align 8, !dbg !1580
  store i8* %11, i8** %9, align 8, !dbg !1579
  %12 = load i8*, i8** %6, align 8, !dbg !1581
  %13 = load i8*, i8** %5, align 8, !dbg !1583
  %14 = icmp eq i8* %12, %13, !dbg !1584
  br i1 %14, label %15, label %17, !dbg !1585

15:                                               ; preds = %3
  %16 = load i8*, i8** %5, align 8, !dbg !1586
  store i8* %16, i8** %4, align 8, !dbg !1587
  br label %52, !dbg !1587

17:                                               ; preds = %3
  %18 = load i8*, i8** %6, align 8, !dbg !1588
  %19 = load i8*, i8** %5, align 8, !dbg !1590
  %20 = icmp ugt i8* %18, %19, !dbg !1591
  br i1 %20, label %21, label %31, !dbg !1592

21:                                               ; preds = %17, %25
  %22 = load i64, i64* %7, align 8, !dbg !1593
  %23 = add i64 %22, -1, !dbg !1593
  store i64 %23, i64* %7, align 8, !dbg !1593
  %24 = icmp ne i64 %22, 0, !dbg !1595
  br i1 %24, label %25, label %50, !dbg !1595

25:                                               ; preds = %21
  %26 = load i8*, i8** %9, align 8, !dbg !1596
  %27 = getelementptr inbounds i8, i8* %26, i32 1, !dbg !1596
  store i8* %27, i8** %9, align 8, !dbg !1596
  %28 = load i8, i8* %26, align 1, !dbg !1597
  %29 = load i8*, i8** %8, align 8, !dbg !1598
  %30 = getelementptr inbounds i8, i8* %29, i32 1, !dbg !1598
  store i8* %30, i8** %8, align 8, !dbg !1598
  store i8 %28, i8* %29, align 1, !dbg !1599
  br label %21, !dbg !1595, !llvm.loop !1600

31:                                               ; preds = %17
  %32 = load i64, i64* %7, align 8, !dbg !1601
  %33 = sub i64 %32, 1, !dbg !1603
  %34 = load i8*, i8** %8, align 8, !dbg !1604
  %35 = getelementptr inbounds i8, i8* %34, i64 %33, !dbg !1604
  store i8* %35, i8** %8, align 8, !dbg !1604
  %36 = load i64, i64* %7, align 8, !dbg !1605
  %37 = sub i64 %36, 1, !dbg !1606
  %38 = load i8*, i8** %9, align 8, !dbg !1607
  %39 = getelementptr inbounds i8, i8* %38, i64 %37, !dbg !1607
  store i8* %39, i8** %9, align 8, !dbg !1607
  br label %40, !dbg !1608

40:                                               ; preds = %44, %31
  %41 = load i64, i64* %7, align 8, !dbg !1609
  %42 = add i64 %41, -1, !dbg !1609
  store i64 %42, i64* %7, align 8, !dbg !1609
  %43 = icmp ne i64 %41, 0, !dbg !1608
  br i1 %43, label %44, label %50, !dbg !1608

44:                                               ; preds = %40
  %45 = load i8*, i8** %9, align 8, !dbg !1610
  %46 = getelementptr inbounds i8, i8* %45, i32 -1, !dbg !1610
  store i8* %46, i8** %9, align 8, !dbg !1610
  %47 = load i8, i8* %45, align 1, !dbg !1611
  %48 = load i8*, i8** %8, align 8, !dbg !1612
  %49 = getelementptr inbounds i8, i8* %48, i32 -1, !dbg !1612
  store i8* %49, i8** %8, align 8, !dbg !1612
  store i8 %47, i8* %48, align 1, !dbg !1613
  br label %40, !dbg !1608, !llvm.loop !1614

50:                                               ; preds = %40, %21
  %51 = load i8*, i8** %5, align 8, !dbg !1615
  store i8* %51, i8** %4, align 8, !dbg !1616
  br label %52, !dbg !1616

52:                                               ; preds = %50, %15
  %53 = load i8*, i8** %4, align 8, !dbg !1617
  ret i8* %53, !dbg !1617
}

attributes #0 = { noinline uwtable "correctly-rounded-divide-sqrt-fp-math"="false" "disable-tail-calls"="false" "frame-pointer"="all" "less-precise-fpmad"="false" "min-legal-vector-width"="0" "no-infs-fp-math"="false" "no-jump-tables"="false" "no-nans-fp-math"="false" "no-signed-zeros-fp-math"="false" "no-trapping-math"="false" "stack-protector-buffer-size"="8" "target-cpu"="x86-64" "target-features"="+cx8,+fxsr,+mmx,+sse,+sse2,+x87" "unsafe-fp-math"="false" "use-soft-float"="false" }
attributes #1 = { nounwind readnone speculatable willreturn }
attributes #2 = { "correctly-rounded-divide-sqrt-fp-math"="false" "disable-tail-calls"="false" "frame-pointer"="all" "less-precise-fpmad"="false" "no-infs-fp-math"="false" "no-nans-fp-math"="false" "no-signed-zeros-fp-math"="false" "no-trapping-math"="false" "stack-protector-buffer-size"="8" "target-cpu"="x86-64" "target-features"="+cx8,+fxsr,+mmx,+sse,+sse2,+x87" "unsafe-fp-math"="false" "use-soft-float"="false" }
attributes #3 = { noinline norecurse uwtable "correctly-rounded-divide-sqrt-fp-math"="false" "disable-tail-calls"="false" "frame-pointer"="all" "less-precise-fpmad"="false" "min-legal-vector-width"="0" "no-infs-fp-math"="false" "no-jump-tables"="false" "no-nans-fp-math"="false" "no-signed-zeros-fp-math"="false" "no-trapping-math"="false" "stack-protector-buffer-size"="8" "target-cpu"="x86-64" "target-features"="+cx8,+fxsr,+mmx,+sse,+sse2,+x87" "unsafe-fp-math"="false" "use-soft-float"="false" }
attributes #4 = { noinline nounwind uwtable "correctly-rounded-divide-sqrt-fp-math"="false" "disable-tail-calls"="false" "frame-pointer"="all" "less-precise-fpmad"="false" "min-legal-vector-width"="0" "no-infs-fp-math"="false" "no-jump-tables"="false" "no-nans-fp-math"="false" "no-signed-zeros-fp-math"="false" "no-trapping-math"="false" "stack-protector-buffer-size"="8" "target-cpu"="x86-64" "target-features"="+cx8,+fxsr,+mmx,+sse,+sse2,+x87" "unsafe-fp-math"="false" "use-soft-float"="false" }
attributes #5 = { noreturn "correctly-rounded-divide-sqrt-fp-math"="false" "disable-tail-calls"="false" "frame-pointer"="all" "less-precise-fpmad"="false" "no-infs-fp-math"="false" "no-nans-fp-math"="false" "no-signed-zeros-fp-math"="false" "no-trapping-math"="false" "stack-protector-buffer-size"="8" "target-cpu"="x86-64" "target-features"="+cx8,+fxsr,+mmx,+sse,+sse2,+x87" "unsafe-fp-math"="false" "use-soft-float"="false" }
attributes #6 = { nobuiltin "correctly-rounded-divide-sqrt-fp-math"="false" "disable-tail-calls"="false" "frame-pointer"="all" "less-precise-fpmad"="false" "no-infs-fp-math"="false" "no-nans-fp-math"="false" "no-signed-zeros-fp-math"="false" "no-trapping-math"="false" "stack-protector-buffer-size"="8" "target-cpu"="x86-64" "target-features"="+cx8,+fxsr,+mmx,+sse,+sse2,+x87" "unsafe-fp-math"="false" "use-soft-float"="false" }
attributes #7 = { noinline noreturn nounwind }
attributes #8 = { argmemonly nounwind willreturn }
attributes #9 = { nobuiltin nounwind "correctly-rounded-divide-sqrt-fp-math"="false" "disable-tail-calls"="false" "frame-pointer"="all" "less-precise-fpmad"="false" "no-infs-fp-math"="false" "no-nans-fp-math"="false" "no-signed-zeros-fp-math"="false" "no-trapping-math"="false" "stack-protector-buffer-size"="8" "target-cpu"="x86-64" "target-features"="+cx8,+fxsr,+mmx,+sse,+sse2,+x87" "unsafe-fp-math"="false" "use-soft-float"="false" }
attributes #10 = { nounwind }
attributes #11 = { noreturn nounwind }
attributes #12 = { noreturn }

!llvm.dbg.cu = !{!0, !780}
!llvm.module.flags = !{!782, !783, !784}
!llvm.ident = !{!785, !786}

!0 = distinct !DICompileUnit(language: DW_LANG_C_plus_plus_14, file: !1, producer: "clang version 10.0.0-4ubuntu1 ", isOptimized: false, runtimeVersion: 0, emissionKind: FullDebug, enums: !2, retainedTypes: !3, imports: !516, splitDebugInlining: false, nameTableKind: None)
!1 = !DIFile(filename: "montyhall.cpp", directory: "/home/ha-useast-service/Documents/Research/PSE-Program-Examples")
!2 = !{}
!3 = !{!4, !6, !8, !12}
!4 = !DIDerivedType(tag: DW_TAG_pointer_type, baseType: !5, size: 64)
!5 = !DIBasicType(name: "int", size: 32, encoding: DW_ATE_signed)
!6 = !DIDerivedType(tag: DW_TAG_pointer_type, baseType: !7, size: 64)
!7 = !DIDerivedType(tag: DW_TAG_const_type, baseType: null)
!8 = !DIDerivedType(tag: DW_TAG_typedef, name: "size_t", scope: !10, file: !9, line: 260, baseType: !11)
!9 = !DIFile(filename: "/usr/bin/../lib/gcc/x86_64-linux-gnu/10/../../../../include/x86_64-linux-gnu/c++/10/bits/c++config.h", directory: "")
!10 = !DINamespace(name: "std", scope: null)
!11 = !DIBasicType(name: "long unsigned int", size: 64, encoding: DW_ATE_unsigned)
!12 = !DIDerivedType(tag: DW_TAG_typedef, name: "_Tp_alloc_type", scope: !14, file: !13, line: 410, baseType: !23)
!13 = !DIFile(filename: "/usr/bin/../lib/gcc/x86_64-linux-gnu/10/../../../../include/c++/10/bits/stl_vector.h", directory: "")
!14 = distinct !DICompositeType(tag: DW_TAG_class_type, name: "vector<int, std::allocator<int> >", scope: !10, file: !13, line: 389, size: 192, flags: DIFlagTypePassByReference | DIFlagNonTrivial, elements: !15, templateParams: !231, identifier: "_ZTSSt6vectorIiSaIiEE")
!15 = !{!16, !232, !251, !267, !268, !273, !276, !279, !283, !289, !293, !299, !304, !308, !311, !314, !317, !320, !349, !350, !354, !357, !360, !363, !366, !372, !378, !379, !380, !385, !390, !391, !392, !393, !394, !395, !396, !399, !400, !403, !404, !405, !406, !409, !410, !418, !425, !428, !429, !430, !433, !436, !437, !438, !441, !444, !447, !451, !452, !455, !458, !461, !464, !467, !470, !473, !474, !475, !476, !477, !480, !481, !484, !485, !486, !493, !496, !501, !504, !507, !510, !513}
!16 = !DIDerivedType(tag: DW_TAG_inheritance, scope: !14, baseType: !17, flags: DIFlagProtected, extraData: i32 0)
!17 = distinct !DICompositeType(tag: DW_TAG_structure_type, name: "_Vector_base<int, std::allocator<int> >", scope: !10, file: !13, line: 84, size: 192, flags: DIFlagTypePassByReference | DIFlagNonTrivial, elements: !18, templateParams: !231, identifier: "_ZTSSt12_Vector_baseIiSaIiEE")
!18 = !{!19, !182, !187, !192, !196, !199, !204, !207, !210, !214, !217, !220, !223, !224, !227, !230}
!19 = !DIDerivedType(tag: DW_TAG_member, name: "_M_impl", scope: !17, file: !13, line: 340, baseType: !20, size: 192)
!20 = distinct !DICompositeType(tag: DW_TAG_structure_type, name: "_Vector_impl", scope: !17, file: !13, line: 128, size: 192, flags: DIFlagTypePassByReference | DIFlagNonTrivial, elements: !21, identifier: "_ZTSNSt12_Vector_baseIiSaIiEE12_Vector_implE")
!21 = !{!22, !137, !162, !166, !171, !175, !179}
!22 = !DIDerivedType(tag: DW_TAG_inheritance, scope: !20, baseType: !23, extraData: i32 0)
!23 = !DIDerivedType(tag: DW_TAG_typedef, name: "_Tp_alloc_type", scope: !17, file: !13, line: 87, baseType: !24)
!24 = !DIDerivedType(tag: DW_TAG_typedef, name: "other", scope: !26, file: !25, line: 120, baseType: !136)
!25 = !DIFile(filename: "/usr/bin/../lib/gcc/x86_64-linux-gnu/10/../../../../include/c++/10/ext/alloc_traits.h", directory: "")
!26 = distinct !DICompositeType(tag: DW_TAG_structure_type, name: "rebind<int>", scope: !27, file: !25, line: 119, size: 8, flags: DIFlagTypePassByValue, elements: !2, templateParams: !85, identifier: "_ZTSN9__gnu_cxx14__alloc_traitsISaIiEiE6rebindIiEE")
!27 = distinct !DICompositeType(tag: DW_TAG_structure_type, name: "__alloc_traits<std::allocator<int>, int>", scope: !28, file: !25, line: 48, size: 8, flags: DIFlagTypePassByValue, elements: !29, templateParams: !134, identifier: "_ZTSN9__gnu_cxx14__alloc_traitsISaIiEiEE")
!28 = !DINamespace(name: "__gnu_cxx", scope: null)
!29 = !{!30, !120, !123, !126, !130, !131, !132, !133}
!30 = !DIDerivedType(tag: DW_TAG_inheritance, scope: !27, baseType: !31, extraData: i32 0)
!31 = distinct !DICompositeType(tag: DW_TAG_structure_type, name: "allocator_traits<std::allocator<int> >", scope: !10, file: !32, line: 407, size: 8, flags: DIFlagTypePassByValue, elements: !33, templateParams: !118, identifier: "_ZTSSt16allocator_traitsISaIiEE")
!32 = !DIFile(filename: "/usr/bin/../lib/gcc/x86_64-linux-gnu/10/../../../../include/c++/10/bits/alloc_traits.h", directory: "")
!33 = !{!34, !102, !106, !109, !115}
!34 = !DISubprogram(name: "allocate", linkageName: "_ZNSt16allocator_traitsISaIiEE8allocateERS0_m", scope: !31, file: !32, line: 459, type: !35, scopeLine: 459, flags: DIFlagPrototyped | DIFlagStaticMember, spFlags: 0)
!35 = !DISubroutineType(types: !36)
!36 = !{!37, !38, !101}
!37 = !DIDerivedType(tag: DW_TAG_typedef, name: "pointer", scope: !31, file: !32, line: 416, baseType: !4)
!38 = !DIDerivedType(tag: DW_TAG_reference_type, baseType: !39, size: 64)
!39 = !DIDerivedType(tag: DW_TAG_typedef, name: "allocator_type", scope: !31, file: !32, line: 410, baseType: !40)
!40 = distinct !DICompositeType(tag: DW_TAG_class_type, name: "allocator<int>", scope: !10, file: !41, line: 116, size: 8, flags: DIFlagTypePassByReference | DIFlagNonTrivial, elements: !42, templateParams: !85, identifier: "_ZTSSaIiE")
!41 = !DIFile(filename: "/usr/bin/../lib/gcc/x86_64-linux-gnu/10/../../../../include/c++/10/bits/allocator.h", directory: "")
!42 = !{!43, !87, !91, !96, !100}
!43 = !DIDerivedType(tag: DW_TAG_inheritance, scope: !40, baseType: !44, flags: DIFlagPublic, extraData: i32 0)
!44 = !DIDerivedType(tag: DW_TAG_typedef, name: "__allocator_base<int>", scope: !10, file: !45, line: 48, baseType: !46)
!45 = !DIFile(filename: "/usr/bin/../lib/gcc/x86_64-linux-gnu/10/../../../../include/x86_64-linux-gnu/c++/10/bits/c++allocator.h", directory: "")
!46 = distinct !DICompositeType(tag: DW_TAG_class_type, name: "new_allocator<int>", scope: !28, file: !47, line: 55, size: 8, flags: DIFlagTypePassByReference | DIFlagNonTrivial, elements: !48, templateParams: !85, identifier: "_ZTSN9__gnu_cxx13new_allocatorIiEE")
!47 = !DIFile(filename: "/usr/bin/../lib/gcc/x86_64-linux-gnu/10/../../../../include/c++/10/ext/new_allocator.h", directory: "")
!48 = !{!49, !53, !58, !59, !66, !74, !78, !81, !84}
!49 = !DISubprogram(name: "new_allocator", scope: !46, file: !47, line: 79, type: !50, scopeLine: 79, flags: DIFlagPublic | DIFlagPrototyped, spFlags: 0)
!50 = !DISubroutineType(types: !51)
!51 = !{null, !52}
!52 = !DIDerivedType(tag: DW_TAG_pointer_type, baseType: !46, size: 64, flags: DIFlagArtificial | DIFlagObjectPointer)
!53 = !DISubprogram(name: "new_allocator", scope: !46, file: !47, line: 82, type: !54, scopeLine: 82, flags: DIFlagPublic | DIFlagPrototyped, spFlags: 0)
!54 = !DISubroutineType(types: !55)
!55 = !{null, !52, !56}
!56 = !DIDerivedType(tag: DW_TAG_reference_type, baseType: !57, size: 64)
!57 = !DIDerivedType(tag: DW_TAG_const_type, baseType: !46)
!58 = !DISubprogram(name: "~new_allocator", scope: !46, file: !47, line: 89, type: !50, scopeLine: 89, flags: DIFlagPublic | DIFlagPrototyped, spFlags: 0)
!59 = !DISubprogram(name: "address", linkageName: "_ZNK9__gnu_cxx13new_allocatorIiE7addressERi", scope: !46, file: !47, line: 92, type: !60, scopeLine: 92, flags: DIFlagPublic | DIFlagPrototyped, spFlags: 0)
!60 = !DISubroutineType(types: !61)
!61 = !{!62, !63, !64}
!62 = !DIDerivedType(tag: DW_TAG_typedef, name: "pointer", scope: !46, file: !47, line: 62, baseType: !4)
!63 = !DIDerivedType(tag: DW_TAG_pointer_type, baseType: !57, size: 64, flags: DIFlagArtificial | DIFlagObjectPointer)
!64 = !DIDerivedType(tag: DW_TAG_typedef, name: "reference", scope: !46, file: !47, line: 64, baseType: !65)
!65 = !DIDerivedType(tag: DW_TAG_reference_type, baseType: !5, size: 64)
!66 = !DISubprogram(name: "address", linkageName: "_ZNK9__gnu_cxx13new_allocatorIiE7addressERKi", scope: !46, file: !47, line: 96, type: !67, scopeLine: 96, flags: DIFlagPublic | DIFlagPrototyped, spFlags: 0)
!67 = !DISubroutineType(types: !68)
!68 = !{!69, !63, !72}
!69 = !DIDerivedType(tag: DW_TAG_typedef, name: "const_pointer", scope: !46, file: !47, line: 63, baseType: !70)
!70 = !DIDerivedType(tag: DW_TAG_pointer_type, baseType: !71, size: 64)
!71 = !DIDerivedType(tag: DW_TAG_const_type, baseType: !5)
!72 = !DIDerivedType(tag: DW_TAG_typedef, name: "const_reference", scope: !46, file: !47, line: 65, baseType: !73)
!73 = !DIDerivedType(tag: DW_TAG_reference_type, baseType: !71, size: 64)
!74 = !DISubprogram(name: "allocate", linkageName: "_ZN9__gnu_cxx13new_allocatorIiE8allocateEmPKv", scope: !46, file: !47, line: 103, type: !75, scopeLine: 103, flags: DIFlagPublic | DIFlagPrototyped, spFlags: 0)
!75 = !DISubroutineType(types: !76)
!76 = !{!4, !52, !77, !6}
!77 = !DIDerivedType(tag: DW_TAG_typedef, name: "size_type", file: !47, line: 59, baseType: !8)
!78 = !DISubprogram(name: "deallocate", linkageName: "_ZN9__gnu_cxx13new_allocatorIiE10deallocateEPim", scope: !46, file: !47, line: 120, type: !79, scopeLine: 120, flags: DIFlagPublic | DIFlagPrototyped, spFlags: 0)
!79 = !DISubroutineType(types: !80)
!80 = !{null, !52, !4, !77}
!81 = !DISubprogram(name: "max_size", linkageName: "_ZNK9__gnu_cxx13new_allocatorIiE8max_sizeEv", scope: !46, file: !47, line: 142, type: !82, scopeLine: 142, flags: DIFlagPublic | DIFlagPrototyped, spFlags: 0)
!82 = !DISubroutineType(types: !83)
!83 = !{!77, !63}
!84 = !DISubprogram(name: "_M_max_size", linkageName: "_ZNK9__gnu_cxx13new_allocatorIiE11_M_max_sizeEv", scope: !46, file: !47, line: 185, type: !82, scopeLine: 185, flags: DIFlagPrototyped, spFlags: 0)
!85 = !{!86}
!86 = !DITemplateTypeParameter(name: "_Tp", type: !5)
!87 = !DISubprogram(name: "allocator", scope: !40, file: !41, line: 144, type: !88, scopeLine: 144, flags: DIFlagPublic | DIFlagPrototyped, spFlags: 0)
!88 = !DISubroutineType(types: !89)
!89 = !{null, !90}
!90 = !DIDerivedType(tag: DW_TAG_pointer_type, baseType: !40, size: 64, flags: DIFlagArtificial | DIFlagObjectPointer)
!91 = !DISubprogram(name: "allocator", scope: !40, file: !41, line: 147, type: !92, scopeLine: 147, flags: DIFlagPublic | DIFlagPrototyped, spFlags: 0)
!92 = !DISubroutineType(types: !93)
!93 = !{null, !90, !94}
!94 = !DIDerivedType(tag: DW_TAG_reference_type, baseType: !95, size: 64)
!95 = !DIDerivedType(tag: DW_TAG_const_type, baseType: !40)
!96 = !DISubprogram(name: "operator=", linkageName: "_ZNSaIiEaSERKS_", scope: !40, file: !41, line: 152, type: !97, scopeLine: 152, flags: DIFlagPublic | DIFlagPrototyped, spFlags: 0)
!97 = !DISubroutineType(types: !98)
!98 = !{!99, !90, !94}
!99 = !DIDerivedType(tag: DW_TAG_reference_type, baseType: !40, size: 64)
!100 = !DISubprogram(name: "~allocator", scope: !40, file: !41, line: 162, type: !88, scopeLine: 162, flags: DIFlagPublic | DIFlagPrototyped, spFlags: 0)
!101 = !DIDerivedType(tag: DW_TAG_typedef, name: "size_type", file: !32, line: 431, baseType: !8)
!102 = !DISubprogram(name: "allocate", linkageName: "_ZNSt16allocator_traitsISaIiEE8allocateERS0_mPKv", scope: !31, file: !32, line: 473, type: !103, scopeLine: 473, flags: DIFlagPrototyped | DIFlagStaticMember, spFlags: 0)
!103 = !DISubroutineType(types: !104)
!104 = !{!37, !38, !101, !105}
!105 = !DIDerivedType(tag: DW_TAG_typedef, name: "const_void_pointer", file: !32, line: 425, baseType: !6)
!106 = !DISubprogram(name: "deallocate", linkageName: "_ZNSt16allocator_traitsISaIiEE10deallocateERS0_Pim", scope: !31, file: !32, line: 491, type: !107, scopeLine: 491, flags: DIFlagPrototyped | DIFlagStaticMember, spFlags: 0)
!107 = !DISubroutineType(types: !108)
!108 = !{null, !38, !37, !101}
!109 = !DISubprogram(name: "max_size", linkageName: "_ZNSt16allocator_traitsISaIiEE8max_sizeERKS0_", scope: !31, file: !32, line: 543, type: !110, scopeLine: 543, flags: DIFlagPrototyped | DIFlagStaticMember, spFlags: 0)
!110 = !DISubroutineType(types: !111)
!111 = !{!112, !113}
!112 = !DIDerivedType(tag: DW_TAG_typedef, name: "size_type", scope: !31, file: !32, line: 431, baseType: !8)
!113 = !DIDerivedType(tag: DW_TAG_reference_type, baseType: !114, size: 64)
!114 = !DIDerivedType(tag: DW_TAG_const_type, baseType: !39)
!115 = !DISubprogram(name: "select_on_container_copy_construction", linkageName: "_ZNSt16allocator_traitsISaIiEE37select_on_container_copy_constructionERKS0_", scope: !31, file: !32, line: 558, type: !116, scopeLine: 558, flags: DIFlagPrototyped | DIFlagStaticMember, spFlags: 0)
!116 = !DISubroutineType(types: !117)
!117 = !{!39, !113}
!118 = !{!119}
!119 = !DITemplateTypeParameter(name: "_Alloc", type: !40)
!120 = !DISubprogram(name: "_S_select_on_copy", linkageName: "_ZN9__gnu_cxx14__alloc_traitsISaIiEiE17_S_select_on_copyERKS1_", scope: !27, file: !25, line: 97, type: !121, scopeLine: 97, flags: DIFlagPrototyped | DIFlagStaticMember, spFlags: 0)
!121 = !DISubroutineType(types: !122)
!122 = !{!40, !94}
!123 = !DISubprogram(name: "_S_on_swap", linkageName: "_ZN9__gnu_cxx14__alloc_traitsISaIiEiE10_S_on_swapERS1_S3_", scope: !27, file: !25, line: 100, type: !124, scopeLine: 100, flags: DIFlagPrototyped | DIFlagStaticMember, spFlags: 0)
!124 = !DISubroutineType(types: !125)
!125 = !{null, !99, !99}
!126 = !DISubprogram(name: "_S_propagate_on_copy_assign", linkageName: "_ZN9__gnu_cxx14__alloc_traitsISaIiEiE27_S_propagate_on_copy_assignEv", scope: !27, file: !25, line: 103, type: !127, scopeLine: 103, flags: DIFlagPrototyped | DIFlagStaticMember, spFlags: 0)
!127 = !DISubroutineType(types: !128)
!128 = !{!129}
!129 = !DIBasicType(name: "bool", size: 8, encoding: DW_ATE_boolean)
!130 = !DISubprogram(name: "_S_propagate_on_move_assign", linkageName: "_ZN9__gnu_cxx14__alloc_traitsISaIiEiE27_S_propagate_on_move_assignEv", scope: !27, file: !25, line: 106, type: !127, scopeLine: 106, flags: DIFlagPrototyped | DIFlagStaticMember, spFlags: 0)
!131 = !DISubprogram(name: "_S_propagate_on_swap", linkageName: "_ZN9__gnu_cxx14__alloc_traitsISaIiEiE20_S_propagate_on_swapEv", scope: !27, file: !25, line: 109, type: !127, scopeLine: 109, flags: DIFlagPrototyped | DIFlagStaticMember, spFlags: 0)
!132 = !DISubprogram(name: "_S_always_equal", linkageName: "_ZN9__gnu_cxx14__alloc_traitsISaIiEiE15_S_always_equalEv", scope: !27, file: !25, line: 112, type: !127, scopeLine: 112, flags: DIFlagPrototyped | DIFlagStaticMember, spFlags: 0)
!133 = !DISubprogram(name: "_S_nothrow_move", linkageName: "_ZN9__gnu_cxx14__alloc_traitsISaIiEiE15_S_nothrow_moveEv", scope: !27, file: !25, line: 115, type: !127, scopeLine: 115, flags: DIFlagPrototyped | DIFlagStaticMember, spFlags: 0)
!134 = !{!119, !135}
!135 = !DITemplateTypeParameter(type: !5)
!136 = !DIDerivedType(tag: DW_TAG_typedef, name: "rebind_alloc<int>", scope: !31, file: !32, line: 446, baseType: !40)
!137 = !DIDerivedType(tag: DW_TAG_inheritance, scope: !20, baseType: !138, extraData: i32 0)
!138 = distinct !DICompositeType(tag: DW_TAG_structure_type, name: "_Vector_impl_data", scope: !17, file: !13, line: 91, size: 192, flags: DIFlagTypePassByReference | DIFlagNonTrivial, elements: !139, identifier: "_ZTSNSt12_Vector_baseIiSaIiEE17_Vector_impl_dataE")
!139 = !{!140, !143, !144, !145, !149, !153, !158}
!140 = !DIDerivedType(tag: DW_TAG_member, name: "_M_start", scope: !138, file: !13, line: 93, baseType: !141, size: 64)
!141 = !DIDerivedType(tag: DW_TAG_typedef, name: "pointer", scope: !17, file: !13, line: 89, baseType: !142)
!142 = !DIDerivedType(tag: DW_TAG_typedef, name: "pointer", scope: !27, file: !25, line: 57, baseType: !37)
!143 = !DIDerivedType(tag: DW_TAG_member, name: "_M_finish", scope: !138, file: !13, line: 94, baseType: !141, size: 64, offset: 64)
!144 = !DIDerivedType(tag: DW_TAG_member, name: "_M_end_of_storage", scope: !138, file: !13, line: 95, baseType: !141, size: 64, offset: 128)
!145 = !DISubprogram(name: "_Vector_impl_data", scope: !138, file: !13, line: 97, type: !146, scopeLine: 97, flags: DIFlagPrototyped, spFlags: 0)
!146 = !DISubroutineType(types: !147)
!147 = !{null, !148}
!148 = !DIDerivedType(tag: DW_TAG_pointer_type, baseType: !138, size: 64, flags: DIFlagArtificial | DIFlagObjectPointer)
!149 = !DISubprogram(name: "_Vector_impl_data", scope: !138, file: !13, line: 102, type: !150, scopeLine: 102, flags: DIFlagPrototyped, spFlags: 0)
!150 = !DISubroutineType(types: !151)
!151 = !{null, !148, !152}
!152 = !DIDerivedType(tag: DW_TAG_rvalue_reference_type, baseType: !138, size: 64)
!153 = !DISubprogram(name: "_M_copy_data", linkageName: "_ZNSt12_Vector_baseIiSaIiEE17_Vector_impl_data12_M_copy_dataERKS2_", scope: !138, file: !13, line: 109, type: !154, scopeLine: 109, flags: DIFlagPrototyped, spFlags: 0)
!154 = !DISubroutineType(types: !155)
!155 = !{null, !148, !156}
!156 = !DIDerivedType(tag: DW_TAG_reference_type, baseType: !157, size: 64)
!157 = !DIDerivedType(tag: DW_TAG_const_type, baseType: !138)
!158 = !DISubprogram(name: "_M_swap_data", linkageName: "_ZNSt12_Vector_baseIiSaIiEE17_Vector_impl_data12_M_swap_dataERS2_", scope: !138, file: !13, line: 117, type: !159, scopeLine: 117, flags: DIFlagPrototyped, spFlags: 0)
!159 = !DISubroutineType(types: !160)
!160 = !{null, !148, !161}
!161 = !DIDerivedType(tag: DW_TAG_reference_type, baseType: !138, size: 64)
!162 = !DISubprogram(name: "_Vector_impl", scope: !20, file: !13, line: 131, type: !163, scopeLine: 131, flags: DIFlagPrototyped, spFlags: 0)
!163 = !DISubroutineType(types: !164)
!164 = !{null, !165}
!165 = !DIDerivedType(tag: DW_TAG_pointer_type, baseType: !20, size: 64, flags: DIFlagArtificial | DIFlagObjectPointer)
!166 = !DISubprogram(name: "_Vector_impl", scope: !20, file: !13, line: 136, type: !167, scopeLine: 136, flags: DIFlagPrototyped, spFlags: 0)
!167 = !DISubroutineType(types: !168)
!168 = !{null, !165, !169}
!169 = !DIDerivedType(tag: DW_TAG_reference_type, baseType: !170, size: 64)
!170 = !DIDerivedType(tag: DW_TAG_const_type, baseType: !23)
!171 = !DISubprogram(name: "_Vector_impl", scope: !20, file: !13, line: 143, type: !172, scopeLine: 143, flags: DIFlagPrototyped, spFlags: 0)
!172 = !DISubroutineType(types: !173)
!173 = !{null, !165, !174}
!174 = !DIDerivedType(tag: DW_TAG_rvalue_reference_type, baseType: !20, size: 64)
!175 = !DISubprogram(name: "_Vector_impl", scope: !20, file: !13, line: 147, type: !176, scopeLine: 147, flags: DIFlagPrototyped, spFlags: 0)
!176 = !DISubroutineType(types: !177)
!177 = !{null, !165, !178}
!178 = !DIDerivedType(tag: DW_TAG_rvalue_reference_type, baseType: !23, size: 64)
!179 = !DISubprogram(name: "_Vector_impl", scope: !20, file: !13, line: 151, type: !180, scopeLine: 151, flags: DIFlagPrototyped, spFlags: 0)
!180 = !DISubroutineType(types: !181)
!181 = !{null, !165, !178, !174}
!182 = !DISubprogram(name: "_M_get_Tp_allocator", linkageName: "_ZNSt12_Vector_baseIiSaIiEE19_M_get_Tp_allocatorEv", scope: !17, file: !13, line: 276, type: !183, scopeLine: 276, flags: DIFlagPrototyped, spFlags: 0)
!183 = !DISubroutineType(types: !184)
!184 = !{!185, !186}
!185 = !DIDerivedType(tag: DW_TAG_reference_type, baseType: !23, size: 64)
!186 = !DIDerivedType(tag: DW_TAG_pointer_type, baseType: !17, size: 64, flags: DIFlagArtificial | DIFlagObjectPointer)
!187 = !DISubprogram(name: "_M_get_Tp_allocator", linkageName: "_ZNKSt12_Vector_baseIiSaIiEE19_M_get_Tp_allocatorEv", scope: !17, file: !13, line: 280, type: !188, scopeLine: 280, flags: DIFlagPrototyped, spFlags: 0)
!188 = !DISubroutineType(types: !189)
!189 = !{!169, !190}
!190 = !DIDerivedType(tag: DW_TAG_pointer_type, baseType: !191, size: 64, flags: DIFlagArtificial | DIFlagObjectPointer)
!191 = !DIDerivedType(tag: DW_TAG_const_type, baseType: !17)
!192 = !DISubprogram(name: "get_allocator", linkageName: "_ZNKSt12_Vector_baseIiSaIiEE13get_allocatorEv", scope: !17, file: !13, line: 284, type: !193, scopeLine: 284, flags: DIFlagPrototyped, spFlags: 0)
!193 = !DISubroutineType(types: !194)
!194 = !{!195, !190}
!195 = !DIDerivedType(tag: DW_TAG_typedef, name: "allocator_type", scope: !17, file: !13, line: 273, baseType: !40)
!196 = !DISubprogram(name: "_Vector_base", scope: !17, file: !13, line: 288, type: !197, scopeLine: 288, flags: DIFlagPrototyped, spFlags: 0)
!197 = !DISubroutineType(types: !198)
!198 = !{null, !186}
!199 = !DISubprogram(name: "_Vector_base", scope: !17, file: !13, line: 293, type: !200, scopeLine: 293, flags: DIFlagPrototyped, spFlags: 0)
!200 = !DISubroutineType(types: !201)
!201 = !{null, !186, !202}
!202 = !DIDerivedType(tag: DW_TAG_reference_type, baseType: !203, size: 64)
!203 = !DIDerivedType(tag: DW_TAG_const_type, baseType: !195)
!204 = !DISubprogram(name: "_Vector_base", scope: !17, file: !13, line: 298, type: !205, scopeLine: 298, flags: DIFlagPrototyped, spFlags: 0)
!205 = !DISubroutineType(types: !206)
!206 = !{null, !186, !8}
!207 = !DISubprogram(name: "_Vector_base", scope: !17, file: !13, line: 303, type: !208, scopeLine: 303, flags: DIFlagPrototyped, spFlags: 0)
!208 = !DISubroutineType(types: !209)
!209 = !{null, !186, !8, !202}
!210 = !DISubprogram(name: "_Vector_base", scope: !17, file: !13, line: 308, type: !211, scopeLine: 308, flags: DIFlagPrototyped, spFlags: 0)
!211 = !DISubroutineType(types: !212)
!212 = !{null, !186, !213}
!213 = !DIDerivedType(tag: DW_TAG_rvalue_reference_type, baseType: !17, size: 64)
!214 = !DISubprogram(name: "_Vector_base", scope: !17, file: !13, line: 312, type: !215, scopeLine: 312, flags: DIFlagPrototyped, spFlags: 0)
!215 = !DISubroutineType(types: !216)
!216 = !{null, !186, !178}
!217 = !DISubprogram(name: "_Vector_base", scope: !17, file: !13, line: 315, type: !218, scopeLine: 315, flags: DIFlagPrototyped, spFlags: 0)
!218 = !DISubroutineType(types: !219)
!219 = !{null, !186, !213, !202}
!220 = !DISubprogram(name: "_Vector_base", scope: !17, file: !13, line: 328, type: !221, scopeLine: 328, flags: DIFlagPrototyped, spFlags: 0)
!221 = !DISubroutineType(types: !222)
!222 = !{null, !186, !202, !213}
!223 = !DISubprogram(name: "~_Vector_base", scope: !17, file: !13, line: 333, type: !197, scopeLine: 333, flags: DIFlagPrototyped, spFlags: 0)
!224 = !DISubprogram(name: "_M_allocate", linkageName: "_ZNSt12_Vector_baseIiSaIiEE11_M_allocateEm", scope: !17, file: !13, line: 343, type: !225, scopeLine: 343, flags: DIFlagPrototyped, spFlags: 0)
!225 = !DISubroutineType(types: !226)
!226 = !{!141, !186, !8}
!227 = !DISubprogram(name: "_M_deallocate", linkageName: "_ZNSt12_Vector_baseIiSaIiEE13_M_deallocateEPim", scope: !17, file: !13, line: 350, type: !228, scopeLine: 350, flags: DIFlagPrototyped, spFlags: 0)
!228 = !DISubroutineType(types: !229)
!229 = !{null, !186, !141, !8}
!230 = !DISubprogram(name: "_M_create_storage", linkageName: "_ZNSt12_Vector_baseIiSaIiEE17_M_create_storageEm", scope: !17, file: !13, line: 359, type: !205, scopeLine: 359, flags: DIFlagProtected | DIFlagPrototyped, spFlags: 0)
!231 = !{!86, !119}
!232 = !DISubprogram(name: "_S_nothrow_relocate", linkageName: "_ZNSt6vectorIiSaIiEE19_S_nothrow_relocateESt17integral_constantIbLb1EE", scope: !14, file: !13, line: 431, type: !233, scopeLine: 431, flags: DIFlagPrototyped | DIFlagStaticMember, spFlags: 0)
!233 = !DISubroutineType(types: !234)
!234 = !{!129, !235}
!235 = !DIDerivedType(tag: DW_TAG_typedef, name: "true_type", scope: !10, file: !236, line: 75, baseType: !237)
!236 = !DIFile(filename: "/usr/bin/../lib/gcc/x86_64-linux-gnu/10/../../../../include/c++/10/type_traits", directory: "")
!237 = distinct !DICompositeType(tag: DW_TAG_structure_type, name: "integral_constant<bool, true>", scope: !10, file: !236, line: 57, size: 8, flags: DIFlagTypePassByValue, elements: !238, templateParams: !248, identifier: "_ZTSSt17integral_constantIbLb1EE")
!238 = !{!239, !241, !247}
!239 = !DIDerivedType(tag: DW_TAG_member, name: "value", scope: !237, file: !236, line: 59, baseType: !240, flags: DIFlagStaticMember, extraData: i1 true)
!240 = !DIDerivedType(tag: DW_TAG_const_type, baseType: !129)
!241 = !DISubprogram(name: "operator bool", linkageName: "_ZNKSt17integral_constantIbLb1EEcvbEv", scope: !237, file: !236, line: 62, type: !242, scopeLine: 62, flags: DIFlagPrototyped, spFlags: 0)
!242 = !DISubroutineType(types: !243)
!243 = !{!244, !245}
!244 = !DIDerivedType(tag: DW_TAG_typedef, name: "value_type", scope: !237, file: !236, line: 60, baseType: !129)
!245 = !DIDerivedType(tag: DW_TAG_pointer_type, baseType: !246, size: 64, flags: DIFlagArtificial | DIFlagObjectPointer)
!246 = !DIDerivedType(tag: DW_TAG_const_type, baseType: !237)
!247 = !DISubprogram(name: "operator()", linkageName: "_ZNKSt17integral_constantIbLb1EEclEv", scope: !237, file: !236, line: 67, type: !242, scopeLine: 67, flags: DIFlagPrototyped, spFlags: 0)
!248 = !{!249, !250}
!249 = !DITemplateTypeParameter(name: "_Tp", type: !129)
!250 = !DITemplateValueParameter(name: "__v", type: !129, value: i1 true)
!251 = !DISubprogram(name: "_S_nothrow_relocate", linkageName: "_ZNSt6vectorIiSaIiEE19_S_nothrow_relocateESt17integral_constantIbLb0EE", scope: !14, file: !13, line: 440, type: !252, scopeLine: 440, flags: DIFlagPrototyped | DIFlagStaticMember, spFlags: 0)
!252 = !DISubroutineType(types: !253)
!253 = !{!129, !254}
!254 = !DIDerivedType(tag: DW_TAG_typedef, name: "false_type", scope: !10, file: !236, line: 78, baseType: !255)
!255 = distinct !DICompositeType(tag: DW_TAG_structure_type, name: "integral_constant<bool, false>", scope: !10, file: !236, line: 57, size: 8, flags: DIFlagTypePassByValue, elements: !256, templateParams: !265, identifier: "_ZTSSt17integral_constantIbLb0EE")
!256 = !{!257, !258, !264}
!257 = !DIDerivedType(tag: DW_TAG_member, name: "value", scope: !255, file: !236, line: 59, baseType: !240, flags: DIFlagStaticMember, extraData: i1 false)
!258 = !DISubprogram(name: "operator bool", linkageName: "_ZNKSt17integral_constantIbLb0EEcvbEv", scope: !255, file: !236, line: 62, type: !259, scopeLine: 62, flags: DIFlagPrototyped, spFlags: 0)
!259 = !DISubroutineType(types: !260)
!260 = !{!261, !262}
!261 = !DIDerivedType(tag: DW_TAG_typedef, name: "value_type", scope: !255, file: !236, line: 60, baseType: !129)
!262 = !DIDerivedType(tag: DW_TAG_pointer_type, baseType: !263, size: 64, flags: DIFlagArtificial | DIFlagObjectPointer)
!263 = !DIDerivedType(tag: DW_TAG_const_type, baseType: !255)
!264 = !DISubprogram(name: "operator()", linkageName: "_ZNKSt17integral_constantIbLb0EEclEv", scope: !255, file: !236, line: 67, type: !259, scopeLine: 67, flags: DIFlagPrototyped, spFlags: 0)
!265 = !{!249, !266}
!266 = !DITemplateValueParameter(name: "__v", type: !129, value: i1 false)
!267 = !DISubprogram(name: "_S_use_relocate", linkageName: "_ZNSt6vectorIiSaIiEE15_S_use_relocateEv", scope: !14, file: !13, line: 444, type: !127, scopeLine: 444, flags: DIFlagPrototyped | DIFlagStaticMember, spFlags: 0)
!268 = !DISubprogram(name: "_S_do_relocate", linkageName: "_ZNSt6vectorIiSaIiEE14_S_do_relocateEPiS2_S2_RS0_St17integral_constantIbLb1EE", scope: !14, file: !13, line: 453, type: !269, scopeLine: 453, flags: DIFlagPrototyped | DIFlagStaticMember, spFlags: 0)
!269 = !DISubroutineType(types: !270)
!270 = !{!271, !271, !271, !271, !272, !235}
!271 = !DIDerivedType(tag: DW_TAG_typedef, name: "pointer", scope: !14, file: !13, line: 415, baseType: !141)
!272 = !DIDerivedType(tag: DW_TAG_reference_type, baseType: !12, size: 64)
!273 = !DISubprogram(name: "_S_do_relocate", linkageName: "_ZNSt6vectorIiSaIiEE14_S_do_relocateEPiS2_S2_RS0_St17integral_constantIbLb0EE", scope: !14, file: !13, line: 460, type: !274, scopeLine: 460, flags: DIFlagPrototyped | DIFlagStaticMember, spFlags: 0)
!274 = !DISubroutineType(types: !275)
!275 = !{!271, !271, !271, !271, !272, !254}
!276 = !DISubprogram(name: "_S_relocate", linkageName: "_ZNSt6vectorIiSaIiEE11_S_relocateEPiS2_S2_RS0_", scope: !14, file: !13, line: 465, type: !277, scopeLine: 465, flags: DIFlagPrototyped | DIFlagStaticMember, spFlags: 0)
!277 = !DISubroutineType(types: !278)
!278 = !{!271, !271, !271, !271, !272}
!279 = !DISubprogram(name: "vector", scope: !14, file: !13, line: 487, type: !280, scopeLine: 487, flags: DIFlagPublic | DIFlagPrototyped, spFlags: 0)
!280 = !DISubroutineType(types: !281)
!281 = !{null, !282}
!282 = !DIDerivedType(tag: DW_TAG_pointer_type, baseType: !14, size: 64, flags: DIFlagArtificial | DIFlagObjectPointer)
!283 = !DISubprogram(name: "vector", scope: !14, file: !13, line: 497, type: !284, scopeLine: 497, flags: DIFlagPublic | DIFlagExplicit | DIFlagPrototyped, spFlags: 0)
!284 = !DISubroutineType(types: !285)
!285 = !{null, !282, !286}
!286 = !DIDerivedType(tag: DW_TAG_reference_type, baseType: !287, size: 64)
!287 = !DIDerivedType(tag: DW_TAG_const_type, baseType: !288)
!288 = !DIDerivedType(tag: DW_TAG_typedef, name: "allocator_type", scope: !14, file: !13, line: 426, baseType: !40)
!289 = !DISubprogram(name: "vector", scope: !14, file: !13, line: 510, type: !290, scopeLine: 510, flags: DIFlagPublic | DIFlagExplicit | DIFlagPrototyped, spFlags: 0)
!290 = !DISubroutineType(types: !291)
!291 = !{null, !282, !292, !286}
!292 = !DIDerivedType(tag: DW_TAG_typedef, name: "size_type", file: !13, line: 424, baseType: !8)
!293 = !DISubprogram(name: "vector", scope: !14, file: !13, line: 522, type: !294, scopeLine: 522, flags: DIFlagPublic | DIFlagPrototyped, spFlags: 0)
!294 = !DISubroutineType(types: !295)
!295 = !{null, !282, !292, !296, !286}
!296 = !DIDerivedType(tag: DW_TAG_reference_type, baseType: !297, size: 64)
!297 = !DIDerivedType(tag: DW_TAG_const_type, baseType: !298)
!298 = !DIDerivedType(tag: DW_TAG_typedef, name: "value_type", scope: !14, file: !13, line: 414, baseType: !5)
!299 = !DISubprogram(name: "vector", scope: !14, file: !13, line: 553, type: !300, scopeLine: 553, flags: DIFlagPublic | DIFlagPrototyped, spFlags: 0)
!300 = !DISubroutineType(types: !301)
!301 = !{null, !282, !302}
!302 = !DIDerivedType(tag: DW_TAG_reference_type, baseType: !303, size: 64)
!303 = !DIDerivedType(tag: DW_TAG_const_type, baseType: !14)
!304 = !DISubprogram(name: "vector", scope: !14, file: !13, line: 572, type: !305, scopeLine: 572, flags: DIFlagPublic | DIFlagPrototyped, spFlags: 0)
!305 = !DISubroutineType(types: !306)
!306 = !{null, !282, !307}
!307 = !DIDerivedType(tag: DW_TAG_rvalue_reference_type, baseType: !14, size: 64)
!308 = !DISubprogram(name: "vector", scope: !14, file: !13, line: 575, type: !309, scopeLine: 575, flags: DIFlagPublic | DIFlagPrototyped, spFlags: 0)
!309 = !DISubroutineType(types: !310)
!310 = !{null, !282, !302, !286}
!311 = !DISubprogram(name: "vector", scope: !14, file: !13, line: 585, type: !312, scopeLine: 585, flags: DIFlagPrototyped, spFlags: 0)
!312 = !DISubroutineType(types: !313)
!313 = !{null, !282, !307, !286, !235}
!314 = !DISubprogram(name: "vector", scope: !14, file: !13, line: 589, type: !315, scopeLine: 589, flags: DIFlagPrototyped, spFlags: 0)
!315 = !DISubroutineType(types: !316)
!316 = !{null, !282, !307, !286, !254}
!317 = !DISubprogram(name: "vector", scope: !14, file: !13, line: 607, type: !318, scopeLine: 607, flags: DIFlagPublic | DIFlagPrototyped, spFlags: 0)
!318 = !DISubroutineType(types: !319)
!319 = !{null, !282, !307, !286}
!320 = !DISubprogram(name: "vector", scope: !14, file: !13, line: 625, type: !321, scopeLine: 625, flags: DIFlagPublic | DIFlagPrototyped, spFlags: 0)
!321 = !DISubroutineType(types: !322)
!322 = !{null, !282, !323, !286}
!323 = distinct !DICompositeType(tag: DW_TAG_class_type, name: "initializer_list<int>", scope: !10, file: !324, line: 47, size: 128, flags: DIFlagTypePassByValue | DIFlagNonTrivial, elements: !325, templateParams: !347, identifier: "_ZTSSt16initializer_listIiE")
!324 = !DIFile(filename: "/usr/bin/../lib/gcc/x86_64-linux-gnu/10/../../../../include/c++/10/initializer_list", directory: "")
!325 = !{!326, !328, !330, !335, !338, !343, !346}
!326 = !DIDerivedType(tag: DW_TAG_member, name: "_M_array", scope: !323, file: !324, line: 58, baseType: !327, size: 64)
!327 = !DIDerivedType(tag: DW_TAG_typedef, name: "iterator", scope: !323, file: !324, line: 54, baseType: !70)
!328 = !DIDerivedType(tag: DW_TAG_member, name: "_M_len", scope: !323, file: !324, line: 59, baseType: !329, size: 64, offset: 64)
!329 = !DIDerivedType(tag: DW_TAG_typedef, name: "size_type", file: !324, line: 53, baseType: !8)
!330 = !DISubprogram(name: "initializer_list", scope: !323, file: !324, line: 62, type: !331, scopeLine: 62, flags: DIFlagPrototyped, spFlags: 0)
!331 = !DISubroutineType(types: !332)
!332 = !{null, !333, !334, !329}
!333 = !DIDerivedType(tag: DW_TAG_pointer_type, baseType: !323, size: 64, flags: DIFlagArtificial | DIFlagObjectPointer)
!334 = !DIDerivedType(tag: DW_TAG_typedef, name: "const_iterator", scope: !323, file: !324, line: 55, baseType: !70)
!335 = !DISubprogram(name: "initializer_list", scope: !323, file: !324, line: 66, type: !336, scopeLine: 66, flags: DIFlagPublic | DIFlagPrototyped, spFlags: 0)
!336 = !DISubroutineType(types: !337)
!337 = !{null, !333}
!338 = !DISubprogram(name: "size", linkageName: "_ZNKSt16initializer_listIiE4sizeEv", scope: !323, file: !324, line: 71, type: !339, scopeLine: 71, flags: DIFlagPublic | DIFlagPrototyped, spFlags: 0)
!339 = !DISubroutineType(types: !340)
!340 = !{!329, !341}
!341 = !DIDerivedType(tag: DW_TAG_pointer_type, baseType: !342, size: 64, flags: DIFlagArtificial | DIFlagObjectPointer)
!342 = !DIDerivedType(tag: DW_TAG_const_type, baseType: !323)
!343 = !DISubprogram(name: "begin", linkageName: "_ZNKSt16initializer_listIiE5beginEv", scope: !323, file: !324, line: 75, type: !344, scopeLine: 75, flags: DIFlagPublic | DIFlagPrototyped, spFlags: 0)
!344 = !DISubroutineType(types: !345)
!345 = !{!334, !341}
!346 = !DISubprogram(name: "end", linkageName: "_ZNKSt16initializer_listIiE3endEv", scope: !323, file: !324, line: 79, type: !344, scopeLine: 79, flags: DIFlagPublic | DIFlagPrototyped, spFlags: 0)
!347 = !{!348}
!348 = !DITemplateTypeParameter(name: "_E", type: !5)
!349 = !DISubprogram(name: "~vector", scope: !14, file: !13, line: 678, type: !280, scopeLine: 678, flags: DIFlagPublic | DIFlagPrototyped, spFlags: 0)
!350 = !DISubprogram(name: "operator=", linkageName: "_ZNSt6vectorIiSaIiEEaSERKS1_", scope: !14, file: !13, line: 695, type: !351, scopeLine: 695, flags: DIFlagPublic | DIFlagPrototyped, spFlags: 0)
!351 = !DISubroutineType(types: !352)
!352 = !{!353, !282, !302}
!353 = !DIDerivedType(tag: DW_TAG_reference_type, baseType: !14, size: 64)
!354 = !DISubprogram(name: "operator=", linkageName: "_ZNSt6vectorIiSaIiEEaSEOS1_", scope: !14, file: !13, line: 709, type: !355, scopeLine: 709, flags: DIFlagPublic | DIFlagPrototyped, spFlags: 0)
!355 = !DISubroutineType(types: !356)
!356 = !{!353, !282, !307}
!357 = !DISubprogram(name: "operator=", linkageName: "_ZNSt6vectorIiSaIiEEaSESt16initializer_listIiE", scope: !14, file: !13, line: 730, type: !358, scopeLine: 730, flags: DIFlagPublic | DIFlagPrototyped, spFlags: 0)
!358 = !DISubroutineType(types: !359)
!359 = !{!353, !282, !323}
!360 = !DISubprogram(name: "assign", linkageName: "_ZNSt6vectorIiSaIiEE6assignEmRKi", scope: !14, file: !13, line: 749, type: !361, scopeLine: 749, flags: DIFlagPublic | DIFlagPrototyped, spFlags: 0)
!361 = !DISubroutineType(types: !362)
!362 = !{null, !282, !292, !296}
!363 = !DISubprogram(name: "assign", linkageName: "_ZNSt6vectorIiSaIiEE6assignESt16initializer_listIiE", scope: !14, file: !13, line: 794, type: !364, scopeLine: 794, flags: DIFlagPublic | DIFlagPrototyped, spFlags: 0)
!364 = !DISubroutineType(types: !365)
!365 = !{null, !282, !323}
!366 = !DISubprogram(name: "begin", linkageName: "_ZNSt6vectorIiSaIiEE5beginEv", scope: !14, file: !13, line: 811, type: !367, scopeLine: 811, flags: DIFlagPublic | DIFlagPrototyped, spFlags: 0)
!367 = !DISubroutineType(types: !368)
!368 = !{!369, !282}
!369 = !DIDerivedType(tag: DW_TAG_typedef, name: "iterator", scope: !14, file: !13, line: 419, baseType: !370)
!370 = !DICompositeType(tag: DW_TAG_class_type, name: "__normal_iterator<int *, std::vector<int, std::allocator<int> > >", scope: !28, file: !371, line: 930, flags: DIFlagFwdDecl, identifier: "_ZTSN9__gnu_cxx17__normal_iteratorIPiSt6vectorIiSaIiEEEE")
!371 = !DIFile(filename: "/usr/bin/../lib/gcc/x86_64-linux-gnu/10/../../../../include/c++/10/bits/stl_iterator.h", directory: "")
!372 = !DISubprogram(name: "begin", linkageName: "_ZNKSt6vectorIiSaIiEE5beginEv", scope: !14, file: !13, line: 820, type: !373, scopeLine: 820, flags: DIFlagPublic | DIFlagPrototyped, spFlags: 0)
!373 = !DISubroutineType(types: !374)
!374 = !{!375, !377}
!375 = !DIDerivedType(tag: DW_TAG_typedef, name: "const_iterator", scope: !14, file: !13, line: 421, baseType: !376)
!376 = !DICompositeType(tag: DW_TAG_class_type, name: "__normal_iterator<const int *, std::vector<int, std::allocator<int> > >", scope: !28, file: !371, line: 930, flags: DIFlagFwdDecl, identifier: "_ZTSN9__gnu_cxx17__normal_iteratorIPKiSt6vectorIiSaIiEEEE")
!377 = !DIDerivedType(tag: DW_TAG_pointer_type, baseType: !303, size: 64, flags: DIFlagArtificial | DIFlagObjectPointer)
!378 = !DISubprogram(name: "end", linkageName: "_ZNSt6vectorIiSaIiEE3endEv", scope: !14, file: !13, line: 829, type: !367, scopeLine: 829, flags: DIFlagPublic | DIFlagPrototyped, spFlags: 0)
!379 = !DISubprogram(name: "end", linkageName: "_ZNKSt6vectorIiSaIiEE3endEv", scope: !14, file: !13, line: 838, type: !373, scopeLine: 838, flags: DIFlagPublic | DIFlagPrototyped, spFlags: 0)
!380 = !DISubprogram(name: "rbegin", linkageName: "_ZNSt6vectorIiSaIiEE6rbeginEv", scope: !14, file: !13, line: 847, type: !381, scopeLine: 847, flags: DIFlagPublic | DIFlagPrototyped, spFlags: 0)
!381 = !DISubroutineType(types: !382)
!382 = !{!383, !282}
!383 = !DIDerivedType(tag: DW_TAG_typedef, name: "reverse_iterator", scope: !14, file: !13, line: 423, baseType: !384)
!384 = !DICompositeType(tag: DW_TAG_class_type, name: "reverse_iterator<__gnu_cxx::__normal_iterator<int *, std::vector<int, std::allocator<int> > > >", scope: !10, file: !371, line: 125, flags: DIFlagFwdDecl, identifier: "_ZTSSt16reverse_iteratorIN9__gnu_cxx17__normal_iteratorIPiSt6vectorIiSaIiEEEEE")
!385 = !DISubprogram(name: "rbegin", linkageName: "_ZNKSt6vectorIiSaIiEE6rbeginEv", scope: !14, file: !13, line: 856, type: !386, scopeLine: 856, flags: DIFlagPublic | DIFlagPrototyped, spFlags: 0)
!386 = !DISubroutineType(types: !387)
!387 = !{!388, !377}
!388 = !DIDerivedType(tag: DW_TAG_typedef, name: "const_reverse_iterator", scope: !14, file: !13, line: 422, baseType: !389)
!389 = !DICompositeType(tag: DW_TAG_class_type, name: "reverse_iterator<__gnu_cxx::__normal_iterator<const int *, std::vector<int, std::allocator<int> > > >", scope: !10, file: !371, line: 125, flags: DIFlagFwdDecl, identifier: "_ZTSSt16reverse_iteratorIN9__gnu_cxx17__normal_iteratorIPKiSt6vectorIiSaIiEEEEE")
!390 = !DISubprogram(name: "rend", linkageName: "_ZNSt6vectorIiSaIiEE4rendEv", scope: !14, file: !13, line: 865, type: !381, scopeLine: 865, flags: DIFlagPublic | DIFlagPrototyped, spFlags: 0)
!391 = !DISubprogram(name: "rend", linkageName: "_ZNKSt6vectorIiSaIiEE4rendEv", scope: !14, file: !13, line: 874, type: !386, scopeLine: 874, flags: DIFlagPublic | DIFlagPrototyped, spFlags: 0)
!392 = !DISubprogram(name: "cbegin", linkageName: "_ZNKSt6vectorIiSaIiEE6cbeginEv", scope: !14, file: !13, line: 884, type: !373, scopeLine: 884, flags: DIFlagPublic | DIFlagPrototyped, spFlags: 0)
!393 = !DISubprogram(name: "cend", linkageName: "_ZNKSt6vectorIiSaIiEE4cendEv", scope: !14, file: !13, line: 893, type: !373, scopeLine: 893, flags: DIFlagPublic | DIFlagPrototyped, spFlags: 0)
!394 = !DISubprogram(name: "crbegin", linkageName: "_ZNKSt6vectorIiSaIiEE7crbeginEv", scope: !14, file: !13, line: 902, type: !386, scopeLine: 902, flags: DIFlagPublic | DIFlagPrototyped, spFlags: 0)
!395 = !DISubprogram(name: "crend", linkageName: "_ZNKSt6vectorIiSaIiEE5crendEv", scope: !14, file: !13, line: 911, type: !386, scopeLine: 911, flags: DIFlagPublic | DIFlagPrototyped, spFlags: 0)
!396 = !DISubprogram(name: "size", linkageName: "_ZNKSt6vectorIiSaIiEE4sizeEv", scope: !14, file: !13, line: 918, type: !397, scopeLine: 918, flags: DIFlagPublic | DIFlagPrototyped, spFlags: 0)
!397 = !DISubroutineType(types: !398)
!398 = !{!292, !377}
!399 = !DISubprogram(name: "max_size", linkageName: "_ZNKSt6vectorIiSaIiEE8max_sizeEv", scope: !14, file: !13, line: 923, type: !397, scopeLine: 923, flags: DIFlagPublic | DIFlagPrototyped, spFlags: 0)
!400 = !DISubprogram(name: "resize", linkageName: "_ZNSt6vectorIiSaIiEE6resizeEm", scope: !14, file: !13, line: 937, type: !401, scopeLine: 937, flags: DIFlagPublic | DIFlagPrototyped, spFlags: 0)
!401 = !DISubroutineType(types: !402)
!402 = !{null, !282, !292}
!403 = !DISubprogram(name: "resize", linkageName: "_ZNSt6vectorIiSaIiEE6resizeEmRKi", scope: !14, file: !13, line: 957, type: !361, scopeLine: 957, flags: DIFlagPublic | DIFlagPrototyped, spFlags: 0)
!404 = !DISubprogram(name: "shrink_to_fit", linkageName: "_ZNSt6vectorIiSaIiEE13shrink_to_fitEv", scope: !14, file: !13, line: 989, type: !280, scopeLine: 989, flags: DIFlagPublic | DIFlagPrototyped, spFlags: 0)
!405 = !DISubprogram(name: "capacity", linkageName: "_ZNKSt6vectorIiSaIiEE8capacityEv", scope: !14, file: !13, line: 998, type: !397, scopeLine: 998, flags: DIFlagPublic | DIFlagPrototyped, spFlags: 0)
!406 = !DISubprogram(name: "empty", linkageName: "_ZNKSt6vectorIiSaIiEE5emptyEv", scope: !14, file: !13, line: 1007, type: !407, scopeLine: 1007, flags: DIFlagPublic | DIFlagPrototyped, spFlags: 0)
!407 = !DISubroutineType(types: !408)
!408 = !{!129, !377}
!409 = !DISubprogram(name: "reserve", linkageName: "_ZNSt6vectorIiSaIiEE7reserveEm", scope: !14, file: !13, line: 1028, type: !401, scopeLine: 1028, flags: DIFlagPublic | DIFlagPrototyped, spFlags: 0)
!410 = !DISubprogram(name: "operator[]", linkageName: "_ZNSt6vectorIiSaIiEEixEm", scope: !14, file: !13, line: 1043, type: !411, scopeLine: 1043, flags: DIFlagPublic | DIFlagPrototyped, spFlags: 0)
!411 = !DISubroutineType(types: !412)
!412 = !{!413, !282, !292}
!413 = !DIDerivedType(tag: DW_TAG_typedef, name: "reference", scope: !14, file: !13, line: 417, baseType: !414)
!414 = !DIDerivedType(tag: DW_TAG_typedef, name: "reference", scope: !27, file: !25, line: 62, baseType: !415)
!415 = !DIDerivedType(tag: DW_TAG_reference_type, baseType: !416, size: 64)
!416 = !DIDerivedType(tag: DW_TAG_typedef, name: "value_type", scope: !27, file: !25, line: 56, baseType: !417)
!417 = !DIDerivedType(tag: DW_TAG_typedef, name: "value_type", scope: !31, file: !32, line: 413, baseType: !5)
!418 = !DISubprogram(name: "operator[]", linkageName: "_ZNKSt6vectorIiSaIiEEixEm", scope: !14, file: !13, line: 1061, type: !419, scopeLine: 1061, flags: DIFlagPublic | DIFlagPrototyped, spFlags: 0)
!419 = !DISubroutineType(types: !420)
!420 = !{!421, !377, !292}
!421 = !DIDerivedType(tag: DW_TAG_typedef, name: "const_reference", scope: !14, file: !13, line: 418, baseType: !422)
!422 = !DIDerivedType(tag: DW_TAG_typedef, name: "const_reference", scope: !27, file: !25, line: 63, baseType: !423)
!423 = !DIDerivedType(tag: DW_TAG_reference_type, baseType: !424, size: 64)
!424 = !DIDerivedType(tag: DW_TAG_const_type, baseType: !416)
!425 = !DISubprogram(name: "_M_range_check", linkageName: "_ZNKSt6vectorIiSaIiEE14_M_range_checkEm", scope: !14, file: !13, line: 1070, type: !426, scopeLine: 1070, flags: DIFlagProtected | DIFlagPrototyped, spFlags: 0)
!426 = !DISubroutineType(types: !427)
!427 = !{null, !377, !292}
!428 = !DISubprogram(name: "at", linkageName: "_ZNSt6vectorIiSaIiEE2atEm", scope: !14, file: !13, line: 1092, type: !411, scopeLine: 1092, flags: DIFlagPublic | DIFlagPrototyped, spFlags: 0)
!429 = !DISubprogram(name: "at", linkageName: "_ZNKSt6vectorIiSaIiEE2atEm", scope: !14, file: !13, line: 1110, type: !419, scopeLine: 1110, flags: DIFlagPublic | DIFlagPrototyped, spFlags: 0)
!430 = !DISubprogram(name: "front", linkageName: "_ZNSt6vectorIiSaIiEE5frontEv", scope: !14, file: !13, line: 1121, type: !431, scopeLine: 1121, flags: DIFlagPublic | DIFlagPrototyped, spFlags: 0)
!431 = !DISubroutineType(types: !432)
!432 = !{!413, !282}
!433 = !DISubprogram(name: "front", linkageName: "_ZNKSt6vectorIiSaIiEE5frontEv", scope: !14, file: !13, line: 1132, type: !434, scopeLine: 1132, flags: DIFlagPublic | DIFlagPrototyped, spFlags: 0)
!434 = !DISubroutineType(types: !435)
!435 = !{!421, !377}
!436 = !DISubprogram(name: "back", linkageName: "_ZNSt6vectorIiSaIiEE4backEv", scope: !14, file: !13, line: 1143, type: !431, scopeLine: 1143, flags: DIFlagPublic | DIFlagPrototyped, spFlags: 0)
!437 = !DISubprogram(name: "back", linkageName: "_ZNKSt6vectorIiSaIiEE4backEv", scope: !14, file: !13, line: 1154, type: !434, scopeLine: 1154, flags: DIFlagPublic | DIFlagPrototyped, spFlags: 0)
!438 = !DISubprogram(name: "data", linkageName: "_ZNSt6vectorIiSaIiEE4dataEv", scope: !14, file: !13, line: 1168, type: !439, scopeLine: 1168, flags: DIFlagPublic | DIFlagPrototyped, spFlags: 0)
!439 = !DISubroutineType(types: !440)
!440 = !{!4, !282}
!441 = !DISubprogram(name: "data", linkageName: "_ZNKSt6vectorIiSaIiEE4dataEv", scope: !14, file: !13, line: 1172, type: !442, scopeLine: 1172, flags: DIFlagPublic | DIFlagPrototyped, spFlags: 0)
!442 = !DISubroutineType(types: !443)
!443 = !{!70, !377}
!444 = !DISubprogram(name: "push_back", linkageName: "_ZNSt6vectorIiSaIiEE9push_backERKi", scope: !14, file: !13, line: 1187, type: !445, scopeLine: 1187, flags: DIFlagPublic | DIFlagPrototyped, spFlags: 0)
!445 = !DISubroutineType(types: !446)
!446 = !{null, !282, !296}
!447 = !DISubprogram(name: "push_back", linkageName: "_ZNSt6vectorIiSaIiEE9push_backEOi", scope: !14, file: !13, line: 1203, type: !448, scopeLine: 1203, flags: DIFlagPublic | DIFlagPrototyped, spFlags: 0)
!448 = !DISubroutineType(types: !449)
!449 = !{null, !282, !450}
!450 = !DIDerivedType(tag: DW_TAG_rvalue_reference_type, baseType: !298, size: 64)
!451 = !DISubprogram(name: "pop_back", linkageName: "_ZNSt6vectorIiSaIiEE8pop_backEv", scope: !14, file: !13, line: 1225, type: !280, scopeLine: 1225, flags: DIFlagPublic | DIFlagPrototyped, spFlags: 0)
!452 = !DISubprogram(name: "insert", linkageName: "_ZNSt6vectorIiSaIiEE6insertEN9__gnu_cxx17__normal_iteratorIPKiS1_EERS4_", scope: !14, file: !13, line: 1263, type: !453, scopeLine: 1263, flags: DIFlagPublic | DIFlagPrototyped, spFlags: 0)
!453 = !DISubroutineType(types: !454)
!454 = !{!369, !282, !375, !296}
!455 = !DISubprogram(name: "insert", linkageName: "_ZNSt6vectorIiSaIiEE6insertEN9__gnu_cxx17__normal_iteratorIPKiS1_EEOi", scope: !14, file: !13, line: 1293, type: !456, scopeLine: 1293, flags: DIFlagPublic | DIFlagPrototyped, spFlags: 0)
!456 = !DISubroutineType(types: !457)
!457 = !{!369, !282, !375, !450}
!458 = !DISubprogram(name: "insert", linkageName: "_ZNSt6vectorIiSaIiEE6insertEN9__gnu_cxx17__normal_iteratorIPKiS1_EESt16initializer_listIiE", scope: !14, file: !13, line: 1310, type: !459, scopeLine: 1310, flags: DIFlagPublic | DIFlagPrototyped, spFlags: 0)
!459 = !DISubroutineType(types: !460)
!460 = !{!369, !282, !375, !323}
!461 = !DISubprogram(name: "insert", linkageName: "_ZNSt6vectorIiSaIiEE6insertEN9__gnu_cxx17__normal_iteratorIPKiS1_EEmRS4_", scope: !14, file: !13, line: 1335, type: !462, scopeLine: 1335, flags: DIFlagPublic | DIFlagPrototyped, spFlags: 0)
!462 = !DISubroutineType(types: !463)
!463 = !{!369, !282, !375, !292, !296}
!464 = !DISubprogram(name: "erase", linkageName: "_ZNSt6vectorIiSaIiEE5eraseEN9__gnu_cxx17__normal_iteratorIPKiS1_EE", scope: !14, file: !13, line: 1430, type: !465, scopeLine: 1430, flags: DIFlagPublic | DIFlagPrototyped, spFlags: 0)
!465 = !DISubroutineType(types: !466)
!466 = !{!369, !282, !375}
!467 = !DISubprogram(name: "erase", linkageName: "_ZNSt6vectorIiSaIiEE5eraseEN9__gnu_cxx17__normal_iteratorIPKiS1_EES6_", scope: !14, file: !13, line: 1457, type: !468, scopeLine: 1457, flags: DIFlagPublic | DIFlagPrototyped, spFlags: 0)
!468 = !DISubroutineType(types: !469)
!469 = !{!369, !282, !375, !375}
!470 = !DISubprogram(name: "swap", linkageName: "_ZNSt6vectorIiSaIiEE4swapERS1_", scope: !14, file: !13, line: 1480, type: !471, scopeLine: 1480, flags: DIFlagPublic | DIFlagPrototyped, spFlags: 0)
!471 = !DISubroutineType(types: !472)
!472 = !{null, !282, !353}
!473 = !DISubprogram(name: "clear", linkageName: "_ZNSt6vectorIiSaIiEE5clearEv", scope: !14, file: !13, line: 1498, type: !280, scopeLine: 1498, flags: DIFlagPublic | DIFlagPrototyped, spFlags: 0)
!474 = !DISubprogram(name: "_M_fill_initialize", linkageName: "_ZNSt6vectorIiSaIiEE18_M_fill_initializeEmRKi", scope: !14, file: !13, line: 1593, type: !361, scopeLine: 1593, flags: DIFlagProtected | DIFlagPrototyped, spFlags: 0)
!475 = !DISubprogram(name: "_M_default_initialize", linkageName: "_ZNSt6vectorIiSaIiEE21_M_default_initializeEm", scope: !14, file: !13, line: 1603, type: !401, scopeLine: 1603, flags: DIFlagProtected | DIFlagPrototyped, spFlags: 0)
!476 = !DISubprogram(name: "_M_fill_assign", linkageName: "_ZNSt6vectorIiSaIiEE14_M_fill_assignEmRKi", scope: !14, file: !13, line: 1645, type: !361, scopeLine: 1645, flags: DIFlagProtected | DIFlagPrototyped, spFlags: 0)
!477 = !DISubprogram(name: "_M_fill_insert", linkageName: "_ZNSt6vectorIiSaIiEE14_M_fill_insertEN9__gnu_cxx17__normal_iteratorIPiS1_EEmRKi", scope: !14, file: !13, line: 1684, type: !478, scopeLine: 1684, flags: DIFlagProtected | DIFlagPrototyped, spFlags: 0)
!478 = !DISubroutineType(types: !479)
!479 = !{null, !282, !369, !292, !296}
!480 = !DISubprogram(name: "_M_default_append", linkageName: "_ZNSt6vectorIiSaIiEE17_M_default_appendEm", scope: !14, file: !13, line: 1689, type: !401, scopeLine: 1689, flags: DIFlagProtected | DIFlagPrototyped, spFlags: 0)
!481 = !DISubprogram(name: "_M_shrink_to_fit", linkageName: "_ZNSt6vectorIiSaIiEE16_M_shrink_to_fitEv", scope: !14, file: !13, line: 1692, type: !482, scopeLine: 1692, flags: DIFlagProtected | DIFlagPrototyped, spFlags: 0)
!482 = !DISubroutineType(types: !483)
!483 = !{!129, !282}
!484 = !DISubprogram(name: "_M_insert_rval", linkageName: "_ZNSt6vectorIiSaIiEE14_M_insert_rvalEN9__gnu_cxx17__normal_iteratorIPKiS1_EEOi", scope: !14, file: !13, line: 1741, type: !456, scopeLine: 1741, flags: DIFlagProtected | DIFlagPrototyped, spFlags: 0)
!485 = !DISubprogram(name: "_M_emplace_aux", linkageName: "_ZNSt6vectorIiSaIiEE14_M_emplace_auxEN9__gnu_cxx17__normal_iteratorIPKiS1_EEOi", scope: !14, file: !13, line: 1750, type: !456, scopeLine: 1750, flags: DIFlagProtected | DIFlagPrototyped, spFlags: 0)
!486 = !DISubprogram(name: "_M_check_len", linkageName: "_ZNKSt6vectorIiSaIiEE12_M_check_lenEmPKc", scope: !14, file: !13, line: 1756, type: !487, scopeLine: 1756, flags: DIFlagProtected | DIFlagPrototyped, spFlags: 0)
!487 = !DISubroutineType(types: !488)
!488 = !{!489, !377, !292, !490}
!489 = !DIDerivedType(tag: DW_TAG_typedef, name: "size_type", scope: !14, file: !13, line: 424, baseType: !8)
!490 = !DIDerivedType(tag: DW_TAG_pointer_type, baseType: !491, size: 64)
!491 = !DIDerivedType(tag: DW_TAG_const_type, baseType: !492)
!492 = !DIBasicType(name: "char", size: 8, encoding: DW_ATE_signed_char)
!493 = !DISubprogram(name: "_S_check_init_len", linkageName: "_ZNSt6vectorIiSaIiEE17_S_check_init_lenEmRKS0_", scope: !14, file: !13, line: 1767, type: !494, scopeLine: 1767, flags: DIFlagProtected | DIFlagPrototyped | DIFlagStaticMember, spFlags: 0)
!494 = !DISubroutineType(types: !495)
!495 = !{!489, !292, !286}
!496 = !DISubprogram(name: "_S_max_size", linkageName: "_ZNSt6vectorIiSaIiEE11_S_max_sizeERKS0_", scope: !14, file: !13, line: 1776, type: !497, scopeLine: 1776, flags: DIFlagProtected | DIFlagPrototyped | DIFlagStaticMember, spFlags: 0)
!497 = !DISubroutineType(types: !498)
!498 = !{!489, !499}
!499 = !DIDerivedType(tag: DW_TAG_reference_type, baseType: !500, size: 64)
!500 = !DIDerivedType(tag: DW_TAG_const_type, baseType: !12)
!501 = !DISubprogram(name: "_M_erase_at_end", linkageName: "_ZNSt6vectorIiSaIiEE15_M_erase_at_endEPi", scope: !14, file: !13, line: 1792, type: !502, scopeLine: 1792, flags: DIFlagProtected | DIFlagPrototyped, spFlags: 0)
!502 = !DISubroutineType(types: !503)
!503 = !{null, !282, !271}
!504 = !DISubprogram(name: "_M_erase", linkageName: "_ZNSt6vectorIiSaIiEE8_M_eraseEN9__gnu_cxx17__normal_iteratorIPiS1_EE", scope: !14, file: !13, line: 1804, type: !505, scopeLine: 1804, flags: DIFlagProtected | DIFlagPrototyped, spFlags: 0)
!505 = !DISubroutineType(types: !506)
!506 = !{!369, !282, !369}
!507 = !DISubprogram(name: "_M_erase", linkageName: "_ZNSt6vectorIiSaIiEE8_M_eraseEN9__gnu_cxx17__normal_iteratorIPiS1_EES5_", scope: !14, file: !13, line: 1807, type: !508, scopeLine: 1807, flags: DIFlagProtected | DIFlagPrototyped, spFlags: 0)
!508 = !DISubroutineType(types: !509)
!509 = !{!369, !282, !369, !369}
!510 = !DISubprogram(name: "_M_move_assign", linkageName: "_ZNSt6vectorIiSaIiEE14_M_move_assignEOS1_St17integral_constantIbLb1EE", scope: !14, file: !13, line: 1815, type: !511, scopeLine: 1815, flags: DIFlagPrototyped, spFlags: 0)
!511 = !DISubroutineType(types: !512)
!512 = !{null, !282, !307, !235}
!513 = !DISubprogram(name: "_M_move_assign", linkageName: "_ZNSt6vectorIiSaIiEE14_M_move_assignEOS1_St17integral_constantIbLb0EE", scope: !14, file: !13, line: 1826, type: !514, scopeLine: 1826, flags: DIFlagPrototyped, spFlags: 0)
!514 = !DISubroutineType(types: !515)
!515 = !{null, !282, !307, !254}
!516 = !{!517, !521, !576, !580, !586, !590, !597, !601, !607, !612, !614, !619, !623, !627, !635, !637, !641, !645, !649, !654, !658, !662, !666, !670, !678, !682, !686, !688, !692, !696, !701, !707, !711, !715, !717, !725, !729, !736, !738, !742, !746, !750, !754, !759, !764, !769, !770, !771, !772, !774, !775, !776, !777, !778, !779}
!517 = !DIImportedEntity(tag: DW_TAG_imported_module, scope: !518, entity: !519, file: !520, line: 58)
!518 = !DINamespace(name: "__gnu_debug", scope: null)
!519 = !DINamespace(name: "__debug", scope: !10)
!520 = !DIFile(filename: "/usr/bin/../lib/gcc/x86_64-linux-gnu/10/../../../../include/c++/10/debug/debug.h", directory: "")
!521 = !DIImportedEntity(tag: DW_TAG_imported_declaration, scope: !10, entity: !522, file: !523, line: 58)
!522 = distinct !DICompositeType(tag: DW_TAG_class_type, name: "exception_ptr", scope: !524, file: !523, line: 80, size: 64, flags: DIFlagTypePassByReference | DIFlagNonTrivial, elements: !525, identifier: "_ZTSNSt15__exception_ptr13exception_ptrE")
!523 = !DIFile(filename: "/usr/bin/../lib/gcc/x86_64-linux-gnu/10/../../../../include/c++/10/bits/exception_ptr.h", directory: "")
!524 = !DINamespace(name: "__exception_ptr", scope: !10)
!525 = !{!526, !528, !532, !535, !536, !541, !542, !546, !551, !555, !559, !562, !563, !566, !569}
!526 = !DIDerivedType(tag: DW_TAG_member, name: "_M_exception_object", scope: !522, file: !523, line: 82, baseType: !527, size: 64)
!527 = !DIDerivedType(tag: DW_TAG_pointer_type, baseType: null, size: 64)
!528 = !DISubprogram(name: "exception_ptr", scope: !522, file: !523, line: 84, type: !529, scopeLine: 84, flags: DIFlagExplicit | DIFlagPrototyped, spFlags: 0)
!529 = !DISubroutineType(types: !530)
!530 = !{null, !531, !527}
!531 = !DIDerivedType(tag: DW_TAG_pointer_type, baseType: !522, size: 64, flags: DIFlagArtificial | DIFlagObjectPointer)
!532 = !DISubprogram(name: "_M_addref", linkageName: "_ZNSt15__exception_ptr13exception_ptr9_M_addrefEv", scope: !522, file: !523, line: 86, type: !533, scopeLine: 86, flags: DIFlagPrototyped, spFlags: 0)
!533 = !DISubroutineType(types: !534)
!534 = !{null, !531}
!535 = !DISubprogram(name: "_M_release", linkageName: "_ZNSt15__exception_ptr13exception_ptr10_M_releaseEv", scope: !522, file: !523, line: 87, type: !533, scopeLine: 87, flags: DIFlagPrototyped, spFlags: 0)
!536 = !DISubprogram(name: "_M_get", linkageName: "_ZNKSt15__exception_ptr13exception_ptr6_M_getEv", scope: !522, file: !523, line: 89, type: !537, scopeLine: 89, flags: DIFlagPrototyped, spFlags: 0)
!537 = !DISubroutineType(types: !538)
!538 = !{!527, !539}
!539 = !DIDerivedType(tag: DW_TAG_pointer_type, baseType: !540, size: 64, flags: DIFlagArtificial | DIFlagObjectPointer)
!540 = !DIDerivedType(tag: DW_TAG_const_type, baseType: !522)
!541 = !DISubprogram(name: "exception_ptr", scope: !522, file: !523, line: 97, type: !533, scopeLine: 97, flags: DIFlagPublic | DIFlagPrototyped, spFlags: 0)
!542 = !DISubprogram(name: "exception_ptr", scope: !522, file: !523, line: 99, type: !543, scopeLine: 99, flags: DIFlagPublic | DIFlagPrototyped, spFlags: 0)
!543 = !DISubroutineType(types: !544)
!544 = !{null, !531, !545}
!545 = !DIDerivedType(tag: DW_TAG_reference_type, baseType: !540, size: 64)
!546 = !DISubprogram(name: "exception_ptr", scope: !522, file: !523, line: 102, type: !547, scopeLine: 102, flags: DIFlagPublic | DIFlagPrototyped, spFlags: 0)
!547 = !DISubroutineType(types: !548)
!548 = !{null, !531, !549}
!549 = !DIDerivedType(tag: DW_TAG_typedef, name: "nullptr_t", scope: !10, file: !9, line: 264, baseType: !550)
!550 = !DIBasicType(tag: DW_TAG_unspecified_type, name: "decltype(nullptr)")
!551 = !DISubprogram(name: "exception_ptr", scope: !522, file: !523, line: 106, type: !552, scopeLine: 106, flags: DIFlagPublic | DIFlagPrototyped, spFlags: 0)
!552 = !DISubroutineType(types: !553)
!553 = !{null, !531, !554}
!554 = !DIDerivedType(tag: DW_TAG_rvalue_reference_type, baseType: !522, size: 64)
!555 = !DISubprogram(name: "operator=", linkageName: "_ZNSt15__exception_ptr13exception_ptraSERKS0_", scope: !522, file: !523, line: 119, type: !556, scopeLine: 119, flags: DIFlagPublic | DIFlagPrototyped, spFlags: 0)
!556 = !DISubroutineType(types: !557)
!557 = !{!558, !531, !545}
!558 = !DIDerivedType(tag: DW_TAG_reference_type, baseType: !522, size: 64)
!559 = !DISubprogram(name: "operator=", linkageName: "_ZNSt15__exception_ptr13exception_ptraSEOS0_", scope: !522, file: !523, line: 123, type: !560, scopeLine: 123, flags: DIFlagPublic | DIFlagPrototyped, spFlags: 0)
!560 = !DISubroutineType(types: !561)
!561 = !{!558, !531, !554}
!562 = !DISubprogram(name: "~exception_ptr", scope: !522, file: !523, line: 130, type: !533, scopeLine: 130, flags: DIFlagPublic | DIFlagPrototyped, spFlags: 0)
!563 = !DISubprogram(name: "swap", linkageName: "_ZNSt15__exception_ptr13exception_ptr4swapERS0_", scope: !522, file: !523, line: 133, type: !564, scopeLine: 133, flags: DIFlagPublic | DIFlagPrototyped, spFlags: 0)
!564 = !DISubroutineType(types: !565)
!565 = !{null, !531, !558}
!566 = !DISubprogram(name: "operator bool", linkageName: "_ZNKSt15__exception_ptr13exception_ptrcvbEv", scope: !522, file: !523, line: 145, type: !567, scopeLine: 145, flags: DIFlagPublic | DIFlagExplicit | DIFlagPrototyped, spFlags: 0)
!567 = !DISubroutineType(types: !568)
!568 = !{!129, !539}
!569 = !DISubprogram(name: "__cxa_exception_type", linkageName: "_ZNKSt15__exception_ptr13exception_ptr20__cxa_exception_typeEv", scope: !522, file: !523, line: 154, type: !570, scopeLine: 154, flags: DIFlagPublic | DIFlagPrototyped, spFlags: 0)
!570 = !DISubroutineType(types: !571)
!571 = !{!572, !539}
!572 = !DIDerivedType(tag: DW_TAG_pointer_type, baseType: !573, size: 64)
!573 = !DIDerivedType(tag: DW_TAG_const_type, baseType: !574)
!574 = !DICompositeType(tag: DW_TAG_class_type, name: "type_info", scope: !10, file: !575, line: 88, flags: DIFlagFwdDecl)
!575 = !DIFile(filename: "/usr/bin/../lib/gcc/x86_64-linux-gnu/10/../../../../include/c++/10/typeinfo", directory: "")
!576 = !DIImportedEntity(tag: DW_TAG_imported_declaration, scope: !524, entity: !577, file: !523, line: 74)
!577 = !DISubprogram(name: "rethrow_exception", linkageName: "_ZSt17rethrow_exceptionNSt15__exception_ptr13exception_ptrE", scope: !10, file: !523, line: 70, type: !578, flags: DIFlagPrototyped | DIFlagNoReturn, spFlags: 0)
!578 = !DISubroutineType(types: !579)
!579 = !{null, !522}
!580 = !DIImportedEntity(tag: DW_TAG_imported_declaration, scope: !10, entity: !581, file: !585, line: 52)
!581 = !DISubprogram(name: "abs", scope: !582, file: !582, line: 840, type: !583, flags: DIFlagPrototyped, spFlags: 0)
!582 = !DIFile(filename: "/usr/include/stdlib.h", directory: "")
!583 = !DISubroutineType(types: !584)
!584 = !{!5, !5}
!585 = !DIFile(filename: "/usr/bin/../lib/gcc/x86_64-linux-gnu/10/../../../../include/c++/10/bits/std_abs.h", directory: "")
!586 = !DIImportedEntity(tag: DW_TAG_imported_declaration, scope: !10, entity: !587, file: !589, line: 127)
!587 = !DIDerivedType(tag: DW_TAG_typedef, name: "div_t", file: !582, line: 62, baseType: !588)
!588 = !DICompositeType(tag: DW_TAG_structure_type, file: !582, line: 58, flags: DIFlagFwdDecl, identifier: "_ZTS5div_t")
!589 = !DIFile(filename: "/usr/bin/../lib/gcc/x86_64-linux-gnu/10/../../../../include/c++/10/cstdlib", directory: "")
!590 = !DIImportedEntity(tag: DW_TAG_imported_declaration, scope: !10, entity: !591, file: !589, line: 128)
!591 = !DIDerivedType(tag: DW_TAG_typedef, name: "ldiv_t", file: !582, line: 70, baseType: !592)
!592 = distinct !DICompositeType(tag: DW_TAG_structure_type, file: !582, line: 66, size: 128, flags: DIFlagTypePassByValue, elements: !593, identifier: "_ZTS6ldiv_t")
!593 = !{!594, !596}
!594 = !DIDerivedType(tag: DW_TAG_member, name: "quot", scope: !592, file: !582, line: 68, baseType: !595, size: 64)
!595 = !DIBasicType(name: "long int", size: 64, encoding: DW_ATE_signed)
!596 = !DIDerivedType(tag: DW_TAG_member, name: "rem", scope: !592, file: !582, line: 69, baseType: !595, size: 64, offset: 64)
!597 = !DIImportedEntity(tag: DW_TAG_imported_declaration, scope: !10, entity: !598, file: !589, line: 130)
!598 = !DISubprogram(name: "abort", scope: !582, file: !582, line: 591, type: !599, flags: DIFlagPrototyped | DIFlagNoReturn, spFlags: 0)
!599 = !DISubroutineType(types: !600)
!600 = !{null}
!601 = !DIImportedEntity(tag: DW_TAG_imported_declaration, scope: !10, entity: !602, file: !589, line: 132)
!602 = !DISubprogram(name: "aligned_alloc", scope: !582, file: !582, line: 586, type: !603, flags: DIFlagPrototyped, spFlags: 0)
!603 = !DISubroutineType(types: !604)
!604 = !{!527, !605, !605}
!605 = !DIDerivedType(tag: DW_TAG_typedef, name: "size_t", file: !606, line: 46, baseType: !11)
!606 = !DIFile(filename: "/usr/lib/llvm-10/lib/clang/10.0.0/include/stddef.h", directory: "")
!607 = !DIImportedEntity(tag: DW_TAG_imported_declaration, scope: !10, entity: !608, file: !589, line: 134)
!608 = !DISubprogram(name: "atexit", scope: !582, file: !582, line: 595, type: !609, flags: DIFlagPrototyped, spFlags: 0)
!609 = !DISubroutineType(types: !610)
!610 = !{!5, !611}
!611 = !DIDerivedType(tag: DW_TAG_pointer_type, baseType: !599, size: 64)
!612 = !DIImportedEntity(tag: DW_TAG_imported_declaration, scope: !10, entity: !613, file: !589, line: 137)
!613 = !DISubprogram(name: "at_quick_exit", scope: !582, file: !582, line: 600, type: !609, flags: DIFlagPrototyped, spFlags: 0)
!614 = !DIImportedEntity(tag: DW_TAG_imported_declaration, scope: !10, entity: !615, file: !589, line: 140)
!615 = !DISubprogram(name: "atof", scope: !582, file: !582, line: 101, type: !616, flags: DIFlagPrototyped, spFlags: 0)
!616 = !DISubroutineType(types: !617)
!617 = !{!618, !490}
!618 = !DIBasicType(name: "double", size: 64, encoding: DW_ATE_float)
!619 = !DIImportedEntity(tag: DW_TAG_imported_declaration, scope: !10, entity: !620, file: !589, line: 141)
!620 = !DISubprogram(name: "atoi", scope: !582, file: !582, line: 104, type: !621, flags: DIFlagPrototyped, spFlags: 0)
!621 = !DISubroutineType(types: !622)
!622 = !{!5, !490}
!623 = !DIImportedEntity(tag: DW_TAG_imported_declaration, scope: !10, entity: !624, file: !589, line: 142)
!624 = !DISubprogram(name: "atol", scope: !582, file: !582, line: 107, type: !625, flags: DIFlagPrototyped, spFlags: 0)
!625 = !DISubroutineType(types: !626)
!626 = !{!595, !490}
!627 = !DIImportedEntity(tag: DW_TAG_imported_declaration, scope: !10, entity: !628, file: !589, line: 143)
!628 = !DISubprogram(name: "bsearch", scope: !582, file: !582, line: 820, type: !629, flags: DIFlagPrototyped, spFlags: 0)
!629 = !DISubroutineType(types: !630)
!630 = !{!527, !6, !6, !605, !605, !631}
!631 = !DIDerivedType(tag: DW_TAG_typedef, name: "__compar_fn_t", file: !582, line: 808, baseType: !632)
!632 = !DIDerivedType(tag: DW_TAG_pointer_type, baseType: !633, size: 64)
!633 = !DISubroutineType(types: !634)
!634 = !{!5, !6, !6}
!635 = !DIImportedEntity(tag: DW_TAG_imported_declaration, scope: !10, entity: !636, file: !589, line: 144)
!636 = !DISubprogram(name: "calloc", scope: !582, file: !582, line: 542, type: !603, flags: DIFlagPrototyped, spFlags: 0)
!637 = !DIImportedEntity(tag: DW_TAG_imported_declaration, scope: !10, entity: !638, file: !589, line: 145)
!638 = !DISubprogram(name: "div", scope: !582, file: !582, line: 852, type: !639, flags: DIFlagPrototyped, spFlags: 0)
!639 = !DISubroutineType(types: !640)
!640 = !{!587, !5, !5}
!641 = !DIImportedEntity(tag: DW_TAG_imported_declaration, scope: !10, entity: !642, file: !589, line: 146)
!642 = !DISubprogram(name: "exit", scope: !582, file: !582, line: 617, type: !643, flags: DIFlagPrototyped | DIFlagNoReturn, spFlags: 0)
!643 = !DISubroutineType(types: !644)
!644 = !{null, !5}
!645 = !DIImportedEntity(tag: DW_TAG_imported_declaration, scope: !10, entity: !646, file: !589, line: 147)
!646 = !DISubprogram(name: "free", scope: !582, file: !582, line: 565, type: !647, flags: DIFlagPrototyped, spFlags: 0)
!647 = !DISubroutineType(types: !648)
!648 = !{null, !527}
!649 = !DIImportedEntity(tag: DW_TAG_imported_declaration, scope: !10, entity: !650, file: !589, line: 148)
!650 = !DISubprogram(name: "getenv", scope: !582, file: !582, line: 634, type: !651, flags: DIFlagPrototyped, spFlags: 0)
!651 = !DISubroutineType(types: !652)
!652 = !{!653, !490}
!653 = !DIDerivedType(tag: DW_TAG_pointer_type, baseType: !492, size: 64)
!654 = !DIImportedEntity(tag: DW_TAG_imported_declaration, scope: !10, entity: !655, file: !589, line: 149)
!655 = !DISubprogram(name: "labs", scope: !582, file: !582, line: 841, type: !656, flags: DIFlagPrototyped, spFlags: 0)
!656 = !DISubroutineType(types: !657)
!657 = !{!595, !595}
!658 = !DIImportedEntity(tag: DW_TAG_imported_declaration, scope: !10, entity: !659, file: !589, line: 150)
!659 = !DISubprogram(name: "ldiv", scope: !582, file: !582, line: 854, type: !660, flags: DIFlagPrototyped, spFlags: 0)
!660 = !DISubroutineType(types: !661)
!661 = !{!591, !595, !595}
!662 = !DIImportedEntity(tag: DW_TAG_imported_declaration, scope: !10, entity: !663, file: !589, line: 151)
!663 = !DISubprogram(name: "malloc", scope: !582, file: !582, line: 539, type: !664, flags: DIFlagPrototyped, spFlags: 0)
!664 = !DISubroutineType(types: !665)
!665 = !{!527, !605}
!666 = !DIImportedEntity(tag: DW_TAG_imported_declaration, scope: !10, entity: !667, file: !589, line: 153)
!667 = !DISubprogram(name: "mblen", scope: !582, file: !582, line: 922, type: !668, flags: DIFlagPrototyped, spFlags: 0)
!668 = !DISubroutineType(types: !669)
!669 = !{!5, !490, !605}
!670 = !DIImportedEntity(tag: DW_TAG_imported_declaration, scope: !10, entity: !671, file: !589, line: 154)
!671 = !DISubprogram(name: "mbstowcs", scope: !582, file: !582, line: 933, type: !672, flags: DIFlagPrototyped, spFlags: 0)
!672 = !DISubroutineType(types: !673)
!673 = !{!605, !674, !677, !605}
!674 = !DIDerivedType(tag: DW_TAG_restrict_type, baseType: !675)
!675 = !DIDerivedType(tag: DW_TAG_pointer_type, baseType: !676, size: 64)
!676 = !DIBasicType(name: "wchar_t", size: 32, encoding: DW_ATE_signed)
!677 = !DIDerivedType(tag: DW_TAG_restrict_type, baseType: !490)
!678 = !DIImportedEntity(tag: DW_TAG_imported_declaration, scope: !10, entity: !679, file: !589, line: 155)
!679 = !DISubprogram(name: "mbtowc", scope: !582, file: !582, line: 925, type: !680, flags: DIFlagPrototyped, spFlags: 0)
!680 = !DISubroutineType(types: !681)
!681 = !{!5, !674, !677, !605}
!682 = !DIImportedEntity(tag: DW_TAG_imported_declaration, scope: !10, entity: !683, file: !589, line: 157)
!683 = !DISubprogram(name: "qsort", scope: !582, file: !582, line: 830, type: !684, flags: DIFlagPrototyped, spFlags: 0)
!684 = !DISubroutineType(types: !685)
!685 = !{null, !527, !605, !605, !631}
!686 = !DIImportedEntity(tag: DW_TAG_imported_declaration, scope: !10, entity: !687, file: !589, line: 160)
!687 = !DISubprogram(name: "quick_exit", scope: !582, file: !582, line: 623, type: !643, flags: DIFlagPrototyped | DIFlagNoReturn, spFlags: 0)
!688 = !DIImportedEntity(tag: DW_TAG_imported_declaration, scope: !10, entity: !689, file: !589, line: 163)
!689 = !DISubprogram(name: "rand", scope: !582, file: !582, line: 453, type: !690, flags: DIFlagPrototyped, spFlags: 0)
!690 = !DISubroutineType(types: !691)
!691 = !{!5}
!692 = !DIImportedEntity(tag: DW_TAG_imported_declaration, scope: !10, entity: !693, file: !589, line: 164)
!693 = !DISubprogram(name: "realloc", scope: !582, file: !582, line: 550, type: !694, flags: DIFlagPrototyped, spFlags: 0)
!694 = !DISubroutineType(types: !695)
!695 = !{!527, !527, !605}
!696 = !DIImportedEntity(tag: DW_TAG_imported_declaration, scope: !10, entity: !697, file: !589, line: 165)
!697 = !DISubprogram(name: "srand", scope: !582, file: !582, line: 455, type: !698, flags: DIFlagPrototyped, spFlags: 0)
!698 = !DISubroutineType(types: !699)
!699 = !{null, !700}
!700 = !DIBasicType(name: "unsigned int", size: 32, encoding: DW_ATE_unsigned)
!701 = !DIImportedEntity(tag: DW_TAG_imported_declaration, scope: !10, entity: !702, file: !589, line: 166)
!702 = !DISubprogram(name: "strtod", scope: !582, file: !582, line: 117, type: !703, flags: DIFlagPrototyped, spFlags: 0)
!703 = !DISubroutineType(types: !704)
!704 = !{!618, !677, !705}
!705 = !DIDerivedType(tag: DW_TAG_restrict_type, baseType: !706)
!706 = !DIDerivedType(tag: DW_TAG_pointer_type, baseType: !653, size: 64)
!707 = !DIImportedEntity(tag: DW_TAG_imported_declaration, scope: !10, entity: !708, file: !589, line: 167)
!708 = !DISubprogram(name: "strtol", scope: !582, file: !582, line: 176, type: !709, flags: DIFlagPrototyped, spFlags: 0)
!709 = !DISubroutineType(types: !710)
!710 = !{!595, !677, !705, !5}
!711 = !DIImportedEntity(tag: DW_TAG_imported_declaration, scope: !10, entity: !712, file: !589, line: 168)
!712 = !DISubprogram(name: "strtoul", scope: !582, file: !582, line: 180, type: !713, flags: DIFlagPrototyped, spFlags: 0)
!713 = !DISubroutineType(types: !714)
!714 = !{!11, !677, !705, !5}
!715 = !DIImportedEntity(tag: DW_TAG_imported_declaration, scope: !10, entity: !716, file: !589, line: 169)
!716 = !DISubprogram(name: "system", scope: !582, file: !582, line: 784, type: !621, flags: DIFlagPrototyped, spFlags: 0)
!717 = !DIImportedEntity(tag: DW_TAG_imported_declaration, scope: !10, entity: !718, file: !589, line: 171)
!718 = !DISubprogram(name: "wcstombs", scope: !582, file: !582, line: 936, type: !719, flags: DIFlagPrototyped, spFlags: 0)
!719 = !DISubroutineType(types: !720)
!720 = !{!605, !721, !722, !605}
!721 = !DIDerivedType(tag: DW_TAG_restrict_type, baseType: !653)
!722 = !DIDerivedType(tag: DW_TAG_restrict_type, baseType: !723)
!723 = !DIDerivedType(tag: DW_TAG_pointer_type, baseType: !724, size: 64)
!724 = !DIDerivedType(tag: DW_TAG_const_type, baseType: !676)
!725 = !DIImportedEntity(tag: DW_TAG_imported_declaration, scope: !10, entity: !726, file: !589, line: 172)
!726 = !DISubprogram(name: "wctomb", scope: !582, file: !582, line: 929, type: !727, flags: DIFlagPrototyped, spFlags: 0)
!727 = !DISubroutineType(types: !728)
!728 = !{!5, !653, !676}
!729 = !DIImportedEntity(tag: DW_TAG_imported_declaration, scope: !28, entity: !730, file: !589, line: 200)
!730 = !DIDerivedType(tag: DW_TAG_typedef, name: "lldiv_t", file: !582, line: 80, baseType: !731)
!731 = distinct !DICompositeType(tag: DW_TAG_structure_type, file: !582, line: 76, size: 128, flags: DIFlagTypePassByValue, elements: !732, identifier: "_ZTS7lldiv_t")
!732 = !{!733, !735}
!733 = !DIDerivedType(tag: DW_TAG_member, name: "quot", scope: !731, file: !582, line: 78, baseType: !734, size: 64)
!734 = !DIBasicType(name: "long long int", size: 64, encoding: DW_ATE_signed)
!735 = !DIDerivedType(tag: DW_TAG_member, name: "rem", scope: !731, file: !582, line: 79, baseType: !734, size: 64, offset: 64)
!736 = !DIImportedEntity(tag: DW_TAG_imported_declaration, scope: !28, entity: !737, file: !589, line: 206)
!737 = !DISubprogram(name: "_Exit", scope: !582, file: !582, line: 629, type: !643, flags: DIFlagPrototyped | DIFlagNoReturn, spFlags: 0)
!738 = !DIImportedEntity(tag: DW_TAG_imported_declaration, scope: !28, entity: !739, file: !589, line: 210)
!739 = !DISubprogram(name: "llabs", scope: !582, file: !582, line: 844, type: !740, flags: DIFlagPrototyped, spFlags: 0)
!740 = !DISubroutineType(types: !741)
!741 = !{!734, !734}
!742 = !DIImportedEntity(tag: DW_TAG_imported_declaration, scope: !28, entity: !743, file: !589, line: 216)
!743 = !DISubprogram(name: "lldiv", scope: !582, file: !582, line: 858, type: !744, flags: DIFlagPrototyped, spFlags: 0)
!744 = !DISubroutineType(types: !745)
!745 = !{!730, !734, !734}
!746 = !DIImportedEntity(tag: DW_TAG_imported_declaration, scope: !28, entity: !747, file: !589, line: 227)
!747 = !DISubprogram(name: "atoll", scope: !582, file: !582, line: 112, type: !748, flags: DIFlagPrototyped, spFlags: 0)
!748 = !DISubroutineType(types: !749)
!749 = !{!734, !490}
!750 = !DIImportedEntity(tag: DW_TAG_imported_declaration, scope: !28, entity: !751, file: !589, line: 228)
!751 = !DISubprogram(name: "strtoll", scope: !582, file: !582, line: 200, type: !752, flags: DIFlagPrototyped, spFlags: 0)
!752 = !DISubroutineType(types: !753)
!753 = !{!734, !677, !705, !5}
!754 = !DIImportedEntity(tag: DW_TAG_imported_declaration, scope: !28, entity: !755, file: !589, line: 229)
!755 = !DISubprogram(name: "strtoull", scope: !582, file: !582, line: 205, type: !756, flags: DIFlagPrototyped, spFlags: 0)
!756 = !DISubroutineType(types: !757)
!757 = !{!758, !677, !705, !5}
!758 = !DIBasicType(name: "long long unsigned int", size: 64, encoding: DW_ATE_unsigned)
!759 = !DIImportedEntity(tag: DW_TAG_imported_declaration, scope: !28, entity: !760, file: !589, line: 231)
!760 = !DISubprogram(name: "strtof", scope: !582, file: !582, line: 123, type: !761, flags: DIFlagPrototyped, spFlags: 0)
!761 = !DISubroutineType(types: !762)
!762 = !{!763, !677, !705}
!763 = !DIBasicType(name: "float", size: 32, encoding: DW_ATE_float)
!764 = !DIImportedEntity(tag: DW_TAG_imported_declaration, scope: !28, entity: !765, file: !589, line: 232)
!765 = !DISubprogram(name: "strtold", scope: !582, file: !582, line: 126, type: !766, flags: DIFlagPrototyped, spFlags: 0)
!766 = !DISubroutineType(types: !767)
!767 = !{!768, !677, !705}
!768 = !DIBasicType(name: "long double", size: 128, encoding: DW_ATE_float)
!769 = !DIImportedEntity(tag: DW_TAG_imported_declaration, scope: !10, entity: !730, file: !589, line: 240)
!770 = !DIImportedEntity(tag: DW_TAG_imported_declaration, scope: !10, entity: !737, file: !589, line: 242)
!771 = !DIImportedEntity(tag: DW_TAG_imported_declaration, scope: !10, entity: !739, file: !589, line: 244)
!772 = !DIImportedEntity(tag: DW_TAG_imported_declaration, scope: !10, entity: !773, file: !589, line: 245)
!773 = !DISubprogram(name: "div", linkageName: "_ZN9__gnu_cxx3divExx", scope: !28, file: !589, line: 213, type: !744, flags: DIFlagPrototyped, spFlags: 0)
!774 = !DIImportedEntity(tag: DW_TAG_imported_declaration, scope: !10, entity: !743, file: !589, line: 246)
!775 = !DIImportedEntity(tag: DW_TAG_imported_declaration, scope: !10, entity: !747, file: !589, line: 248)
!776 = !DIImportedEntity(tag: DW_TAG_imported_declaration, scope: !10, entity: !760, file: !589, line: 249)
!777 = !DIImportedEntity(tag: DW_TAG_imported_declaration, scope: !10, entity: !751, file: !589, line: 250)
!778 = !DIImportedEntity(tag: DW_TAG_imported_declaration, scope: !10, entity: !755, file: !589, line: 251)
!779 = !DIImportedEntity(tag: DW_TAG_imported_declaration, scope: !10, entity: !765, file: !589, line: 252)
!780 = distinct !DICompileUnit(language: DW_LANG_C99, file: !781, producer: "clang version 9.0.1-12 ", isOptimized: false, runtimeVersion: 0, emissionKind: FullDebug, enums: !2, nameTableKind: None)
!781 = !DIFile(filename: "/home/ha-useast-service/klee/runtime/Freestanding/memmove.c", directory: "/home/ha-useast-service/build/runtime/Freestanding")
!782 = !{i32 7, !"Dwarf Version", i32 4}
!783 = !{i32 2, !"Debug Info Version", i32 3}
!784 = !{i32 1, !"wchar_size", i32 4}
!785 = !{!"clang version 10.0.0-4ubuntu1 "}
!786 = !{!"clang version 9.0.1-12 "}
!787 = distinct !DISubprogram(name: "montyhall", linkageName: "_Z9montyhallb", scope: !1, file: !1, line: 13, type: !788, scopeLine: 14, flags: DIFlagPrototyped, spFlags: DISPFlagDefinition, unit: !0, retainedNodes: !2)
!788 = !DISubroutineType(types: !789)
!789 = !{!129, !129}
!790 = !DILocalVariable(name: "door_switch", arg: 1, scope: !787, file: !1, line: 13, type: !129)
!791 = !DILocation(line: 13, column: 21, scope: !787)
!792 = !DILocalVariable(name: "host_door", scope: !787, file: !1, line: 16, type: !5)
!793 = !DILocation(line: 16, column: 6, scope: !787)
!794 = !DILocalVariable(name: "car_door", scope: !787, file: !1, line: 17, type: !5)
!795 = !DILocation(line: 17, column: 6, scope: !787)
!796 = !DILocalVariable(name: "choice", scope: !787, file: !1, line: 17, type: !5)
!797 = !DILocation(line: 17, column: 16, scope: !787)
!798 = !DILocation(line: 19, column: 20, scope: !787)
!799 = !DILocation(line: 19, column: 63, scope: !787)
!800 = !DILocation(line: 19, column: 66, scope: !787)
!801 = !DILocation(line: 19, column: 2, scope: !787)
!802 = !DILocation(line: 20, column: 20, scope: !787)
!803 = !DILocation(line: 20, column: 69, scope: !787)
!804 = !DILocation(line: 20, column: 72, scope: !787)
!805 = !DILocation(line: 20, column: 2, scope: !787)
!806 = !DILocation(line: 21, column: 21, scope: !787)
!807 = !DILocation(line: 21, column: 2, scope: !787)
!808 = !DILocation(line: 26, column: 6, scope: !809)
!809 = distinct !DILexicalBlock(scope: !787, file: !1, line: 26, column: 6)
!810 = !DILocation(line: 26, column: 15, scope: !809)
!811 = !DILocation(line: 26, column: 23, scope: !809)
!812 = !DILocation(line: 26, column: 30, scope: !809)
!813 = !DILocation(line: 26, column: 20, scope: !809)
!814 = !DILocation(line: 28, column: 13, scope: !815)
!815 = distinct !DILexicalBlock(scope: !809, file: !1, line: 27, column: 2)
!816 = !DILocation(line: 29, column: 2, scope: !815)
!817 = !DILocation(line: 30, column: 11, scope: !818)
!818 = distinct !DILexicalBlock(scope: !809, file: !1, line: 30, column: 11)
!819 = !DILocation(line: 30, column: 20, scope: !818)
!820 = !DILocation(line: 30, column: 28, scope: !818)
!821 = !DILocation(line: 30, column: 35, scope: !818)
!822 = !DILocation(line: 30, column: 25, scope: !818)
!823 = !DILocation(line: 32, column: 13, scope: !824)
!824 = distinct !DILexicalBlock(scope: !818, file: !1, line: 31, column: 2)
!825 = !DILocation(line: 33, column: 2, scope: !824)
!826 = !DILocation(line: 36, column: 13, scope: !827)
!827 = distinct !DILexicalBlock(scope: !818, file: !1, line: 35, column: 2)
!828 = !DILocation(line: 42, column: 6, scope: !829)
!829 = distinct !DILexicalBlock(scope: !787, file: !1, line: 42, column: 6)
!830 = !DILocation(line: 42, column: 6, scope: !787)
!831 = !DILocation(line: 44, column: 7, scope: !832)
!832 = distinct !DILexicalBlock(scope: !833, file: !1, line: 44, column: 7)
!833 = distinct !DILexicalBlock(scope: !829, file: !1, line: 43, column: 2)
!834 = !DILocation(line: 44, column: 17, scope: !832)
!835 = !DILocation(line: 44, column: 7, scope: !833)
!836 = !DILocation(line: 46, column: 8, scope: !837)
!837 = distinct !DILexicalBlock(scope: !838, file: !1, line: 46, column: 8)
!838 = distinct !DILexicalBlock(scope: !832, file: !1, line: 45, column: 3)
!839 = !DILocation(line: 46, column: 15, scope: !837)
!840 = !DILocation(line: 46, column: 8, scope: !838)
!841 = !DILocation(line: 48, column: 12, scope: !842)
!842 = distinct !DILexicalBlock(scope: !837, file: !1, line: 47, column: 4)
!843 = !DILocation(line: 49, column: 4, scope: !842)
!844 = !DILocation(line: 52, column: 12, scope: !845)
!845 = distinct !DILexicalBlock(scope: !837, file: !1, line: 51, column: 4)
!846 = !DILocation(line: 55, column: 12, scope: !847)
!847 = distinct !DILexicalBlock(scope: !832, file: !1, line: 55, column: 12)
!848 = !DILocation(line: 55, column: 22, scope: !847)
!849 = !DILocation(line: 0, scope: !847)
!850 = !DILocation(line: 55, column: 12, scope: !832)
!851 = !DILocation(line: 57, column: 8, scope: !852)
!852 = distinct !DILexicalBlock(scope: !847, file: !1, line: 56, column: 3)
!853 = !DILocation(line: 59, column: 12, scope: !854)
!854 = distinct !DILexicalBlock(scope: !855, file: !1, line: 58, column: 4)
!855 = distinct !DILexicalBlock(scope: !852, file: !1, line: 57, column: 8)
!856 = !DILocation(line: 60, column: 4, scope: !854)
!857 = !DILocation(line: 63, column: 12, scope: !858)
!858 = distinct !DILexicalBlock(scope: !855, file: !1, line: 62, column: 4)
!859 = !DILocation(line: 68, column: 8, scope: !860)
!860 = distinct !DILexicalBlock(scope: !847, file: !1, line: 67, column: 3)
!861 = !DILocation(line: 70, column: 12, scope: !862)
!862 = distinct !DILexicalBlock(scope: !863, file: !1, line: 69, column: 4)
!863 = distinct !DILexicalBlock(scope: !860, file: !1, line: 68, column: 8)
!864 = !DILocation(line: 71, column: 4, scope: !862)
!865 = !DILocation(line: 74, column: 12, scope: !866)
!866 = distinct !DILexicalBlock(scope: !863, file: !1, line: 73, column: 4)
!867 = !DILocation(line: 79, column: 6, scope: !868)
!868 = distinct !DILexicalBlock(scope: !787, file: !1, line: 79, column: 6)
!869 = !DILocation(line: 79, column: 16, scope: !868)
!870 = !DILocation(line: 79, column: 13, scope: !868)
!871 = !DILocation(line: 79, column: 6, scope: !787)
!872 = !DILocation(line: 81, column: 3, scope: !873)
!873 = distinct !DILexicalBlock(scope: !868, file: !1, line: 80, column: 2)
!874 = !DILocation(line: 85, column: 3, scope: !875)
!875 = distinct !DILexicalBlock(scope: !868, file: !1, line: 84, column: 2)
!876 = !DILocation(line: 89, column: 1, scope: !787)
!877 = distinct !DISubprogram(name: "make_pse_symbolic<int>", linkageName: "_Z17make_pse_symbolicIiEvPvmPKcOT_S4_", scope: !878, file: !878, line: 7, type: !879, scopeLine: 8, flags: DIFlagPrototyped, spFlags: DISPFlagDefinition, unit: !0, templateParams: !882, retainedNodes: !2)
!878 = !DIFile(filename: "./PSE.h", directory: "/home/ha-useast-service/Documents/Research/PSE-Program-Examples")
!879 = !DISubroutineType(types: !880)
!880 = !{null, !527, !605, !490, !881, !881}
!881 = !DIDerivedType(tag: DW_TAG_rvalue_reference_type, baseType: !5, size: 64)
!882 = !{!883}
!883 = !DITemplateTypeParameter(name: "T", type: !5)
!884 = !DILocalVariable(name: "addr", arg: 1, scope: !877, file: !878, line: 7, type: !527)
!885 = !DILocation(line: 7, column: 30, scope: !877)
!886 = !DILocalVariable(name: "bytes", arg: 2, scope: !877, file: !878, line: 7, type: !605)
!887 = !DILocation(line: 7, column: 43, scope: !877)
!888 = !DILocalVariable(name: "name", arg: 3, scope: !877, file: !878, line: 7, type: !490)
!889 = !DILocation(line: 7, column: 62, scope: !877)
!890 = !DILocalVariable(name: "min_elem", arg: 4, scope: !877, file: !878, line: 7, type: !881)
!891 = !DILocation(line: 7, column: 72, scope: !877)
!892 = !DILocalVariable(name: "max_elem", arg: 5, scope: !877, file: !878, line: 7, type: !881)
!893 = !DILocation(line: 7, column: 86, scope: !877)
!894 = !DILocation(line: 9, column: 24, scope: !877)
!895 = !DILocation(line: 9, column: 30, scope: !877)
!896 = !DILocation(line: 9, column: 37, scope: !877)
!897 = !DILocation(line: 9, column: 5, scope: !877)
!898 = !DILocation(line: 10, column: 23, scope: !877)
!899 = !DILocation(line: 10, column: 18, scope: !877)
!900 = !DILocation(line: 10, column: 17, scope: !877)
!901 = !DILocation(line: 10, column: 40, scope: !877)
!902 = !DILocation(line: 10, column: 50, scope: !877)
!903 = !DILocation(line: 10, column: 31, scope: !877)
!904 = !DILocation(line: 10, column: 28, scope: !877)
!905 = !DILocation(line: 10, column: 5, scope: !877)
!906 = !DILocation(line: 11, column: 23, scope: !877)
!907 = !DILocation(line: 11, column: 18, scope: !877)
!908 = !DILocation(line: 11, column: 17, scope: !877)
!909 = !DILocation(line: 11, column: 40, scope: !877)
!910 = !DILocation(line: 11, column: 50, scope: !877)
!911 = !DILocation(line: 11, column: 31, scope: !877)
!912 = !DILocation(line: 11, column: 28, scope: !877)
!913 = !DILocation(line: 11, column: 5, scope: !877)
!914 = !DILocation(line: 12, column: 1, scope: !877)
!915 = distinct !DISubprogram(name: "main", scope: !1, file: !1, line: 91, type: !690, scopeLine: 92, flags: DIFlagPrototyped, spFlags: DISPFlagDefinition, unit: !0, retainedNodes: !2)
!916 = !DILocalVariable(name: "choice", scope: !915, file: !1, line: 93, type: !5)
!917 = !DILocation(line: 93, column: 6, scope: !915)
!918 = !DILocalVariable(name: "door_switch", scope: !915, file: !1, line: 94, type: !5)
!919 = !DILocation(line: 94, column: 6, scope: !915)
!920 = !DILocalVariable(name: "door_switch_dist", scope: !915, file: !1, line: 95, type: !14)
!921 = !DILocation(line: 95, column: 19, scope: !915)
!922 = !DILocation(line: 95, column: 38, scope: !915)
!923 = !DILocation(line: 97, column: 20, scope: !915)
!924 = !DILocation(line: 97, column: 78, scope: !915)
!925 = !DILocation(line: 97, column: 81, scope: !915)
!926 = !DILocation(line: 97, column: 2, scope: !915)
!927 = !DILocation(line: 98, column: 19, scope: !915)
!928 = !DILocation(line: 98, column: 9, scope: !915)
!929 = !DILocation(line: 98, column: 2, scope: !915)
!930 = !DILocation(line: 99, column: 1, scope: !915)
!931 = distinct !DISubprogram(name: "allocator", linkageName: "_ZNSaIiEC2Ev", scope: !40, file: !41, line: 144, type: !88, scopeLine: 144, flags: DIFlagPrototyped, spFlags: DISPFlagDefinition, unit: !0, declaration: !87, retainedNodes: !2)
!932 = !DILocalVariable(name: "this", arg: 1, scope: !931, type: !933, flags: DIFlagArtificial | DIFlagObjectPointer)
!933 = !DIDerivedType(tag: DW_TAG_pointer_type, baseType: !40, size: 64)
!934 = !DILocation(line: 0, scope: !931)
!935 = !DILocation(line: 144, column: 36, scope: !931)
!936 = !DILocation(line: 144, column: 7, scope: !931)
!937 = !DILocation(line: 144, column: 38, scope: !931)
!938 = distinct !DISubprogram(name: "vector", linkageName: "_ZNSt6vectorIiSaIiEEC2ESt16initializer_listIiERKS0_", scope: !14, file: !13, line: 625, type: !321, scopeLine: 628, flags: DIFlagPrototyped, spFlags: DISPFlagDefinition, unit: !0, declaration: !320, retainedNodes: !2)
!939 = !DILocalVariable(name: "this", arg: 1, scope: !938, type: !940, flags: DIFlagArtificial | DIFlagObjectPointer)
!940 = !DIDerivedType(tag: DW_TAG_pointer_type, baseType: !14, size: 64)
!941 = !DILocation(line: 0, scope: !938)
!942 = !DILocalVariable(name: "__l", arg: 2, scope: !938, file: !13, line: 625, type: !323)
!943 = !DILocation(line: 625, column: 43, scope: !938)
!944 = !DILocalVariable(name: "__a", arg: 3, scope: !938, file: !13, line: 626, type: !286)
!945 = !DILocation(line: 626, column: 29, scope: !938)
!946 = !DILocation(line: 628, column: 7, scope: !938)
!947 = !DILocation(line: 627, column: 15, scope: !938)
!948 = !DILocation(line: 627, column: 9, scope: !938)
!949 = !DILocation(line: 629, column: 26, scope: !950)
!950 = distinct !DILexicalBlock(scope: !938, file: !13, line: 628, column: 7)
!951 = !DILocation(line: 629, column: 39, scope: !950)
!952 = !DILocation(line: 630, column: 8, scope: !950)
!953 = !DILocation(line: 629, column: 2, scope: !950)
!954 = !DILocation(line: 631, column: 7, scope: !938)
!955 = !DILocation(line: 631, column: 7, scope: !950)
!956 = distinct !DISubprogram(name: "~allocator", linkageName: "_ZNSaIiED2Ev", scope: !40, file: !41, line: 162, type: !88, scopeLine: 162, flags: DIFlagPrototyped, spFlags: DISPFlagDefinition, unit: !0, declaration: !100, retainedNodes: !2)
!957 = !DILocalVariable(name: "this", arg: 1, scope: !956, type: !933, flags: DIFlagArtificial | DIFlagObjectPointer)
!958 = !DILocation(line: 0, scope: !956)
!959 = !DILocation(line: 162, column: 39, scope: !960)
!960 = distinct !DILexicalBlock(scope: !956, file: !41, line: 162, column: 37)
!961 = !DILocation(line: 162, column: 39, scope: !956)
!962 = distinct !DISubprogram(name: "~vector", linkageName: "_ZNSt6vectorIiSaIiEED2Ev", scope: !14, file: !13, line: 678, type: !280, scopeLine: 679, flags: DIFlagPrototyped, spFlags: DISPFlagDefinition, unit: !0, declaration: !349, retainedNodes: !2)
!963 = !DILocalVariable(name: "this", arg: 1, scope: !962, type: !940, flags: DIFlagArtificial | DIFlagObjectPointer)
!964 = !DILocation(line: 0, scope: !962)
!965 = !DILocation(line: 680, column: 22, scope: !966)
!966 = distinct !DILexicalBlock(scope: !962, file: !13, line: 679, column: 7)
!967 = !DILocation(line: 680, column: 16, scope: !966)
!968 = !DILocation(line: 680, column: 30, scope: !966)
!969 = !DILocation(line: 680, column: 46, scope: !966)
!970 = !DILocation(line: 680, column: 40, scope: !966)
!971 = !DILocation(line: 680, column: 54, scope: !966)
!972 = !DILocation(line: 681, column: 9, scope: !966)
!973 = !DILocation(line: 680, column: 2, scope: !966)
!974 = !DILocation(line: 683, column: 7, scope: !966)
!975 = !DILocation(line: 683, column: 7, scope: !962)
!976 = distinct !DISubprogram(name: "min<int>", linkageName: "_ZSt3minIiERKT_S2_S2_", scope: !10, file: !977, line: 230, type: !978, scopeLine: 231, flags: DIFlagPrototyped, spFlags: DISPFlagDefinition, unit: !0, templateParams: !85, retainedNodes: !2)
!977 = !DIFile(filename: "/usr/bin/../lib/gcc/x86_64-linux-gnu/10/../../../../include/c++/10/bits/stl_algobase.h", directory: "")
!978 = !DISubroutineType(types: !979)
!979 = !{!73, !73, !73}
!980 = !DILocalVariable(name: "__a", arg: 1, scope: !976, file: !981, line: 420, type: !73)
!981 = !DIFile(filename: "/usr/bin/../lib/gcc/x86_64-linux-gnu/10/../../../../include/c++/10/bits/algorithmfwd.h", directory: "")
!982 = !DILocation(line: 420, column: 19, scope: !976)
!983 = !DILocalVariable(name: "__b", arg: 2, scope: !976, file: !981, line: 420, type: !73)
!984 = !DILocation(line: 420, column: 31, scope: !976)
!985 = !DILocation(line: 235, column: 11, scope: !986)
!986 = distinct !DILexicalBlock(scope: !976, file: !977, line: 235, column: 11)
!987 = !DILocation(line: 235, column: 17, scope: !986)
!988 = !DILocation(line: 235, column: 15, scope: !986)
!989 = !DILocation(line: 235, column: 11, scope: !976)
!990 = !DILocation(line: 236, column: 9, scope: !986)
!991 = !DILocation(line: 236, column: 2, scope: !986)
!992 = !DILocation(line: 237, column: 14, scope: !976)
!993 = !DILocation(line: 237, column: 7, scope: !976)
!994 = !DILocation(line: 238, column: 5, scope: !976)
!995 = distinct !DISubprogram(name: "max<int>", linkageName: "_ZSt3maxIiERKT_S2_S2_", scope: !10, file: !977, line: 254, type: !978, scopeLine: 255, flags: DIFlagPrototyped, spFlags: DISPFlagDefinition, unit: !0, templateParams: !85, retainedNodes: !2)
!996 = !DILocalVariable(name: "__a", arg: 1, scope: !995, file: !981, line: 407, type: !73)
!997 = !DILocation(line: 407, column: 19, scope: !995)
!998 = !DILocalVariable(name: "__b", arg: 2, scope: !995, file: !981, line: 407, type: !73)
!999 = !DILocation(line: 407, column: 31, scope: !995)
!1000 = !DILocation(line: 259, column: 11, scope: !1001)
!1001 = distinct !DILexicalBlock(scope: !995, file: !977, line: 259, column: 11)
!1002 = !DILocation(line: 259, column: 17, scope: !1001)
!1003 = !DILocation(line: 259, column: 15, scope: !1001)
!1004 = !DILocation(line: 259, column: 11, scope: !995)
!1005 = !DILocation(line: 260, column: 9, scope: !1001)
!1006 = !DILocation(line: 260, column: 2, scope: !1001)
!1007 = !DILocation(line: 261, column: 14, scope: !995)
!1008 = !DILocation(line: 261, column: 7, scope: !995)
!1009 = !DILocation(line: 262, column: 5, scope: !995)
!1010 = distinct !DISubprogram(name: "new_allocator", linkageName: "_ZN9__gnu_cxx13new_allocatorIiEC2Ev", scope: !46, file: !47, line: 79, type: !50, scopeLine: 79, flags: DIFlagPrototyped, spFlags: DISPFlagDefinition, unit: !0, declaration: !49, retainedNodes: !2)
!1011 = !DILocalVariable(name: "this", arg: 1, scope: !1010, type: !1012, flags: DIFlagArtificial | DIFlagObjectPointer)
!1012 = !DIDerivedType(tag: DW_TAG_pointer_type, baseType: !46, size: 64)
!1013 = !DILocation(line: 0, scope: !1010)
!1014 = !DILocation(line: 79, column: 47, scope: !1010)
!1015 = distinct !DISubprogram(name: "~new_allocator", linkageName: "_ZN9__gnu_cxx13new_allocatorIiED2Ev", scope: !46, file: !47, line: 89, type: !50, scopeLine: 89, flags: DIFlagPrototyped, spFlags: DISPFlagDefinition, unit: !0, declaration: !58, retainedNodes: !2)
!1016 = !DILocalVariable(name: "this", arg: 1, scope: !1015, type: !1012, flags: DIFlagArtificial | DIFlagObjectPointer)
!1017 = !DILocation(line: 0, scope: !1015)
!1018 = !DILocation(line: 89, column: 48, scope: !1015)
!1019 = distinct !DISubprogram(name: "_Vector_base", linkageName: "_ZNSt12_Vector_baseIiSaIiEEC2ERKS0_", scope: !17, file: !13, line: 293, type: !200, scopeLine: 294, flags: DIFlagPrototyped, spFlags: DISPFlagDefinition, unit: !0, declaration: !199, retainedNodes: !2)
!1020 = !DILocalVariable(name: "this", arg: 1, scope: !1019, type: !1021, flags: DIFlagArtificial | DIFlagObjectPointer)
!1021 = !DIDerivedType(tag: DW_TAG_pointer_type, baseType: !17, size: 64)
!1022 = !DILocation(line: 0, scope: !1019)
!1023 = !DILocalVariable(name: "__a", arg: 2, scope: !1019, file: !13, line: 293, type: !202)
!1024 = !DILocation(line: 293, column: 42, scope: !1019)
!1025 = !DILocation(line: 294, column: 9, scope: !1019)
!1026 = !DILocation(line: 294, column: 17, scope: !1019)
!1027 = !DILocation(line: 294, column: 24, scope: !1019)
!1028 = distinct !DISubprogram(name: "_M_range_initialize<const int *>", linkageName: "_ZNSt6vectorIiSaIiEE19_M_range_initializeIPKiEEvT_S5_St20forward_iterator_tag", scope: !14, file: !13, line: 1577, type: !1029, scopeLine: 1579, flags: DIFlagPrototyped, spFlags: DISPFlagDefinition, unit: !0, templateParams: !1037, declaration: !1036, retainedNodes: !2)
!1029 = !DISubroutineType(types: !1030)
!1030 = !{null, !282, !70, !70, !1031}
!1031 = distinct !DICompositeType(tag: DW_TAG_structure_type, name: "forward_iterator_tag", scope: !10, file: !1032, line: 99, size: 8, flags: DIFlagTypePassByValue, elements: !1033, identifier: "_ZTSSt20forward_iterator_tag")
!1032 = !DIFile(filename: "/usr/bin/../lib/gcc/x86_64-linux-gnu/10/../../../../include/c++/10/bits/stl_iterator_base_types.h", directory: "")
!1033 = !{!1034}
!1034 = !DIDerivedType(tag: DW_TAG_inheritance, scope: !1031, baseType: !1035, extraData: i32 0)
!1035 = distinct !DICompositeType(tag: DW_TAG_structure_type, name: "input_iterator_tag", scope: !10, file: !1032, line: 93, size: 8, flags: DIFlagTypePassByValue, elements: !2, identifier: "_ZTSSt18input_iterator_tag")
!1036 = !DISubprogram(name: "_M_range_initialize<const int *>", linkageName: "_ZNSt6vectorIiSaIiEE19_M_range_initializeIPKiEEvT_S5_St20forward_iterator_tag", scope: !14, file: !13, line: 1577, type: !1029, scopeLine: 1577, flags: DIFlagProtected | DIFlagPrototyped, spFlags: 0, templateParams: !1037)
!1037 = !{!1038}
!1038 = !DITemplateTypeParameter(name: "_ForwardIterator", type: !70)
!1039 = !DILocalVariable(name: "this", arg: 1, scope: !1028, type: !940, flags: DIFlagArtificial | DIFlagObjectPointer)
!1040 = !DILocation(line: 0, scope: !1028)
!1041 = !DILocalVariable(name: "__first", arg: 2, scope: !1028, file: !13, line: 1577, type: !70)
!1042 = !DILocation(line: 1577, column: 39, scope: !1028)
!1043 = !DILocalVariable(name: "__last", arg: 3, scope: !1028, file: !13, line: 1577, type: !70)
!1044 = !DILocation(line: 1577, column: 65, scope: !1028)
!1045 = !DILocalVariable(arg: 4, scope: !1028, file: !13, line: 1578, type: !1031)
!1046 = !DILocation(line: 1578, column: 33, scope: !1028)
!1047 = !DILocalVariable(name: "__n", scope: !1028, file: !13, line: 1580, type: !1048)
!1048 = !DIDerivedType(tag: DW_TAG_const_type, baseType: !292)
!1049 = !DILocation(line: 1580, column: 20, scope: !1028)
!1050 = !DILocation(line: 1580, column: 40, scope: !1028)
!1051 = !DILocation(line: 1580, column: 49, scope: !1028)
!1052 = !DILocation(line: 1580, column: 26, scope: !1028)
!1053 = !DILocation(line: 1582, column: 14, scope: !1028)
!1054 = !DILocation(line: 1582, column: 44, scope: !1028)
!1055 = !DILocation(line: 1582, column: 49, scope: !1028)
!1056 = !DILocation(line: 1582, column: 26, scope: !1028)
!1057 = !DILocation(line: 1581, column: 10, scope: !1028)
!1058 = !DILocation(line: 1581, column: 4, scope: !1028)
!1059 = !DILocation(line: 1581, column: 18, scope: !1028)
!1060 = !DILocation(line: 1582, column: 6, scope: !1028)
!1061 = !DILocation(line: 1583, column: 44, scope: !1028)
!1062 = !DILocation(line: 1583, column: 38, scope: !1028)
!1063 = !DILocation(line: 1583, column: 52, scope: !1028)
!1064 = !DILocation(line: 1583, column: 63, scope: !1028)
!1065 = !DILocation(line: 1583, column: 61, scope: !1028)
!1066 = !DILocation(line: 1583, column: 10, scope: !1028)
!1067 = !DILocation(line: 1583, column: 4, scope: !1028)
!1068 = !DILocation(line: 1583, column: 18, scope: !1028)
!1069 = !DILocation(line: 1583, column: 36, scope: !1028)
!1070 = !DILocation(line: 1585, column: 34, scope: !1028)
!1071 = !DILocation(line: 1585, column: 43, scope: !1028)
!1072 = !DILocation(line: 1586, column: 12, scope: !1028)
!1073 = !DILocation(line: 1586, column: 6, scope: !1028)
!1074 = !DILocation(line: 1586, column: 20, scope: !1028)
!1075 = !DILocation(line: 1587, column: 6, scope: !1028)
!1076 = !DILocation(line: 1585, column: 6, scope: !1028)
!1077 = !DILocation(line: 1584, column: 10, scope: !1028)
!1078 = !DILocation(line: 1584, column: 4, scope: !1028)
!1079 = !DILocation(line: 1584, column: 18, scope: !1028)
!1080 = !DILocation(line: 1584, column: 28, scope: !1028)
!1081 = !DILocation(line: 1588, column: 2, scope: !1028)
!1082 = distinct !DISubprogram(name: "begin", linkageName: "_ZNKSt16initializer_listIiE5beginEv", scope: !323, file: !324, line: 75, type: !344, scopeLine: 75, flags: DIFlagPrototyped, spFlags: DISPFlagDefinition, unit: !0, declaration: !343, retainedNodes: !2)
!1083 = !DILocalVariable(name: "this", arg: 1, scope: !1082, type: !1084, flags: DIFlagArtificial | DIFlagObjectPointer)
!1084 = !DIDerivedType(tag: DW_TAG_pointer_type, baseType: !342, size: 64)
!1085 = !DILocation(line: 0, scope: !1082)
!1086 = !DILocation(line: 75, column: 39, scope: !1082)
!1087 = !DILocation(line: 75, column: 32, scope: !1082)
!1088 = distinct !DISubprogram(name: "end", linkageName: "_ZNKSt16initializer_listIiE3endEv", scope: !323, file: !324, line: 79, type: !344, scopeLine: 79, flags: DIFlagPrototyped, spFlags: DISPFlagDefinition, unit: !0, declaration: !346, retainedNodes: !2)
!1089 = !DILocalVariable(name: "this", arg: 1, scope: !1088, type: !1084, flags: DIFlagArtificial | DIFlagObjectPointer)
!1090 = !DILocation(line: 0, scope: !1088)
!1091 = !DILocation(line: 79, column: 37, scope: !1088)
!1092 = !DILocation(line: 79, column: 47, scope: !1088)
!1093 = !DILocation(line: 79, column: 45, scope: !1088)
!1094 = !DILocation(line: 79, column: 30, scope: !1088)
!1095 = distinct !DISubprogram(name: "~_Vector_base", linkageName: "_ZNSt12_Vector_baseIiSaIiEED2Ev", scope: !17, file: !13, line: 333, type: !197, scopeLine: 334, flags: DIFlagPrototyped, spFlags: DISPFlagDefinition, unit: !0, declaration: !223, retainedNodes: !2)
!1096 = !DILocalVariable(name: "this", arg: 1, scope: !1095, type: !1021, flags: DIFlagArtificial | DIFlagObjectPointer)
!1097 = !DILocation(line: 0, scope: !1095)
!1098 = !DILocation(line: 335, column: 16, scope: !1099)
!1099 = distinct !DILexicalBlock(scope: !1095, file: !13, line: 334, column: 7)
!1100 = !DILocation(line: 335, column: 24, scope: !1099)
!1101 = !DILocation(line: 336, column: 9, scope: !1099)
!1102 = !DILocation(line: 336, column: 17, scope: !1099)
!1103 = !DILocation(line: 336, column: 37, scope: !1099)
!1104 = !DILocation(line: 336, column: 45, scope: !1099)
!1105 = !DILocation(line: 336, column: 35, scope: !1099)
!1106 = !DILocation(line: 335, column: 2, scope: !1099)
!1107 = !DILocation(line: 337, column: 7, scope: !1099)
!1108 = !DILocation(line: 337, column: 7, scope: !1095)
!1109 = distinct !DISubprogram(name: "_Vector_impl", linkageName: "_ZNSt12_Vector_baseIiSaIiEE12_Vector_implC2ERKS0_", scope: !20, file: !13, line: 136, type: !167, scopeLine: 138, flags: DIFlagPrototyped, spFlags: DISPFlagDefinition, unit: !0, declaration: !166, retainedNodes: !2)
!1110 = !DILocalVariable(name: "this", arg: 1, scope: !1109, type: !1111, flags: DIFlagArtificial | DIFlagObjectPointer)
!1111 = !DIDerivedType(tag: DW_TAG_pointer_type, baseType: !20, size: 64)
!1112 = !DILocation(line: 0, scope: !1109)
!1113 = !DILocalVariable(name: "__a", arg: 2, scope: !1109, file: !13, line: 136, type: !169)
!1114 = !DILocation(line: 136, column: 37, scope: !1109)
!1115 = !DILocation(line: 138, column: 2, scope: !1109)
!1116 = !DILocation(line: 137, column: 19, scope: !1109)
!1117 = !DILocation(line: 137, column: 4, scope: !1109)
!1118 = !DILocation(line: 136, column: 2, scope: !1109)
!1119 = !DILocation(line: 138, column: 4, scope: !1109)
!1120 = distinct !DISubprogram(name: "_Vector_impl_data", linkageName: "_ZNSt12_Vector_baseIiSaIiEE17_Vector_impl_dataC2Ev", scope: !138, file: !13, line: 97, type: !146, scopeLine: 99, flags: DIFlagPrototyped, spFlags: DISPFlagDefinition, unit: !0, declaration: !145, retainedNodes: !2)
!1121 = !DILocalVariable(name: "this", arg: 1, scope: !1120, type: !1122, flags: DIFlagArtificial | DIFlagObjectPointer)
!1122 = !DIDerivedType(tag: DW_TAG_pointer_type, baseType: !138, size: 64)
!1123 = !DILocation(line: 0, scope: !1120)
!1124 = !DILocation(line: 98, column: 4, scope: !1120)
!1125 = !DILocation(line: 98, column: 16, scope: !1120)
!1126 = !DILocation(line: 98, column: 29, scope: !1120)
!1127 = !DILocation(line: 99, column: 4, scope: !1120)
!1128 = distinct !DISubprogram(name: "new_allocator", linkageName: "_ZN9__gnu_cxx13new_allocatorIiEC2ERKS1_", scope: !46, file: !47, line: 82, type: !54, scopeLine: 82, flags: DIFlagPrototyped, spFlags: DISPFlagDefinition, unit: !0, declaration: !53, retainedNodes: !2)
!1129 = !DILocalVariable(name: "this", arg: 1, scope: !1128, type: !1012, flags: DIFlagArtificial | DIFlagObjectPointer)
!1130 = !DILocation(line: 0, scope: !1128)
!1131 = !DILocalVariable(arg: 2, scope: !1128, file: !47, line: 82, type: !56)
!1132 = !DILocation(line: 82, column: 41, scope: !1128)
!1133 = !DILocation(line: 82, column: 67, scope: !1128)
!1134 = distinct !DISubprogram(name: "distance<const int *>", linkageName: "_ZSt8distanceIPKiENSt15iterator_traitsIT_E15difference_typeES3_S3_", scope: !10, file: !1135, line: 138, type: !1136, scopeLine: 139, flags: DIFlagPrototyped, spFlags: DISPFlagDefinition, unit: !0, templateParams: !1143, retainedNodes: !2)
!1135 = !DIFile(filename: "/usr/bin/../lib/gcc/x86_64-linux-gnu/10/../../../../include/c++/10/bits/stl_iterator_base_funcs.h", directory: "")
!1136 = !DISubroutineType(types: !1137)
!1137 = !{!1138, !70, !70}
!1138 = !DIDerivedType(tag: DW_TAG_typedef, name: "difference_type", scope: !1139, file: !1032, line: 225, baseType: !1142)
!1139 = distinct !DICompositeType(tag: DW_TAG_structure_type, name: "iterator_traits<const int *>", scope: !10, file: !1032, line: 221, size: 8, flags: DIFlagTypePassByValue, elements: !2, templateParams: !1140, identifier: "_ZTSSt15iterator_traitsIPKiE")
!1140 = !{!1141}
!1141 = !DITemplateTypeParameter(name: "_Iterator", type: !70)
!1142 = !DIDerivedType(tag: DW_TAG_typedef, name: "ptrdiff_t", scope: !10, file: !9, line: 261, baseType: !595)
!1143 = !{!1144}
!1144 = !DITemplateTypeParameter(name: "_InputIterator", type: !70)
!1145 = !DILocalVariable(name: "__first", arg: 1, scope: !1134, file: !1135, line: 138, type: !70)
!1146 = !DILocation(line: 138, column: 29, scope: !1134)
!1147 = !DILocalVariable(name: "__last", arg: 2, scope: !1134, file: !1135, line: 138, type: !70)
!1148 = !DILocation(line: 138, column: 53, scope: !1134)
!1149 = !DILocation(line: 141, column: 30, scope: !1134)
!1150 = !DILocation(line: 141, column: 39, scope: !1134)
!1151 = !DILocation(line: 142, column: 9, scope: !1134)
!1152 = !DILocation(line: 141, column: 14, scope: !1134)
!1153 = !DILocation(line: 141, column: 7, scope: !1134)
!1154 = distinct !DISubprogram(name: "_M_allocate", linkageName: "_ZNSt12_Vector_baseIiSaIiEE11_M_allocateEm", scope: !17, file: !13, line: 343, type: !225, scopeLine: 344, flags: DIFlagPrototyped, spFlags: DISPFlagDefinition, unit: !0, declaration: !224, retainedNodes: !2)
!1155 = !DILocalVariable(name: "this", arg: 1, scope: !1154, type: !1021, flags: DIFlagArtificial | DIFlagObjectPointer)
!1156 = !DILocation(line: 0, scope: !1154)
!1157 = !DILocalVariable(name: "__n", arg: 2, scope: !1154, file: !13, line: 343, type: !8)
!1158 = !DILocation(line: 343, column: 26, scope: !1154)
!1159 = !DILocation(line: 346, column: 9, scope: !1154)
!1160 = !DILocation(line: 346, column: 13, scope: !1154)
!1161 = !DILocation(line: 346, column: 34, scope: !1154)
!1162 = !DILocation(line: 346, column: 43, scope: !1154)
!1163 = !DILocation(line: 346, column: 20, scope: !1154)
!1164 = !DILocation(line: 346, column: 2, scope: !1154)
!1165 = distinct !DISubprogram(name: "_S_check_init_len", linkageName: "_ZNSt6vectorIiSaIiEE17_S_check_init_lenEmRKS0_", scope: !14, file: !13, line: 1767, type: !494, scopeLine: 1768, flags: DIFlagPrototyped, spFlags: DISPFlagDefinition, unit: !0, declaration: !493, retainedNodes: !2)
!1166 = !DILocalVariable(name: "__n", arg: 1, scope: !1165, file: !13, line: 1767, type: !292)
!1167 = !DILocation(line: 1767, column: 35, scope: !1165)
!1168 = !DILocalVariable(name: "__a", arg: 2, scope: !1165, file: !13, line: 1767, type: !286)
!1169 = !DILocation(line: 1767, column: 62, scope: !1165)
!1170 = !DILocation(line: 1769, column: 6, scope: !1171)
!1171 = distinct !DILexicalBlock(scope: !1165, file: !13, line: 1769, column: 6)
!1172 = !DILocation(line: 1769, column: 39, scope: !1171)
!1173 = !DILocation(line: 1769, column: 24, scope: !1171)
!1174 = !DILocation(line: 1769, column: 12, scope: !1171)
!1175 = !DILocation(line: 1769, column: 10, scope: !1171)
!1176 = !DILocation(line: 1769, column: 6, scope: !1165)
!1177 = !DILocation(line: 1770, column: 4, scope: !1171)
!1178 = !DILocation(line: 1772, column: 9, scope: !1165)
!1179 = !DILocation(line: 1772, column: 2, scope: !1165)
!1180 = distinct !DISubprogram(name: "_M_get_Tp_allocator", linkageName: "_ZNSt12_Vector_baseIiSaIiEE19_M_get_Tp_allocatorEv", scope: !17, file: !13, line: 276, type: !183, scopeLine: 277, flags: DIFlagPrototyped, spFlags: DISPFlagDefinition, unit: !0, declaration: !182, retainedNodes: !2)
!1181 = !DILocalVariable(name: "this", arg: 1, scope: !1180, type: !1021, flags: DIFlagArtificial | DIFlagObjectPointer)
!1182 = !DILocation(line: 0, scope: !1180)
!1183 = !DILocation(line: 277, column: 22, scope: !1180)
!1184 = !DILocation(line: 277, column: 16, scope: !1180)
!1185 = !DILocation(line: 277, column: 9, scope: !1180)
!1186 = distinct !DISubprogram(name: "__uninitialized_copy_a<const int *, int *, int>", linkageName: "_ZSt22__uninitialized_copy_aIPKiPiiET0_T_S4_S3_RSaIT1_E", scope: !10, file: !1187, line: 323, type: !1188, scopeLine: 325, flags: DIFlagPrototyped, spFlags: DISPFlagDefinition, unit: !0, templateParams: !1190, retainedNodes: !2)
!1187 = !DIFile(filename: "/usr/bin/../lib/gcc/x86_64-linux-gnu/10/../../../../include/c++/10/bits/stl_uninitialized.h", directory: "")
!1188 = !DISubroutineType(types: !1189)
!1189 = !{!4, !70, !70, !4, !99}
!1190 = !{!1144, !1191, !86}
!1191 = !DITemplateTypeParameter(name: "_ForwardIterator", type: !4)
!1192 = !DILocalVariable(name: "__first", arg: 1, scope: !1186, file: !1187, line: 323, type: !70)
!1193 = !DILocation(line: 323, column: 43, scope: !1186)
!1194 = !DILocalVariable(name: "__last", arg: 2, scope: !1186, file: !1187, line: 323, type: !70)
!1195 = !DILocation(line: 323, column: 67, scope: !1186)
!1196 = !DILocalVariable(name: "__result", arg: 3, scope: !1186, file: !1187, line: 324, type: !4)
!1197 = !DILocation(line: 324, column: 24, scope: !1186)
!1198 = !DILocalVariable(arg: 4, scope: !1186, file: !1187, line: 324, type: !99)
!1199 = !DILocation(line: 324, column: 49, scope: !1186)
!1200 = !DILocation(line: 325, column: 38, scope: !1186)
!1201 = !DILocation(line: 325, column: 47, scope: !1186)
!1202 = !DILocation(line: 325, column: 55, scope: !1186)
!1203 = !DILocation(line: 325, column: 14, scope: !1186)
!1204 = !DILocation(line: 325, column: 7, scope: !1186)
!1205 = distinct !DISubprogram(name: "__distance<const int *>", linkageName: "_ZSt10__distanceIPKiENSt15iterator_traitsIT_E15difference_typeES3_S3_St26random_access_iterator_tag", scope: !10, file: !1135, line: 98, type: !1206, scopeLine: 100, flags: DIFlagPrototyped, spFlags: DISPFlagDefinition, unit: !0, templateParams: !1214, retainedNodes: !2)
!1206 = !DISubroutineType(types: !1207)
!1207 = !{!1138, !70, !70, !1208}
!1208 = distinct !DICompositeType(tag: DW_TAG_structure_type, name: "random_access_iterator_tag", scope: !10, file: !1032, line: 107, size: 8, flags: DIFlagTypePassByValue, elements: !1209, identifier: "_ZTSSt26random_access_iterator_tag")
!1209 = !{!1210}
!1210 = !DIDerivedType(tag: DW_TAG_inheritance, scope: !1208, baseType: !1211, extraData: i32 0)
!1211 = distinct !DICompositeType(tag: DW_TAG_structure_type, name: "bidirectional_iterator_tag", scope: !10, file: !1032, line: 103, size: 8, flags: DIFlagTypePassByValue, elements: !1212, identifier: "_ZTSSt26bidirectional_iterator_tag")
!1212 = !{!1213}
!1213 = !DIDerivedType(tag: DW_TAG_inheritance, scope: !1211, baseType: !1031, extraData: i32 0)
!1214 = !{!1215}
!1215 = !DITemplateTypeParameter(name: "_RandomAccessIterator", type: !70)
!1216 = !DILocalVariable(name: "__first", arg: 1, scope: !1205, file: !1135, line: 98, type: !70)
!1217 = !DILocation(line: 98, column: 38, scope: !1205)
!1218 = !DILocalVariable(name: "__last", arg: 2, scope: !1205, file: !1135, line: 98, type: !70)
!1219 = !DILocation(line: 98, column: 69, scope: !1205)
!1220 = !DILocalVariable(arg: 3, scope: !1205, file: !1135, line: 99, type: !1208)
!1221 = !DILocation(line: 99, column: 42, scope: !1205)
!1222 = !DILocation(line: 104, column: 14, scope: !1205)
!1223 = !DILocation(line: 104, column: 23, scope: !1205)
!1224 = !DILocation(line: 104, column: 21, scope: !1205)
!1225 = !DILocation(line: 104, column: 7, scope: !1205)
!1226 = distinct !DISubprogram(name: "__iterator_category<const int *>", linkageName: "_ZSt19__iterator_categoryIPKiENSt15iterator_traitsIT_E17iterator_categoryERKS3_", scope: !10, file: !1032, line: 238, type: !1227, scopeLine: 239, flags: DIFlagPrototyped, spFlags: DISPFlagDefinition, unit: !0, templateParams: !1232, retainedNodes: !2)
!1227 = !DISubroutineType(types: !1228)
!1228 = !{!1229, !1230}
!1229 = !DIDerivedType(tag: DW_TAG_typedef, name: "iterator_category", scope: !1139, file: !1032, line: 223, baseType: !1208)
!1230 = !DIDerivedType(tag: DW_TAG_reference_type, baseType: !1231, size: 64)
!1231 = !DIDerivedType(tag: DW_TAG_const_type, baseType: !70)
!1232 = !{!1233}
!1233 = !DITemplateTypeParameter(name: "_Iter", type: !70)
!1234 = !DILocalVariable(arg: 1, scope: !1226, file: !1032, line: 238, type: !1230)
!1235 = !DILocation(line: 238, column: 37, scope: !1226)
!1236 = !DILocation(line: 239, column: 7, scope: !1226)
!1237 = distinct !DISubprogram(name: "allocate", linkageName: "_ZNSt16allocator_traitsISaIiEE8allocateERS0_m", scope: !31, file: !32, line: 459, type: !35, scopeLine: 460, flags: DIFlagPrototyped, spFlags: DISPFlagDefinition, unit: !0, declaration: !34, retainedNodes: !2)
!1238 = !DILocalVariable(name: "__a", arg: 1, scope: !1237, file: !32, line: 459, type: !38)
!1239 = !DILocation(line: 459, column: 32, scope: !1237)
!1240 = !DILocalVariable(name: "__n", arg: 2, scope: !1237, file: !32, line: 459, type: !101)
!1241 = !DILocation(line: 459, column: 47, scope: !1237)
!1242 = !DILocation(line: 460, column: 16, scope: !1237)
!1243 = !DILocation(line: 460, column: 29, scope: !1237)
!1244 = !DILocation(line: 460, column: 20, scope: !1237)
!1245 = !DILocation(line: 460, column: 9, scope: !1237)
!1246 = distinct !DISubprogram(name: "allocate", linkageName: "_ZN9__gnu_cxx13new_allocatorIiE8allocateEmPKv", scope: !46, file: !47, line: 103, type: !75, scopeLine: 104, flags: DIFlagPrototyped, spFlags: DISPFlagDefinition, unit: !0, declaration: !74, retainedNodes: !2)
!1247 = !DILocalVariable(name: "this", arg: 1, scope: !1246, type: !1012, flags: DIFlagArtificial | DIFlagObjectPointer)
!1248 = !DILocation(line: 0, scope: !1246)
!1249 = !DILocalVariable(name: "__n", arg: 2, scope: !1246, file: !47, line: 103, type: !77)
!1250 = !DILocation(line: 103, column: 26, scope: !1246)
!1251 = !DILocalVariable(arg: 3, scope: !1246, file: !47, line: 103, type: !6)
!1252 = !DILocation(line: 103, column: 43, scope: !1246)
!1253 = !DILocation(line: 105, column: 6, scope: !1254)
!1254 = distinct !DILexicalBlock(scope: !1246, file: !47, line: 105, column: 6)
!1255 = !DILocation(line: 105, column: 18, scope: !1254)
!1256 = !DILocation(line: 105, column: 10, scope: !1254)
!1257 = !DILocation(line: 105, column: 6, scope: !1246)
!1258 = !DILocation(line: 106, column: 4, scope: !1254)
!1259 = !DILocation(line: 115, column: 42, scope: !1246)
!1260 = !DILocation(line: 115, column: 46, scope: !1246)
!1261 = !DILocation(line: 115, column: 27, scope: !1246)
!1262 = !DILocation(line: 115, column: 9, scope: !1246)
!1263 = !DILocation(line: 115, column: 2, scope: !1246)
!1264 = distinct !DISubprogram(name: "_M_max_size", linkageName: "_ZNK9__gnu_cxx13new_allocatorIiE11_M_max_sizeEv", scope: !46, file: !47, line: 185, type: !82, scopeLine: 186, flags: DIFlagPrototyped, spFlags: DISPFlagDefinition, unit: !0, declaration: !84, retainedNodes: !2)
!1265 = !DILocalVariable(name: "this", arg: 1, scope: !1264, type: !1266, flags: DIFlagArtificial | DIFlagObjectPointer)
!1266 = !DIDerivedType(tag: DW_TAG_pointer_type, baseType: !57, size: 64)
!1267 = !DILocation(line: 0, scope: !1264)
!1268 = !DILocation(line: 188, column: 2, scope: !1264)
!1269 = distinct !DISubprogram(name: "_S_max_size", linkageName: "_ZNSt6vectorIiSaIiEE11_S_max_sizeERKS0_", scope: !14, file: !13, line: 1776, type: !497, scopeLine: 1777, flags: DIFlagPrototyped, spFlags: DISPFlagDefinition, unit: !0, declaration: !496, retainedNodes: !2)
!1270 = !DILocalVariable(name: "__a", arg: 1, scope: !1269, file: !13, line: 1776, type: !499)
!1271 = !DILocation(line: 1776, column: 41, scope: !1269)
!1272 = !DILocalVariable(name: "__diffmax", scope: !1269, file: !13, line: 1781, type: !1273)
!1273 = !DIDerivedType(tag: DW_TAG_const_type, baseType: !8)
!1274 = !DILocation(line: 1781, column: 15, scope: !1269)
!1275 = !DILocalVariable(name: "__allocmax", scope: !1269, file: !13, line: 1783, type: !1273)
!1276 = !DILocation(line: 1783, column: 15, scope: !1269)
!1277 = !DILocation(line: 1783, column: 52, scope: !1269)
!1278 = !DILocation(line: 1783, column: 28, scope: !1269)
!1279 = !DILocation(line: 1784, column: 9, scope: !1269)
!1280 = !DILocation(line: 1784, column: 2, scope: !1269)
!1281 = distinct !DISubprogram(name: "allocator", linkageName: "_ZNSaIiEC2ERKS_", scope: !40, file: !41, line: 147, type: !92, scopeLine: 148, flags: DIFlagPrototyped, spFlags: DISPFlagDefinition, unit: !0, declaration: !91, retainedNodes: !2)
!1282 = !DILocalVariable(name: "this", arg: 1, scope: !1281, type: !933, flags: DIFlagArtificial | DIFlagObjectPointer)
!1283 = !DILocation(line: 0, scope: !1281)
!1284 = !DILocalVariable(name: "__a", arg: 2, scope: !1281, file: !41, line: 147, type: !94)
!1285 = !DILocation(line: 147, column: 34, scope: !1281)
!1286 = !DILocation(line: 148, column: 36, scope: !1281)
!1287 = !DILocation(line: 148, column: 31, scope: !1281)
!1288 = !DILocation(line: 148, column: 9, scope: !1281)
!1289 = !DILocation(line: 148, column: 38, scope: !1281)
!1290 = distinct !DISubprogram(name: "max_size", linkageName: "_ZNSt16allocator_traitsISaIiEE8max_sizeERKS0_", scope: !31, file: !32, line: 543, type: !110, scopeLine: 544, flags: DIFlagPrototyped, spFlags: DISPFlagDefinition, unit: !0, declaration: !109, retainedNodes: !2)
!1291 = !DILocalVariable(name: "__a", arg: 1, scope: !1290, file: !32, line: 543, type: !113)
!1292 = !DILocation(line: 543, column: 38, scope: !1290)
!1293 = !DILocation(line: 546, column: 9, scope: !1290)
!1294 = !DILocation(line: 546, column: 13, scope: !1290)
!1295 = !DILocation(line: 546, column: 2, scope: !1290)
!1296 = distinct !DISubprogram(name: "min<unsigned long>", linkageName: "_ZSt3minImERKT_S2_S2_", scope: !10, file: !977, line: 230, type: !1297, scopeLine: 231, flags: DIFlagPrototyped, spFlags: DISPFlagDefinition, unit: !0, templateParams: !1301, retainedNodes: !2)
!1297 = !DISubroutineType(types: !1298)
!1298 = !{!1299, !1299, !1299}
!1299 = !DIDerivedType(tag: DW_TAG_reference_type, baseType: !1300, size: 64)
!1300 = !DIDerivedType(tag: DW_TAG_const_type, baseType: !11)
!1301 = !{!1302}
!1302 = !DITemplateTypeParameter(name: "_Tp", type: !11)
!1303 = !DILocalVariable(name: "__a", arg: 1, scope: !1296, file: !977, line: 230, type: !1299)
!1304 = !DILocation(line: 230, column: 20, scope: !1296)
!1305 = !DILocalVariable(name: "__b", arg: 2, scope: !1296, file: !977, line: 230, type: !1299)
!1306 = !DILocation(line: 230, column: 36, scope: !1296)
!1307 = !DILocation(line: 235, column: 11, scope: !1308)
!1308 = distinct !DILexicalBlock(scope: !1296, file: !977, line: 235, column: 11)
!1309 = !DILocation(line: 235, column: 17, scope: !1308)
!1310 = !DILocation(line: 235, column: 15, scope: !1308)
!1311 = !DILocation(line: 235, column: 11, scope: !1296)
!1312 = !DILocation(line: 236, column: 9, scope: !1308)
!1313 = !DILocation(line: 236, column: 2, scope: !1308)
!1314 = !DILocation(line: 237, column: 14, scope: !1296)
!1315 = !DILocation(line: 237, column: 7, scope: !1296)
!1316 = !DILocation(line: 238, column: 5, scope: !1296)
!1317 = distinct !DISubprogram(name: "max_size", linkageName: "_ZNK9__gnu_cxx13new_allocatorIiE8max_sizeEv", scope: !46, file: !47, line: 142, type: !82, scopeLine: 143, flags: DIFlagPrototyped, spFlags: DISPFlagDefinition, unit: !0, declaration: !81, retainedNodes: !2)
!1318 = !DILocalVariable(name: "this", arg: 1, scope: !1317, type: !1266, flags: DIFlagArtificial | DIFlagObjectPointer)
!1319 = !DILocation(line: 0, scope: !1317)
!1320 = !DILocation(line: 143, column: 16, scope: !1317)
!1321 = !DILocation(line: 143, column: 9, scope: !1317)
!1322 = distinct !DISubprogram(name: "uninitialized_copy<const int *, int *>", linkageName: "_ZSt18uninitialized_copyIPKiPiET0_T_S4_S3_", scope: !10, file: !1187, line: 125, type: !1323, scopeLine: 127, flags: DIFlagPrototyped, spFlags: DISPFlagDefinition, unit: !0, templateParams: !1325, retainedNodes: !2)
!1323 = !DISubroutineType(types: !1324)
!1324 = !{!4, !70, !70, !4}
!1325 = !{!1144, !1191}
!1326 = !DILocalVariable(name: "__first", arg: 1, scope: !1322, file: !1187, line: 125, type: !70)
!1327 = !DILocation(line: 125, column: 39, scope: !1322)
!1328 = !DILocalVariable(name: "__last", arg: 2, scope: !1322, file: !1187, line: 125, type: !70)
!1329 = !DILocation(line: 125, column: 63, scope: !1322)
!1330 = !DILocalVariable(name: "__result", arg: 3, scope: !1322, file: !1187, line: 126, type: !4)
!1331 = !DILocation(line: 126, column: 27, scope: !1322)
!1332 = !DILocalVariable(name: "__assignable", scope: !1322, file: !1187, line: 144, type: !240)
!1333 = !DILocation(line: 144, column: 18, scope: !1322)
!1334 = !DILocation(line: 150, column: 16, scope: !1322)
!1335 = !DILocation(line: 150, column: 25, scope: !1322)
!1336 = !DILocation(line: 150, column: 33, scope: !1322)
!1337 = !DILocation(line: 147, column: 14, scope: !1322)
!1338 = !DILocation(line: 147, column: 7, scope: !1322)
!1339 = distinct !DISubprogram(name: "__uninit_copy<const int *, int *>", linkageName: "_ZNSt20__uninitialized_copyILb1EE13__uninit_copyIPKiPiEET0_T_S6_S5_", scope: !1340, file: !1187, line: 107, type: !1323, scopeLine: 109, flags: DIFlagPrototyped, spFlags: DISPFlagDefinition, unit: !0, templateParams: !1325, declaration: !1343, retainedNodes: !2)
!1340 = distinct !DICompositeType(tag: DW_TAG_structure_type, name: "__uninitialized_copy<true>", scope: !10, file: !1187, line: 103, size: 8, flags: DIFlagTypePassByValue, elements: !2, templateParams: !1341, identifier: "_ZTSSt20__uninitialized_copyILb1EE")
!1341 = !{!1342}
!1342 = !DITemplateValueParameter(name: "_TrivialValueTypes", type: !129, value: i1 true)
!1343 = !DISubprogram(name: "__uninit_copy<const int *, int *>", linkageName: "_ZNSt20__uninitialized_copyILb1EE13__uninit_copyIPKiPiEET0_T_S6_S5_", scope: !1340, file: !1187, line: 107, type: !1323, scopeLine: 107, flags: DIFlagPrototyped | DIFlagStaticMember, spFlags: 0, templateParams: !1325)
!1344 = !DILocalVariable(name: "__first", arg: 1, scope: !1339, file: !1187, line: 107, type: !70)
!1345 = !DILocation(line: 107, column: 38, scope: !1339)
!1346 = !DILocalVariable(name: "__last", arg: 2, scope: !1339, file: !1187, line: 107, type: !70)
!1347 = !DILocation(line: 107, column: 62, scope: !1339)
!1348 = !DILocalVariable(name: "__result", arg: 3, scope: !1339, file: !1187, line: 108, type: !4)
!1349 = !DILocation(line: 108, column: 26, scope: !1339)
!1350 = !DILocation(line: 109, column: 28, scope: !1339)
!1351 = !DILocation(line: 109, column: 37, scope: !1339)
!1352 = !DILocation(line: 109, column: 45, scope: !1339)
!1353 = !DILocation(line: 109, column: 18, scope: !1339)
!1354 = !DILocation(line: 109, column: 11, scope: !1339)
!1355 = distinct !DISubprogram(name: "copy<const int *, int *>", linkageName: "_ZSt4copyIPKiPiET0_T_S4_S3_", scope: !10, file: !977, line: 560, type: !1323, scopeLine: 561, flags: DIFlagPrototyped, spFlags: DISPFlagDefinition, unit: !0, templateParams: !1356, retainedNodes: !2)
!1356 = !{!1357, !1358}
!1357 = !DITemplateTypeParameter(name: "_II", type: !70)
!1358 = !DITemplateTypeParameter(name: "_OI", type: !4)
!1359 = !DILocalVariable(name: "__first", arg: 1, scope: !1355, file: !977, line: 560, type: !70)
!1360 = !DILocation(line: 560, column: 14, scope: !1355)
!1361 = !DILocalVariable(name: "__last", arg: 2, scope: !1355, file: !977, line: 560, type: !70)
!1362 = !DILocation(line: 560, column: 27, scope: !1355)
!1363 = !DILocalVariable(name: "__result", arg: 3, scope: !1355, file: !977, line: 560, type: !4)
!1364 = !DILocation(line: 560, column: 39, scope: !1355)
!1365 = !DILocation(line: 569, column: 26, scope: !1355)
!1366 = !DILocation(line: 569, column: 8, scope: !1355)
!1367 = !DILocation(line: 569, column: 54, scope: !1355)
!1368 = !DILocation(line: 569, column: 36, scope: !1355)
!1369 = !DILocation(line: 569, column: 63, scope: !1355)
!1370 = !DILocation(line: 568, column: 14, scope: !1355)
!1371 = !DILocation(line: 568, column: 7, scope: !1355)
!1372 = distinct !DISubprogram(name: "__copy_move_a<false, const int *, int *>", linkageName: "_ZSt13__copy_move_aILb0EPKiPiET1_T0_S4_S3_", scope: !10, file: !977, line: 511, type: !1323, scopeLine: 512, flags: DIFlagPrototyped, spFlags: DISPFlagDefinition, unit: !0, templateParams: !1373, retainedNodes: !2)
!1373 = !{!1374, !1357, !1358}
!1374 = !DITemplateValueParameter(name: "_IsMove", type: !129, value: i1 false)
!1375 = !DILocalVariable(name: "__first", arg: 1, scope: !1372, file: !977, line: 511, type: !70)
!1376 = !DILocation(line: 511, column: 23, scope: !1372)
!1377 = !DILocalVariable(name: "__last", arg: 2, scope: !1372, file: !977, line: 511, type: !70)
!1378 = !DILocation(line: 511, column: 36, scope: !1372)
!1379 = !DILocalVariable(name: "__result", arg: 3, scope: !1372, file: !977, line: 511, type: !4)
!1380 = !DILocation(line: 511, column: 48, scope: !1372)
!1381 = !DILocation(line: 514, column: 50, scope: !1372)
!1382 = !DILocation(line: 514, column: 32, scope: !1372)
!1383 = !DILocation(line: 515, column: 29, scope: !1372)
!1384 = !DILocation(line: 515, column: 11, scope: !1372)
!1385 = !DILocation(line: 516, column: 29, scope: !1372)
!1386 = !DILocation(line: 516, column: 11, scope: !1372)
!1387 = !DILocation(line: 514, column: 3, scope: !1372)
!1388 = !DILocation(line: 513, column: 14, scope: !1372)
!1389 = !DILocation(line: 513, column: 7, scope: !1372)
!1390 = distinct !DISubprogram(name: "__miter_base<const int *>", linkageName: "_ZSt12__miter_baseIPKiET_S2_", scope: !10, file: !1391, line: 500, type: !1392, scopeLine: 501, flags: DIFlagPrototyped, spFlags: DISPFlagDefinition, unit: !0, templateParams: !1140, retainedNodes: !2)
!1391 = !DIFile(filename: "/usr/bin/../lib/gcc/x86_64-linux-gnu/10/../../../../include/c++/10/bits/cpp_type_traits.h", directory: "")
!1392 = !DISubroutineType(types: !1393)
!1393 = !{!70, !70}
!1394 = !DILocalVariable(name: "__it", arg: 1, scope: !1390, file: !1391, line: 500, type: !70)
!1395 = !DILocation(line: 500, column: 28, scope: !1390)
!1396 = !DILocation(line: 501, column: 14, scope: !1390)
!1397 = !DILocation(line: 501, column: 7, scope: !1390)
!1398 = distinct !DISubprogram(name: "__niter_wrap<int *>", linkageName: "_ZSt12__niter_wrapIPiET_RKS1_S1_", scope: !10, file: !977, line: 330, type: !1399, scopeLine: 331, flags: DIFlagPrototyped, spFlags: DISPFlagDefinition, unit: !0, templateParams: !1403, retainedNodes: !2)
!1399 = !DISubroutineType(types: !1400)
!1400 = !{!4, !1401, !4}
!1401 = !DIDerivedType(tag: DW_TAG_reference_type, baseType: !1402, size: 64)
!1402 = !DIDerivedType(tag: DW_TAG_const_type, baseType: !4)
!1403 = !{!1404}
!1404 = !DITemplateTypeParameter(name: "_Iterator", type: !4)
!1405 = !DILocalVariable(arg: 1, scope: !1398, file: !977, line: 330, type: !1401)
!1406 = !DILocation(line: 330, column: 34, scope: !1398)
!1407 = !DILocalVariable(name: "__res", arg: 2, scope: !1398, file: !977, line: 330, type: !4)
!1408 = !DILocation(line: 330, column: 46, scope: !1398)
!1409 = !DILocation(line: 331, column: 14, scope: !1398)
!1410 = !DILocation(line: 331, column: 7, scope: !1398)
!1411 = distinct !DISubprogram(name: "__copy_move_a1<false, const int *, int *>", linkageName: "_ZSt14__copy_move_a1ILb0EPKiPiET1_T0_S4_S3_", scope: !10, file: !977, line: 505, type: !1323, scopeLine: 506, flags: DIFlagPrototyped, spFlags: DISPFlagDefinition, unit: !0, templateParams: !1373, retainedNodes: !2)
!1412 = !DILocalVariable(name: "__first", arg: 1, scope: !1411, file: !977, line: 505, type: !70)
!1413 = !DILocation(line: 505, column: 24, scope: !1411)
!1414 = !DILocalVariable(name: "__last", arg: 2, scope: !1411, file: !977, line: 505, type: !70)
!1415 = !DILocation(line: 505, column: 37, scope: !1411)
!1416 = !DILocalVariable(name: "__result", arg: 3, scope: !1411, file: !977, line: 505, type: !4)
!1417 = !DILocation(line: 505, column: 49, scope: !1411)
!1418 = !DILocation(line: 506, column: 43, scope: !1411)
!1419 = !DILocation(line: 506, column: 52, scope: !1411)
!1420 = !DILocation(line: 506, column: 60, scope: !1411)
!1421 = !DILocation(line: 506, column: 14, scope: !1411)
!1422 = !DILocation(line: 506, column: 7, scope: !1411)
!1423 = distinct !DISubprogram(name: "__niter_base<const int *>", linkageName: "_ZSt12__niter_baseIPKiET_S2_", scope: !10, file: !977, line: 313, type: !1392, scopeLine: 315, flags: DIFlagPrototyped, spFlags: DISPFlagDefinition, unit: !0, templateParams: !1140, retainedNodes: !2)
!1424 = !DILocalVariable(name: "__it", arg: 1, scope: !1423, file: !977, line: 313, type: !70)
!1425 = !DILocation(line: 313, column: 28, scope: !1423)
!1426 = !DILocation(line: 315, column: 14, scope: !1423)
!1427 = !DILocation(line: 315, column: 7, scope: !1423)
!1428 = distinct !DISubprogram(name: "__niter_base<int *>", linkageName: "_ZSt12__niter_baseIPiET_S1_", scope: !10, file: !977, line: 313, type: !1429, scopeLine: 315, flags: DIFlagPrototyped, spFlags: DISPFlagDefinition, unit: !0, templateParams: !1403, retainedNodes: !2)
!1429 = !DISubroutineType(types: !1430)
!1430 = !{!4, !4}
!1431 = !DILocalVariable(name: "__it", arg: 1, scope: !1428, file: !977, line: 313, type: !4)
!1432 = !DILocation(line: 313, column: 28, scope: !1428)
!1433 = !DILocation(line: 315, column: 14, scope: !1428)
!1434 = !DILocation(line: 315, column: 7, scope: !1428)
!1435 = distinct !DISubprogram(name: "__copy_move_a2<false, const int *, int *>", linkageName: "_ZSt14__copy_move_a2ILb0EPKiPiET1_T0_S4_S3_", scope: !10, file: !977, line: 463, type: !1323, scopeLine: 464, flags: DIFlagPrototyped, spFlags: DISPFlagDefinition, unit: !0, templateParams: !1373, retainedNodes: !2)
!1436 = !DILocalVariable(name: "__first", arg: 1, scope: !1435, file: !977, line: 463, type: !70)
!1437 = !DILocation(line: 463, column: 24, scope: !1435)
!1438 = !DILocalVariable(name: "__last", arg: 2, scope: !1435, file: !977, line: 463, type: !70)
!1439 = !DILocation(line: 463, column: 37, scope: !1435)
!1440 = !DILocalVariable(name: "__result", arg: 3, scope: !1435, file: !977, line: 463, type: !4)
!1441 = !DILocation(line: 463, column: 49, scope: !1435)
!1442 = !DILocation(line: 472, column: 31, scope: !1435)
!1443 = !DILocation(line: 472, column: 40, scope: !1435)
!1444 = !DILocation(line: 472, column: 48, scope: !1435)
!1445 = !DILocation(line: 471, column: 14, scope: !1435)
!1446 = !DILocation(line: 471, column: 7, scope: !1435)
!1447 = distinct !DISubprogram(name: "__copy_m<int>", linkageName: "_ZNSt11__copy_moveILb0ELb1ESt26random_access_iterator_tagE8__copy_mIiEEPT_PKS3_S6_S4_", scope: !1448, file: !977, line: 415, type: !1323, scopeLine: 416, flags: DIFlagPrototyped, spFlags: DISPFlagDefinition, unit: !0, templateParams: !85, declaration: !1452, retainedNodes: !2)
!1448 = distinct !DICompositeType(tag: DW_TAG_structure_type, name: "__copy_move<false, true, std::random_access_iterator_tag>", scope: !10, file: !977, line: 410, size: 8, flags: DIFlagTypePassByValue, elements: !2, templateParams: !1449, identifier: "_ZTSSt11__copy_moveILb0ELb1ESt26random_access_iterator_tagE")
!1449 = !{!1374, !1450, !1451}
!1450 = !DITemplateValueParameter(name: "_IsSimple", type: !129, value: i1 true)
!1451 = !DITemplateTypeParameter(name: "_Category", type: !1208)
!1452 = !DISubprogram(name: "__copy_m<int>", linkageName: "_ZNSt11__copy_moveILb0ELb1ESt26random_access_iterator_tagE8__copy_mIiEEPT_PKS3_S6_S4_", scope: !1448, file: !977, line: 415, type: !1323, scopeLine: 415, flags: DIFlagPrototyped | DIFlagStaticMember, spFlags: 0, templateParams: !85)
!1453 = !DILocalVariable(name: "__first", arg: 1, scope: !1447, file: !977, line: 415, type: !70)
!1454 = !DILocation(line: 415, column: 22, scope: !1447)
!1455 = !DILocalVariable(name: "__last", arg: 2, scope: !1447, file: !977, line: 415, type: !70)
!1456 = !DILocation(line: 415, column: 42, scope: !1447)
!1457 = !DILocalVariable(name: "__result", arg: 3, scope: !1447, file: !977, line: 415, type: !4)
!1458 = !DILocation(line: 415, column: 55, scope: !1447)
!1459 = !DILocalVariable(name: "_Num", scope: !1447, file: !977, line: 424, type: !1460)
!1460 = !DIDerivedType(tag: DW_TAG_const_type, baseType: !1142)
!1461 = !DILocation(line: 424, column: 20, scope: !1447)
!1462 = !DILocation(line: 424, column: 27, scope: !1447)
!1463 = !DILocation(line: 424, column: 36, scope: !1447)
!1464 = !DILocation(line: 424, column: 34, scope: !1447)
!1465 = !DILocation(line: 425, column: 8, scope: !1466)
!1466 = distinct !DILexicalBlock(scope: !1447, file: !977, line: 425, column: 8)
!1467 = !DILocation(line: 425, column: 8, scope: !1447)
!1468 = !DILocation(line: 426, column: 24, scope: !1466)
!1469 = !DILocation(line: 426, column: 6, scope: !1466)
!1470 = !DILocation(line: 426, column: 34, scope: !1466)
!1471 = !DILocation(line: 426, column: 57, scope: !1466)
!1472 = !DILocation(line: 426, column: 55, scope: !1466)
!1473 = !DILocation(line: 427, column: 11, scope: !1447)
!1474 = !DILocation(line: 427, column: 22, scope: !1447)
!1475 = !DILocation(line: 427, column: 20, scope: !1447)
!1476 = !DILocation(line: 427, column: 4, scope: !1447)
!1477 = distinct !DISubprogram(name: "size", linkageName: "_ZNKSt16initializer_listIiE4sizeEv", scope: !323, file: !324, line: 71, type: !339, scopeLine: 71, flags: DIFlagPrototyped, spFlags: DISPFlagDefinition, unit: !0, declaration: !338, retainedNodes: !2)
!1478 = !DILocalVariable(name: "this", arg: 1, scope: !1477, type: !1084, flags: DIFlagArtificial | DIFlagObjectPointer)
!1479 = !DILocation(line: 0, scope: !1477)
!1480 = !DILocation(line: 71, column: 38, scope: !1477)
!1481 = !DILocation(line: 71, column: 31, scope: !1477)
!1482 = distinct !DISubprogram(name: "_M_deallocate", linkageName: "_ZNSt12_Vector_baseIiSaIiEE13_M_deallocateEPim", scope: !17, file: !13, line: 350, type: !228, scopeLine: 351, flags: DIFlagPrototyped, spFlags: DISPFlagDefinition, unit: !0, declaration: !227, retainedNodes: !2)
!1483 = !DILocalVariable(name: "this", arg: 1, scope: !1482, type: !1021, flags: DIFlagArtificial | DIFlagObjectPointer)
!1484 = !DILocation(line: 0, scope: !1482)
!1485 = !DILocalVariable(name: "__p", arg: 2, scope: !1482, file: !13, line: 350, type: !141)
!1486 = !DILocation(line: 350, column: 29, scope: !1482)
!1487 = !DILocalVariable(name: "__n", arg: 3, scope: !1482, file: !13, line: 350, type: !8)
!1488 = !DILocation(line: 350, column: 41, scope: !1482)
!1489 = !DILocation(line: 353, column: 6, scope: !1490)
!1490 = distinct !DILexicalBlock(scope: !1482, file: !13, line: 353, column: 6)
!1491 = !DILocation(line: 353, column: 6, scope: !1482)
!1492 = !DILocation(line: 354, column: 20, scope: !1490)
!1493 = !DILocation(line: 354, column: 29, scope: !1490)
!1494 = !DILocation(line: 354, column: 34, scope: !1490)
!1495 = !DILocation(line: 354, column: 4, scope: !1490)
!1496 = !DILocation(line: 355, column: 7, scope: !1482)
!1497 = distinct !DISubprogram(name: "~_Vector_impl", linkageName: "_ZNSt12_Vector_baseIiSaIiEE12_Vector_implD2Ev", scope: !20, file: !13, line: 128, type: !163, scopeLine: 128, flags: DIFlagArtificial | DIFlagPrototyped, spFlags: DISPFlagDefinition, unit: !0, declaration: !1498, retainedNodes: !2)
!1498 = !DISubprogram(name: "~_Vector_impl", scope: !20, type: !163, flags: DIFlagArtificial | DIFlagPrototyped, spFlags: 0)
!1499 = !DILocalVariable(name: "this", arg: 1, scope: !1497, type: !1111, flags: DIFlagArtificial | DIFlagObjectPointer)
!1500 = !DILocation(line: 0, scope: !1497)
!1501 = !DILocation(line: 128, column: 14, scope: !1502)
!1502 = distinct !DILexicalBlock(scope: !1497, file: !13, line: 128, column: 14)
!1503 = !DILocation(line: 128, column: 14, scope: !1497)
!1504 = distinct !DISubprogram(name: "deallocate", linkageName: "_ZNSt16allocator_traitsISaIiEE10deallocateERS0_Pim", scope: !31, file: !32, line: 491, type: !107, scopeLine: 492, flags: DIFlagPrototyped, spFlags: DISPFlagDefinition, unit: !0, declaration: !106, retainedNodes: !2)
!1505 = !DILocalVariable(name: "__a", arg: 1, scope: !1504, file: !32, line: 491, type: !38)
!1506 = !DILocation(line: 491, column: 34, scope: !1504)
!1507 = !DILocalVariable(name: "__p", arg: 2, scope: !1504, file: !32, line: 491, type: !37)
!1508 = !DILocation(line: 491, column: 47, scope: !1504)
!1509 = !DILocalVariable(name: "__n", arg: 3, scope: !1504, file: !32, line: 491, type: !101)
!1510 = !DILocation(line: 491, column: 62, scope: !1504)
!1511 = !DILocation(line: 492, column: 9, scope: !1504)
!1512 = !DILocation(line: 492, column: 24, scope: !1504)
!1513 = !DILocation(line: 492, column: 29, scope: !1504)
!1514 = !DILocation(line: 492, column: 13, scope: !1504)
!1515 = !DILocation(line: 492, column: 35, scope: !1504)
!1516 = distinct !DISubprogram(name: "deallocate", linkageName: "_ZN9__gnu_cxx13new_allocatorIiE10deallocateEPim", scope: !46, file: !47, line: 120, type: !79, scopeLine: 121, flags: DIFlagPrototyped, spFlags: DISPFlagDefinition, unit: !0, declaration: !78, retainedNodes: !2)
!1517 = !DILocalVariable(name: "this", arg: 1, scope: !1516, type: !1012, flags: DIFlagArtificial | DIFlagObjectPointer)
!1518 = !DILocation(line: 0, scope: !1516)
!1519 = !DILocalVariable(name: "__p", arg: 2, scope: !1516, file: !47, line: 120, type: !4)
!1520 = !DILocation(line: 120, column: 23, scope: !1516)
!1521 = !DILocalVariable(name: "__t", arg: 3, scope: !1516, file: !47, line: 120, type: !77)
!1522 = !DILocation(line: 120, column: 38, scope: !1516)
!1523 = !DILocation(line: 133, column: 20, scope: !1516)
!1524 = !DILocation(line: 133, column: 2, scope: !1516)
!1525 = !DILocation(line: 138, column: 7, scope: !1516)
!1526 = distinct !DISubprogram(name: "_Destroy<int *, int>", linkageName: "_ZSt8_DestroyIPiiEvT_S1_RSaIT0_E", scope: !10, file: !32, line: 735, type: !1527, scopeLine: 737, flags: DIFlagPrototyped, spFlags: DISPFlagDefinition, unit: !0, templateParams: !1529, retainedNodes: !2)
!1527 = !DISubroutineType(types: !1528)
!1528 = !{null, !4, !4, !99}
!1529 = !{!1191, !86}
!1530 = !DILocalVariable(name: "__first", arg: 1, scope: !1526, file: !32, line: 735, type: !4)
!1531 = !DILocation(line: 735, column: 31, scope: !1526)
!1532 = !DILocalVariable(name: "__last", arg: 2, scope: !1526, file: !32, line: 735, type: !4)
!1533 = !DILocation(line: 735, column: 57, scope: !1526)
!1534 = !DILocalVariable(arg: 3, scope: !1526, file: !32, line: 736, type: !99)
!1535 = !DILocation(line: 736, column: 22, scope: !1526)
!1536 = !DILocation(line: 738, column: 16, scope: !1526)
!1537 = !DILocation(line: 738, column: 25, scope: !1526)
!1538 = !DILocation(line: 738, column: 7, scope: !1526)
!1539 = !DILocation(line: 739, column: 5, scope: !1526)
!1540 = distinct !DISubprogram(name: "_Destroy<int *>", linkageName: "_ZSt8_DestroyIPiEvT_S1_", scope: !10, file: !1541, line: 171, type: !1542, scopeLine: 172, flags: DIFlagPrototyped, spFlags: DISPFlagDefinition, unit: !0, templateParams: !1544, retainedNodes: !2)
!1541 = !DIFile(filename: "/usr/bin/../lib/gcc/x86_64-linux-gnu/10/../../../../include/c++/10/bits/stl_construct.h", directory: "")
!1542 = !DISubroutineType(types: !1543)
!1543 = !{null, !4, !4}
!1544 = !{!1191}
!1545 = !DILocalVariable(name: "__first", arg: 1, scope: !1540, file: !1541, line: 171, type: !4)
!1546 = !DILocation(line: 171, column: 31, scope: !1540)
!1547 = !DILocalVariable(name: "__last", arg: 2, scope: !1540, file: !1541, line: 171, type: !4)
!1548 = !DILocation(line: 171, column: 57, scope: !1540)
!1549 = !DILocation(line: 185, column: 12, scope: !1540)
!1550 = !DILocation(line: 185, column: 21, scope: !1540)
!1551 = !DILocation(line: 184, column: 7, scope: !1540)
!1552 = !DILocation(line: 186, column: 5, scope: !1540)
!1553 = distinct !DISubprogram(name: "__destroy<int *>", linkageName: "_ZNSt12_Destroy_auxILb1EE9__destroyIPiEEvT_S3_", scope: !1554, file: !1541, line: 161, type: !1542, scopeLine: 161, flags: DIFlagPrototyped, spFlags: DISPFlagDefinition, unit: !0, templateParams: !1544, declaration: !1557, retainedNodes: !2)
!1554 = distinct !DICompositeType(tag: DW_TAG_structure_type, name: "_Destroy_aux<true>", scope: !10, file: !1541, line: 157, size: 8, flags: DIFlagTypePassByValue, elements: !2, templateParams: !1555, identifier: "_ZTSSt12_Destroy_auxILb1EE")
!1555 = !{!1556}
!1556 = !DITemplateValueParameter(type: !129, value: i1 true)
!1557 = !DISubprogram(name: "__destroy<int *>", linkageName: "_ZNSt12_Destroy_auxILb1EE9__destroyIPiEEvT_S3_", scope: !1554, file: !1541, line: 161, type: !1542, scopeLine: 161, flags: DIFlagPrototyped | DIFlagStaticMember, spFlags: 0, templateParams: !1544)
!1558 = !DILocalVariable(arg: 1, scope: !1553, file: !1541, line: 161, type: !4)
!1559 = !DILocation(line: 161, column: 35, scope: !1553)
!1560 = !DILocalVariable(arg: 2, scope: !1553, file: !1541, line: 161, type: !4)
!1561 = !DILocation(line: 161, column: 53, scope: !1553)
!1562 = !DILocation(line: 161, column: 57, scope: !1553)
!1563 = distinct !DISubprogram(name: "memmove", scope: !1564, file: !1564, line: 12, type: !1565, scopeLine: 12, flags: DIFlagPrototyped, spFlags: DISPFlagDefinition, unit: !780, retainedNodes: !2)
!1564 = !DIFile(filename: "klee/runtime/Freestanding/memmove.c", directory: "/home/ha-useast-service")
!1565 = !DISubroutineType(types: !1566)
!1566 = !{!527, !527, !6, !1567}
!1567 = !DIDerivedType(tag: DW_TAG_typedef, name: "size_t", file: !1568, line: 46, baseType: !11)
!1568 = !DIFile(filename: "/usr/lib/llvm-9/lib/clang/9.0.1/include/stddef.h", directory: "")
!1569 = !DILocalVariable(name: "dst", arg: 1, scope: !1563, file: !1564, line: 12, type: !527)
!1570 = !DILocation(line: 12, column: 21, scope: !1563)
!1571 = !DILocalVariable(name: "src", arg: 2, scope: !1563, file: !1564, line: 12, type: !6)
!1572 = !DILocation(line: 12, column: 38, scope: !1563)
!1573 = !DILocalVariable(name: "count", arg: 3, scope: !1563, file: !1564, line: 12, type: !1567)
!1574 = !DILocation(line: 12, column: 50, scope: !1563)
!1575 = !DILocalVariable(name: "a", scope: !1563, file: !1564, line: 13, type: !653)
!1576 = !DILocation(line: 13, column: 9, scope: !1563)
!1577 = !DILocation(line: 13, column: 13, scope: !1563)
!1578 = !DILocalVariable(name: "b", scope: !1563, file: !1564, line: 14, type: !490)
!1579 = !DILocation(line: 14, column: 15, scope: !1563)
!1580 = !DILocation(line: 14, column: 19, scope: !1563)
!1581 = !DILocation(line: 16, column: 7, scope: !1582)
!1582 = distinct !DILexicalBlock(scope: !1563, file: !1564, line: 16, column: 7)
!1583 = !DILocation(line: 16, column: 14, scope: !1582)
!1584 = !DILocation(line: 16, column: 11, scope: !1582)
!1585 = !DILocation(line: 16, column: 7, scope: !1563)
!1586 = !DILocation(line: 17, column: 12, scope: !1582)
!1587 = !DILocation(line: 17, column: 5, scope: !1582)
!1588 = !DILocation(line: 19, column: 7, scope: !1589)
!1589 = distinct !DILexicalBlock(scope: !1563, file: !1564, line: 19, column: 7)
!1590 = !DILocation(line: 19, column: 13, scope: !1589)
!1591 = !DILocation(line: 19, column: 11, scope: !1589)
!1592 = !DILocation(line: 19, column: 7, scope: !1563)
!1593 = !DILocation(line: 20, column: 17, scope: !1594)
!1594 = distinct !DILexicalBlock(scope: !1589, file: !1564, line: 19, column: 18)
!1595 = !DILocation(line: 20, column: 5, scope: !1594)
!1596 = !DILocation(line: 21, column: 16, scope: !1594)
!1597 = !DILocation(line: 21, column: 14, scope: !1594)
!1598 = !DILocation(line: 21, column: 9, scope: !1594)
!1599 = !DILocation(line: 21, column: 12, scope: !1594)
!1600 = distinct !{!1600, !1595, !1596}
!1601 = !DILocation(line: 23, column: 10, scope: !1602)
!1602 = distinct !DILexicalBlock(scope: !1589, file: !1564, line: 22, column: 10)
!1603 = !DILocation(line: 23, column: 16, scope: !1602)
!1604 = !DILocation(line: 23, column: 7, scope: !1602)
!1605 = !DILocation(line: 24, column: 10, scope: !1602)
!1606 = !DILocation(line: 24, column: 16, scope: !1602)
!1607 = !DILocation(line: 24, column: 7, scope: !1602)
!1608 = !DILocation(line: 25, column: 5, scope: !1602)
!1609 = !DILocation(line: 25, column: 17, scope: !1602)
!1610 = !DILocation(line: 26, column: 16, scope: !1602)
!1611 = !DILocation(line: 26, column: 14, scope: !1602)
!1612 = !DILocation(line: 26, column: 9, scope: !1602)
!1613 = !DILocation(line: 26, column: 12, scope: !1602)
!1614 = distinct !{!1614, !1608, !1610}
!1615 = !DILocation(line: 29, column: 10, scope: !1563)
!1616 = !DILocation(line: 29, column: 3, scope: !1563)
!1617 = !DILocation(line: 30, column: 1, scope: !1563)
