; ModuleID = 'example2.bc'
source_filename = "example2.cpp"
target datalayout = "e-m:e-p270:32:32-p271:32:32-p272:64:64-i64:64-f80:128-n8:16:32:64-S128"
target triple = "x86_64-pc-linux-gnu"

%"class.std::linear_congruential_engine" = type { i64 }
%"class.std::uniform_int_distribution" = type { %"struct.std::uniform_int_distribution<int>::param_type" }
%"struct.std::uniform_int_distribution<int>::param_type" = type { i32, i32 }

@generator = dso_local local_unnamed_addr global %"class.std::linear_congruential_engine" { i64 1 }, align 8, !dbg !0
@distribution = dso_local local_unnamed_addr global %"class.std::uniform_int_distribution" { %"struct.std::uniform_int_distribution<int>::param_type" { i32 0, i32 10 } }, align 4, !dbg !63
@__const.main._distribution1 = private unnamed_addr constant [6 x float] [float 1.000000e+00, float 2.000000e+00, float 3.000000e+00, float 4.000000e+00, float 5.000000e+00, float 6.000000e+00], align 16
@__const.main._probabilities1 = private unnamed_addr constant [6 x float] [float 0.000000e+00, float 0x3FB99999A0000000, float 0x3FC99999A0000000, float 0x3FD3333340000000, float 0x3FB99999A0000000, float 0x3FC99999A0000000], align 16
@__const.main._distribution2 = private unnamed_addr constant [10 x float] [float 1.000000e+00, float 2.000000e+00, float 3.000000e+00, float 4.000000e+00, float 5.000000e+00, float 6.000000e+00, float 7.000000e+00, float 8.000000e+00, float 9.000000e+00, float 1.000000e+01], align 16
@__const.main._probabilities2 = private unnamed_addr constant [11 x float] [float 0x3FB99999A0000000, float 0x3FB99999A0000000, float 0x3FB99999A0000000, float 0x3FB99999A0000000, float 0x3FB99999A0000000, float 0x3FB99999A0000000, float 0x3FB99999A0000000, float 0x3FB99999A0000000, float 0x3FB99999A0000000, float 0x3FB99999A0000000, float 0x3FB99999A0000000], align 16
@.str = private unnamed_addr constant [10 x i8] c"a_pse_sym\00", align 1
@.str.2 = private unnamed_addr constant [10 x i8] c"b_pse_sym\00", align 1
@.str.3 = private unnamed_addr constant [6 x i8] c"c_sym\00", align 1
@.str.4 = private unnamed_addr constant [6 x i8] c"a > b\00", align 1
@.str.5 = private unnamed_addr constant [13 x i8] c"example2.cpp\00", align 1
@__PRETTY_FUNCTION__.main = private unnamed_addr constant [11 x i8] c"int main()\00", align 1
@.str.6 = private unnamed_addr constant [2 x i8] c"t\00", align 1
@.str.7 = private unnamed_addr constant [2 x i8] c"a\00", align 1
@.str.8 = private unnamed_addr constant [2 x i8] c"b\00", align 1
@.str.9 = private unnamed_addr constant [7 x i8] c"b >= a\00", align 1
@llvm.global_ctors = appending global [0 x { i32, void ()*, i8* }] zeroinitializer

; Function Attrs: norecurse uwtable
define dso_local i32 @main() local_unnamed_addr #0 !dbg !1328 {
  call void @klee.ctor_stub()
  %1 = alloca i32, align 4
  %2 = alloca i32, align 4
  %3 = alloca i32, align 4
  %4 = alloca i32, align 4
  %5 = alloca [6 x float], align 16
  %6 = alloca [6 x float], align 16
  %7 = alloca [10 x float], align 16
  %8 = alloca [11 x float], align 16
  %9 = bitcast i32* %1 to i8*, !dbg !1347
  %10 = bitcast i32* %2 to i8*, !dbg !1347
  %11 = bitcast i32* %3 to i8*, !dbg !1347
  %12 = bitcast i32* %4 to i8*, !dbg !1347
  %13 = bitcast [6 x float]* %5 to i8*, !dbg !1348
  call void @llvm.dbg.declare(metadata [6 x float]* %5, metadata !1334, metadata !DIExpression()), !dbg !1349
  %14 = call i8* @memcpy(i8* %13, i8* bitcast ([6 x float]* @__const.main._distribution1 to i8*), i64 24), !dbg !1349
  %15 = bitcast [6 x float]* %6 to i8*, !dbg !1350
  call void @llvm.dbg.declare(metadata [6 x float]* %6, metadata !1338, metadata !DIExpression()), !dbg !1351
  %16 = call i8* @memcpy(i8* %15, i8* bitcast ([6 x float]* @__const.main._probabilities1 to i8*), i64 24), !dbg !1351
  %17 = bitcast [10 x float]* %7 to i8*, !dbg !1352
  call void @llvm.dbg.declare(metadata [10 x float]* %7, metadata !1339, metadata !DIExpression()), !dbg !1353
  %18 = call i8* @memcpy(i8* %17, i8* bitcast ([10 x float]* @__const.main._distribution2 to i8*), i64 40), !dbg !1353
  %19 = bitcast [11 x float]* %8 to i8*, !dbg !1354
  call void @llvm.dbg.declare(metadata [11 x float]* %8, metadata !1343, metadata !DIExpression()), !dbg !1355
  %20 = call i8* @memcpy(i8* %19, i8* bitcast ([11 x float]* @__const.main._probabilities2 to i8*), i64 44), !dbg !1355
  %21 = getelementptr inbounds [6 x float], [6 x float]* %5, i64 0, i64 0, !dbg !1356
  %22 = getelementptr inbounds [6 x float], [6 x float]* %6, i64 0, i64 0, !dbg !1357
  call void @llvm.dbg.value(metadata i32* %1, metadata !1330, metadata !DIExpression(DW_OP_deref)), !dbg !1358
  call void @klee_make_pse_symbolic(i8* nonnull %9, i64 4, i8* getelementptr inbounds ([10 x i8], [10 x i8]* @.str, i64 0, i64 0), float* nonnull %21, float* nonnull %22), !dbg !1359
  %23 = getelementptr inbounds [10 x float], [10 x float]* %7, i64 0, i64 0, !dbg !1360
  %24 = getelementptr inbounds [11 x float], [11 x float]* %8, i64 0, i64 0, !dbg !1361
  call void @llvm.dbg.value(metadata i32* %2, metadata !1331, metadata !DIExpression(DW_OP_deref)), !dbg !1358
  call void @klee_make_pse_symbolic(i8* nonnull %10, i64 4, i8* getelementptr inbounds ([10 x i8], [10 x i8]* @.str.2, i64 0, i64 0), float* nonnull %23, float* nonnull %24), !dbg !1362
  call void @llvm.dbg.value(metadata i32* %3, metadata !1332, metadata !DIExpression(DW_OP_deref)), !dbg !1358
  call void @klee_make_symbolic(i8* nonnull %11, i64 4, i8* getelementptr inbounds ([6 x i8], [6 x i8]* @.str.3, i64 0, i64 0)), !dbg !1363
  %25 = load i32, i32* %1, align 4, !dbg !1364, !tbaa !1366
  call void @llvm.dbg.value(metadata i32 %25, metadata !1330, metadata !DIExpression()), !dbg !1358
  %26 = load i32, i32* %2, align 4, !dbg !1370, !tbaa !1366
  call void @llvm.dbg.value(metadata i32 %26, metadata !1331, metadata !DIExpression()), !dbg !1358
  %27 = load i32, i32* %3, align 4, !dbg !1371, !tbaa !1366
  call void @llvm.dbg.value(metadata i32 %27, metadata !1332, metadata !DIExpression()), !dbg !1358
  %28 = add nsw i32 %27, %26, !dbg !1372
  %29 = icmp sgt i32 %25, %28, !dbg !1373
  %30 = icmp sgt i32 %25, 89, !dbg !1374
  %31 = and i1 %30, %29, !dbg !1375
  br i1 %31, label %32, label %37, !dbg !1375

32:                                               ; preds = %0
  %33 = add nsw i32 %26, %25, !dbg !1376
  call void @llvm.dbg.value(metadata i32 %33, metadata !1333, metadata !DIExpression()), !dbg !1358
  store i32 %33, i32* %4, align 4, !dbg !1378, !tbaa !1366
  call void @llvm.dbg.value(metadata i32 %26, metadata !1331, metadata !DIExpression()), !dbg !1358
  call void @llvm.dbg.value(metadata i32 %27, metadata !1332, metadata !DIExpression()), !dbg !1358
  call void @llvm.dbg.value(metadata i32 %28, metadata !1330, metadata !DIExpression()), !dbg !1358
  store i32 %28, i32* %1, align 4, !dbg !1379, !tbaa !1366
  call void @llvm.dbg.value(metadata i32 %27, metadata !1332, metadata !DIExpression()), !dbg !1358
  call void @llvm.dbg.value(metadata i32 %26, metadata !1331, metadata !DIExpression()), !dbg !1358
  call void @llvm.dbg.value(metadata i32 %28, metadata !1330, metadata !DIExpression()), !dbg !1358
  %34 = icmp sgt i32 %27, 0, !dbg !1380
  br i1 %34, label %36, label %35, !dbg !1380

35:                                               ; preds = %32
  call void @__assert_fail(i8* getelementptr inbounds ([6 x i8], [6 x i8]* @.str.4, i64 0, i64 0), i8* getelementptr inbounds ([13 x i8], [13 x i8]* @.str.5, i64 0, i64 0), i32 32, i8* getelementptr inbounds ([11 x i8], [11 x i8]* @__PRETTY_FUNCTION__.main, i64 0, i64 0)) #6, !dbg !1380
  unreachable, !dbg !1380

36:                                               ; preds = %32
  call void @llvm.dbg.value(metadata i32* %4, metadata !1333, metadata !DIExpression(DW_OP_deref)), !dbg !1358
  call void @klee_dump_symbolic_details(i8* nonnull %12, i8* getelementptr inbounds ([2 x i8], [2 x i8]* @.str.6, i64 0, i64 0)), !dbg !1381
  call void @llvm.dbg.value(metadata i32* %1, metadata !1330, metadata !DIExpression(DW_OP_deref)), !dbg !1358
  call void @klee_dump_symbolic_details(i8* nonnull %9, i8* getelementptr inbounds ([2 x i8], [2 x i8]* @.str.7, i64 0, i64 0)), !dbg !1382
  call void @llvm.dbg.value(metadata i32* %2, metadata !1331, metadata !DIExpression(DW_OP_deref)), !dbg !1358
  call void @klee_dump_symbolic_details(i8* nonnull %10, i8* getelementptr inbounds ([2 x i8], [2 x i8]* @.str.8, i64 0, i64 0)), !dbg !1383
  br label %46, !dbg !1384

37:                                               ; preds = %0
  %38 = add nsw i32 %27, %25, !dbg !1385
  %39 = icmp sgt i32 %26, %38, !dbg !1387
  br i1 %39, label %40, label %46, !dbg !1388

40:                                               ; preds = %37
  %41 = sub nsw i32 %26, %27, !dbg !1389
  call void @llvm.dbg.value(metadata i32 %41, metadata !1330, metadata !DIExpression()), !dbg !1358
  store i32 %41, i32* %1, align 4, !dbg !1391, !tbaa !1366
  call void @llvm.dbg.value(metadata i32 %27, metadata !1332, metadata !DIExpression()), !dbg !1358
  call void @llvm.dbg.value(metadata i32 %26, metadata !1331, metadata !DIExpression()), !dbg !1358
  call void @llvm.dbg.value(metadata i32* %2, metadata !1331, metadata !DIExpression(DW_OP_deref)), !dbg !1358
  call void @klee_dump_symbolic_details(i8* nonnull %10, i8* getelementptr inbounds ([2 x i8], [2 x i8]* @.str.8, i64 0, i64 0)), !dbg !1392
  call void @llvm.dbg.value(metadata i32* %4, metadata !1333, metadata !DIExpression(DW_OP_deref)), !dbg !1358
  call void @klee_dump_symbolic_details(i8* nonnull %12, i8* getelementptr inbounds ([2 x i8], [2 x i8]* @.str.6, i64 0, i64 0)), !dbg !1393
  %42 = load i32, i32* %2, align 4, !dbg !1394, !tbaa !1366
  call void @llvm.dbg.value(metadata i32 %42, metadata !1331, metadata !DIExpression()), !dbg !1358
  %43 = load i32, i32* %1, align 4, !dbg !1394, !tbaa !1366
  call void @llvm.dbg.value(metadata i32 %43, metadata !1330, metadata !DIExpression()), !dbg !1358
  %44 = icmp slt i32 %42, %43, !dbg !1394
  br i1 %44, label %45, label %47, !dbg !1394

45:                                               ; preds = %40
  call void @__assert_fail(i8* getelementptr inbounds ([7 x i8], [7 x i8]* @.str.9, i64 0, i64 0), i8* getelementptr inbounds ([13 x i8], [13 x i8]* @.str.5, i64 0, i64 0), i32 44, i8* getelementptr inbounds ([11 x i8], [11 x i8]* @__PRETTY_FUNCTION__.main, i64 0, i64 0)) #6, !dbg !1394
  unreachable, !dbg !1394

46:                                               ; preds = %37, %36
  call void @klee_dump_kquery_state(), !dbg !1395
  br label %47, !dbg !1396

47:                                               ; preds = %46, %40
  ret i32 0, !dbg !1397
}

; Function Attrs: argmemonly nounwind willreturn
declare void @llvm.lifetime.start.p0i8(i64 immarg, i8* nocapture) #1

; Function Attrs: nounwind readnone speculatable willreturn
declare void @llvm.dbg.declare(metadata, metadata, metadata) #2

; Function Attrs: argmemonly nounwind willreturn
declare void @llvm.memcpy.p0i8.p0i8.i64(i8* noalias nocapture writeonly, i8* noalias nocapture readonly, i64, i1 immarg) #1

declare !dbg !6 dso_local void @klee_make_pse_symbolic(i8*, i64, i8*, float*, float*) local_unnamed_addr #3

declare !dbg !17 dso_local void @klee_make_symbolic(i8*, i64, i8*) local_unnamed_addr #3

; Function Attrs: noreturn nounwind
declare dso_local void @__assert_fail(i8*, i8*, i32, i8*) local_unnamed_addr #4

declare !dbg !21 dso_local void @klee_dump_symbolic_details(i8*, i8*) local_unnamed_addr #3

declare !dbg !24 dso_local void @klee_dump_kquery_state() local_unnamed_addr #3

; Function Attrs: argmemonly nounwind willreturn
declare void @llvm.lifetime.end.p0i8(i64 immarg, i8* nocapture) #1

; Function Attrs: nounwind readnone speculatable willreturn
declare void @llvm.dbg.value(metadata, metadata, metadata) #2

; Function Attrs: nofree norecurse nounwind uwtable
define dso_local i8* @memcpy(i8* returned %0, i8* nocapture readonly %1, i64 %2) #5 !dbg !1398 {
  call void @llvm.dbg.value(metadata i8* %0, metadata !1405, metadata !DIExpression()), !dbg !1410
  call void @llvm.dbg.value(metadata i8* %1, metadata !1406, metadata !DIExpression()), !dbg !1410
  call void @llvm.dbg.value(metadata i64 %2, metadata !1407, metadata !DIExpression()), !dbg !1410
  call void @llvm.dbg.value(metadata i8* %0, metadata !1408, metadata !DIExpression()), !dbg !1410
  call void @llvm.dbg.value(metadata i8* %1, metadata !1409, metadata !DIExpression()), !dbg !1410
  call void @llvm.dbg.value(metadata i64 %2, metadata !1407, metadata !DIExpression(DW_OP_constu, 1, DW_OP_minus, DW_OP_stack_value)), !dbg !1410
  %4 = icmp eq i64 %2, 0, !dbg !1411
  br i1 %4, label %148, label %5, !dbg !1412

5:                                                ; preds = %3
  %6 = icmp ult i64 %2, 32, !dbg !1412
  br i1 %6, label %95, label %7, !dbg !1412

7:                                                ; preds = %5
  %8 = getelementptr i8, i8* %0, i64 %2, !dbg !1412
  %9 = getelementptr i8, i8* %1, i64 %2, !dbg !1412
  %10 = icmp ugt i8* %9, %0, !dbg !1412
  %11 = icmp ugt i8* %8, %1, !dbg !1412
  %12 = and i1 %10, %11, !dbg !1412
  br i1 %12, label %95, label %13, !dbg !1412

13:                                               ; preds = %7
  %14 = and i64 %2, -32, !dbg !1412
  %15 = getelementptr i8, i8* %1, i64 %14, !dbg !1412
  %16 = getelementptr i8, i8* %0, i64 %14, !dbg !1412
  %17 = sub i64 %2, %14, !dbg !1412
  %18 = add i64 %14, -32, !dbg !1412
  %19 = lshr exact i64 %18, 5, !dbg !1412
  %20 = add nuw nsw i64 %19, 1, !dbg !1412
  %21 = and i64 %20, 3, !dbg !1412
  %22 = icmp ult i64 %18, 96, !dbg !1412
  br i1 %22, label %74, label %23, !dbg !1412

23:                                               ; preds = %13
  %24 = sub nsw i64 %20, %21, !dbg !1412
  br label %25, !dbg !1412

25:                                               ; preds = %25, %23
  %26 = phi i64 [ 0, %23 ], [ %71, %25 ]
  %27 = phi i64 [ %24, %23 ], [ %72, %25 ]
  %28 = getelementptr i8, i8* %1, i64 %26
  %29 = getelementptr i8, i8* %0, i64 %26
  %30 = bitcast i8* %28 to <16 x i8>*, !dbg !1413
  %31 = load <16 x i8>, <16 x i8>* %30, align 1, !dbg !1413, !tbaa !1414, !alias.scope !1417
  %32 = getelementptr i8, i8* %28, i64 16, !dbg !1413
  %33 = bitcast i8* %32 to <16 x i8>*, !dbg !1413
  %34 = load <16 x i8>, <16 x i8>* %33, align 1, !dbg !1413, !tbaa !1414, !alias.scope !1417
  %35 = bitcast i8* %29 to <16 x i8>*, !dbg !1420
  store <16 x i8> %31, <16 x i8>* %35, align 1, !dbg !1420, !tbaa !1414, !alias.scope !1421, !noalias !1417
  %36 = getelementptr i8, i8* %29, i64 16, !dbg !1420
  %37 = bitcast i8* %36 to <16 x i8>*, !dbg !1420
  store <16 x i8> %34, <16 x i8>* %37, align 1, !dbg !1420, !tbaa !1414, !alias.scope !1421, !noalias !1417
  %38 = or i64 %26, 32
  %39 = getelementptr i8, i8* %1, i64 %38
  %40 = getelementptr i8, i8* %0, i64 %38
  %41 = bitcast i8* %39 to <16 x i8>*, !dbg !1413
  %42 = load <16 x i8>, <16 x i8>* %41, align 1, !dbg !1413, !tbaa !1414, !alias.scope !1417
  %43 = getelementptr i8, i8* %39, i64 16, !dbg !1413
  %44 = bitcast i8* %43 to <16 x i8>*, !dbg !1413
  %45 = load <16 x i8>, <16 x i8>* %44, align 1, !dbg !1413, !tbaa !1414, !alias.scope !1417
  %46 = bitcast i8* %40 to <16 x i8>*, !dbg !1420
  store <16 x i8> %42, <16 x i8>* %46, align 1, !dbg !1420, !tbaa !1414, !alias.scope !1421, !noalias !1417
  %47 = getelementptr i8, i8* %40, i64 16, !dbg !1420
  %48 = bitcast i8* %47 to <16 x i8>*, !dbg !1420
  store <16 x i8> %45, <16 x i8>* %48, align 1, !dbg !1420, !tbaa !1414, !alias.scope !1421, !noalias !1417
  %49 = or i64 %26, 64
  %50 = getelementptr i8, i8* %1, i64 %49
  %51 = getelementptr i8, i8* %0, i64 %49
  %52 = bitcast i8* %50 to <16 x i8>*, !dbg !1413
  %53 = load <16 x i8>, <16 x i8>* %52, align 1, !dbg !1413, !tbaa !1414, !alias.scope !1417
  %54 = getelementptr i8, i8* %50, i64 16, !dbg !1413
  %55 = bitcast i8* %54 to <16 x i8>*, !dbg !1413
  %56 = load <16 x i8>, <16 x i8>* %55, align 1, !dbg !1413, !tbaa !1414, !alias.scope !1417
  %57 = bitcast i8* %51 to <16 x i8>*, !dbg !1420
  store <16 x i8> %53, <16 x i8>* %57, align 1, !dbg !1420, !tbaa !1414, !alias.scope !1421, !noalias !1417
  %58 = getelementptr i8, i8* %51, i64 16, !dbg !1420
  %59 = bitcast i8* %58 to <16 x i8>*, !dbg !1420
  store <16 x i8> %56, <16 x i8>* %59, align 1, !dbg !1420, !tbaa !1414, !alias.scope !1421, !noalias !1417
  %60 = or i64 %26, 96
  %61 = getelementptr i8, i8* %1, i64 %60
  %62 = getelementptr i8, i8* %0, i64 %60
  %63 = bitcast i8* %61 to <16 x i8>*, !dbg !1413
  %64 = load <16 x i8>, <16 x i8>* %63, align 1, !dbg !1413, !tbaa !1414, !alias.scope !1417
  %65 = getelementptr i8, i8* %61, i64 16, !dbg !1413
  %66 = bitcast i8* %65 to <16 x i8>*, !dbg !1413
  %67 = load <16 x i8>, <16 x i8>* %66, align 1, !dbg !1413, !tbaa !1414, !alias.scope !1417
  %68 = bitcast i8* %62 to <16 x i8>*, !dbg !1420
  store <16 x i8> %64, <16 x i8>* %68, align 1, !dbg !1420, !tbaa !1414, !alias.scope !1421, !noalias !1417
  %69 = getelementptr i8, i8* %62, i64 16, !dbg !1420
  %70 = bitcast i8* %69 to <16 x i8>*, !dbg !1420
  store <16 x i8> %67, <16 x i8>* %70, align 1, !dbg !1420, !tbaa !1414, !alias.scope !1421, !noalias !1417
  %71 = add i64 %26, 128
  %72 = add i64 %27, -4
  %73 = icmp eq i64 %72, 0
  br i1 %73, label %74, label %25, !llvm.loop !1423

74:                                               ; preds = %25, %13
  %75 = phi i64 [ 0, %13 ], [ %71, %25 ]
  %76 = icmp eq i64 %21, 0
  br i1 %76, label %93, label %77

77:                                               ; preds = %74, %77
  %78 = phi i64 [ %90, %77 ], [ %75, %74 ]
  %79 = phi i64 [ %91, %77 ], [ %21, %74 ]
  %80 = getelementptr i8, i8* %1, i64 %78
  %81 = getelementptr i8, i8* %0, i64 %78
  %82 = bitcast i8* %80 to <16 x i8>*, !dbg !1413
  %83 = load <16 x i8>, <16 x i8>* %82, align 1, !dbg !1413, !tbaa !1414, !alias.scope !1417
  %84 = getelementptr i8, i8* %80, i64 16, !dbg !1413
  %85 = bitcast i8* %84 to <16 x i8>*, !dbg !1413
  %86 = load <16 x i8>, <16 x i8>* %85, align 1, !dbg !1413, !tbaa !1414, !alias.scope !1417
  %87 = bitcast i8* %81 to <16 x i8>*, !dbg !1420
  store <16 x i8> %83, <16 x i8>* %87, align 1, !dbg !1420, !tbaa !1414, !alias.scope !1421, !noalias !1417
  %88 = getelementptr i8, i8* %81, i64 16, !dbg !1420
  %89 = bitcast i8* %88 to <16 x i8>*, !dbg !1420
  store <16 x i8> %86, <16 x i8>* %89, align 1, !dbg !1420, !tbaa !1414, !alias.scope !1421, !noalias !1417
  %90 = add i64 %78, 32
  %91 = add i64 %79, -1
  %92 = icmp eq i64 %91, 0
  br i1 %92, label %93, label %77, !llvm.loop !1426

93:                                               ; preds = %77, %74
  %94 = icmp eq i64 %14, %2, !dbg !1412
  br i1 %94, label %148, label %95, !dbg !1412

95:                                               ; preds = %93, %7, %5
  %96 = phi i8* [ %1, %7 ], [ %1, %5 ], [ %15, %93 ]
  %97 = phi i8* [ %0, %7 ], [ %0, %5 ], [ %16, %93 ]
  %98 = phi i64 [ %2, %7 ], [ %2, %5 ], [ %17, %93 ]
  %99 = add i64 %98, -1, !dbg !1412
  %100 = and i64 %98, 7, !dbg !1412
  %101 = icmp eq i64 %100, 0, !dbg !1412
  br i1 %101, label %113, label %102, !dbg !1412

102:                                              ; preds = %95, %102
  %103 = phi i8* [ %108, %102 ], [ %96, %95 ]
  %104 = phi i8* [ %110, %102 ], [ %97, %95 ]
  %105 = phi i64 [ %107, %102 ], [ %98, %95 ]
  %106 = phi i64 [ %111, %102 ], [ %100, %95 ]
  call void @llvm.dbg.value(metadata i8* %103, metadata !1409, metadata !DIExpression()), !dbg !1410
  call void @llvm.dbg.value(metadata i8* %104, metadata !1408, metadata !DIExpression()), !dbg !1410
  call void @llvm.dbg.value(metadata i64 %105, metadata !1407, metadata !DIExpression()), !dbg !1410
  %107 = add i64 %105, -1, !dbg !1428
  %108 = getelementptr inbounds i8, i8* %103, i64 1, !dbg !1424
  %109 = load i8, i8* %103, align 1, !dbg !1413, !tbaa !1414
  %110 = getelementptr inbounds i8, i8* %104, i64 1, !dbg !1429
  store i8 %109, i8* %104, align 1, !dbg !1420, !tbaa !1414
  call void @llvm.dbg.value(metadata i8* %108, metadata !1409, metadata !DIExpression()), !dbg !1410
  call void @llvm.dbg.value(metadata i8* %110, metadata !1408, metadata !DIExpression()), !dbg !1410
  call void @llvm.dbg.value(metadata i64 %107, metadata !1407, metadata !DIExpression()), !dbg !1410
  call void @llvm.dbg.value(metadata i64 %107, metadata !1407, metadata !DIExpression(DW_OP_constu, 1, DW_OP_minus, DW_OP_stack_value)), !dbg !1410
  %111 = add i64 %106, -1, !dbg !1412
  %112 = icmp eq i64 %111, 0, !dbg !1412
  br i1 %112, label %113, label %102, !dbg !1412, !llvm.loop !1430

113:                                              ; preds = %102, %95
  %114 = phi i8* [ %96, %95 ], [ %108, %102 ]
  %115 = phi i8* [ %97, %95 ], [ %110, %102 ]
  %116 = phi i64 [ %98, %95 ], [ %107, %102 ]
  %117 = icmp ult i64 %99, 7, !dbg !1412
  br i1 %117, label %148, label %118, !dbg !1412

118:                                              ; preds = %113, %118
  %119 = phi i8* [ %144, %118 ], [ %114, %113 ]
  %120 = phi i8* [ %146, %118 ], [ %115, %113 ]
  %121 = phi i64 [ %143, %118 ], [ %116, %113 ]
  call void @llvm.dbg.value(metadata i8* %119, metadata !1409, metadata !DIExpression()), !dbg !1410
  call void @llvm.dbg.value(metadata i8* %120, metadata !1408, metadata !DIExpression()), !dbg !1410
  call void @llvm.dbg.value(metadata i64 %121, metadata !1407, metadata !DIExpression()), !dbg !1410
  %122 = getelementptr inbounds i8, i8* %119, i64 1, !dbg !1424
  %123 = load i8, i8* %119, align 1, !dbg !1413, !tbaa !1414
  %124 = getelementptr inbounds i8, i8* %120, i64 1, !dbg !1429
  store i8 %123, i8* %120, align 1, !dbg !1420, !tbaa !1414
  call void @llvm.dbg.value(metadata i8* %122, metadata !1409, metadata !DIExpression()), !dbg !1410
  call void @llvm.dbg.value(metadata i8* %124, metadata !1408, metadata !DIExpression()), !dbg !1410
  call void @llvm.dbg.value(metadata i64 %121, metadata !1407, metadata !DIExpression(DW_OP_constu, 1, DW_OP_minus, DW_OP_stack_value)), !dbg !1410
  call void @llvm.dbg.value(metadata i64 %121, metadata !1407, metadata !DIExpression(DW_OP_constu, 1, DW_OP_minus, DW_OP_constu, 1, DW_OP_minus, DW_OP_stack_value)), !dbg !1410
  call void @llvm.dbg.value(metadata i8* %122, metadata !1409, metadata !DIExpression()), !dbg !1410
  call void @llvm.dbg.value(metadata i8* %124, metadata !1408, metadata !DIExpression()), !dbg !1410
  call void @llvm.dbg.value(metadata i64 %121, metadata !1407, metadata !DIExpression(DW_OP_constu, 1, DW_OP_minus, DW_OP_stack_value)), !dbg !1410
  %125 = getelementptr inbounds i8, i8* %119, i64 2, !dbg !1424
  %126 = load i8, i8* %122, align 1, !dbg !1413, !tbaa !1414
  %127 = getelementptr inbounds i8, i8* %120, i64 2, !dbg !1429
  store i8 %126, i8* %124, align 1, !dbg !1420, !tbaa !1414
  call void @llvm.dbg.value(metadata i8* %125, metadata !1409, metadata !DIExpression()), !dbg !1410
  call void @llvm.dbg.value(metadata i8* %127, metadata !1408, metadata !DIExpression()), !dbg !1410
  call void @llvm.dbg.value(metadata i64 %121, metadata !1407, metadata !DIExpression(DW_OP_constu, 2, DW_OP_minus, DW_OP_stack_value)), !dbg !1410
  call void @llvm.dbg.value(metadata i64 %121, metadata !1407, metadata !DIExpression(DW_OP_constu, 2, DW_OP_minus, DW_OP_constu, 1, DW_OP_minus, DW_OP_stack_value)), !dbg !1410
  call void @llvm.dbg.value(metadata i8* %125, metadata !1409, metadata !DIExpression()), !dbg !1410
  call void @llvm.dbg.value(metadata i8* %127, metadata !1408, metadata !DIExpression()), !dbg !1410
  call void @llvm.dbg.value(metadata i64 %121, metadata !1407, metadata !DIExpression(DW_OP_constu, 2, DW_OP_minus, DW_OP_stack_value)), !dbg !1410
  %128 = getelementptr inbounds i8, i8* %119, i64 3, !dbg !1424
  %129 = load i8, i8* %125, align 1, !dbg !1413, !tbaa !1414
  %130 = getelementptr inbounds i8, i8* %120, i64 3, !dbg !1429
  store i8 %129, i8* %127, align 1, !dbg !1420, !tbaa !1414
  call void @llvm.dbg.value(metadata i8* %128, metadata !1409, metadata !DIExpression()), !dbg !1410
  call void @llvm.dbg.value(metadata i8* %130, metadata !1408, metadata !DIExpression()), !dbg !1410
  call void @llvm.dbg.value(metadata i64 %121, metadata !1407, metadata !DIExpression(DW_OP_constu, 3, DW_OP_minus, DW_OP_stack_value)), !dbg !1410
  call void @llvm.dbg.value(metadata i64 %121, metadata !1407, metadata !DIExpression(DW_OP_constu, 3, DW_OP_minus, DW_OP_constu, 1, DW_OP_minus, DW_OP_stack_value)), !dbg !1410
  call void @llvm.dbg.value(metadata i8* %128, metadata !1409, metadata !DIExpression()), !dbg !1410
  call void @llvm.dbg.value(metadata i8* %130, metadata !1408, metadata !DIExpression()), !dbg !1410
  call void @llvm.dbg.value(metadata i64 %121, metadata !1407, metadata !DIExpression(DW_OP_constu, 3, DW_OP_minus, DW_OP_stack_value)), !dbg !1410
  %131 = getelementptr inbounds i8, i8* %119, i64 4, !dbg !1424
  %132 = load i8, i8* %128, align 1, !dbg !1413, !tbaa !1414
  %133 = getelementptr inbounds i8, i8* %120, i64 4, !dbg !1429
  store i8 %132, i8* %130, align 1, !dbg !1420, !tbaa !1414
  call void @llvm.dbg.value(metadata i8* %131, metadata !1409, metadata !DIExpression()), !dbg !1410
  call void @llvm.dbg.value(metadata i8* %133, metadata !1408, metadata !DIExpression()), !dbg !1410
  call void @llvm.dbg.value(metadata i64 %121, metadata !1407, metadata !DIExpression(DW_OP_constu, 4, DW_OP_minus, DW_OP_stack_value)), !dbg !1410
  call void @llvm.dbg.value(metadata i64 %121, metadata !1407, metadata !DIExpression(DW_OP_constu, 4, DW_OP_minus, DW_OP_constu, 1, DW_OP_minus, DW_OP_stack_value)), !dbg !1410
  call void @llvm.dbg.value(metadata i8* %131, metadata !1409, metadata !DIExpression()), !dbg !1410
  call void @llvm.dbg.value(metadata i8* %133, metadata !1408, metadata !DIExpression()), !dbg !1410
  call void @llvm.dbg.value(metadata i64 %121, metadata !1407, metadata !DIExpression(DW_OP_constu, 4, DW_OP_minus, DW_OP_stack_value)), !dbg !1410
  %134 = getelementptr inbounds i8, i8* %119, i64 5, !dbg !1424
  %135 = load i8, i8* %131, align 1, !dbg !1413, !tbaa !1414
  %136 = getelementptr inbounds i8, i8* %120, i64 5, !dbg !1429
  store i8 %135, i8* %133, align 1, !dbg !1420, !tbaa !1414
  call void @llvm.dbg.value(metadata i8* %134, metadata !1409, metadata !DIExpression()), !dbg !1410
  call void @llvm.dbg.value(metadata i8* %136, metadata !1408, metadata !DIExpression()), !dbg !1410
  call void @llvm.dbg.value(metadata i64 %121, metadata !1407, metadata !DIExpression(DW_OP_constu, 5, DW_OP_minus, DW_OP_stack_value)), !dbg !1410
  call void @llvm.dbg.value(metadata i64 %121, metadata !1407, metadata !DIExpression(DW_OP_constu, 5, DW_OP_minus, DW_OP_constu, 1, DW_OP_minus, DW_OP_stack_value)), !dbg !1410
  call void @llvm.dbg.value(metadata i8* %134, metadata !1409, metadata !DIExpression()), !dbg !1410
  call void @llvm.dbg.value(metadata i8* %136, metadata !1408, metadata !DIExpression()), !dbg !1410
  call void @llvm.dbg.value(metadata i64 %121, metadata !1407, metadata !DIExpression(DW_OP_constu, 5, DW_OP_minus, DW_OP_stack_value)), !dbg !1410
  %137 = getelementptr inbounds i8, i8* %119, i64 6, !dbg !1424
  %138 = load i8, i8* %134, align 1, !dbg !1413, !tbaa !1414
  %139 = getelementptr inbounds i8, i8* %120, i64 6, !dbg !1429
  store i8 %138, i8* %136, align 1, !dbg !1420, !tbaa !1414
  call void @llvm.dbg.value(metadata i8* %137, metadata !1409, metadata !DIExpression()), !dbg !1410
  call void @llvm.dbg.value(metadata i8* %139, metadata !1408, metadata !DIExpression()), !dbg !1410
  call void @llvm.dbg.value(metadata i64 %121, metadata !1407, metadata !DIExpression(DW_OP_constu, 6, DW_OP_minus, DW_OP_stack_value)), !dbg !1410
  call void @llvm.dbg.value(metadata i64 %121, metadata !1407, metadata !DIExpression(DW_OP_constu, 6, DW_OP_minus, DW_OP_constu, 1, DW_OP_minus, DW_OP_stack_value)), !dbg !1410
  call void @llvm.dbg.value(metadata i8* %137, metadata !1409, metadata !DIExpression()), !dbg !1410
  call void @llvm.dbg.value(metadata i8* %139, metadata !1408, metadata !DIExpression()), !dbg !1410
  call void @llvm.dbg.value(metadata i64 %121, metadata !1407, metadata !DIExpression(DW_OP_constu, 6, DW_OP_minus, DW_OP_stack_value)), !dbg !1410
  %140 = getelementptr inbounds i8, i8* %119, i64 7, !dbg !1424
  %141 = load i8, i8* %137, align 1, !dbg !1413, !tbaa !1414
  %142 = getelementptr inbounds i8, i8* %120, i64 7, !dbg !1429
  store i8 %141, i8* %139, align 1, !dbg !1420, !tbaa !1414
  call void @llvm.dbg.value(metadata i8* %140, metadata !1409, metadata !DIExpression()), !dbg !1410
  call void @llvm.dbg.value(metadata i8* %142, metadata !1408, metadata !DIExpression()), !dbg !1410
  call void @llvm.dbg.value(metadata i64 %121, metadata !1407, metadata !DIExpression(DW_OP_constu, 7, DW_OP_minus, DW_OP_stack_value)), !dbg !1410
  call void @llvm.dbg.value(metadata i64 %121, metadata !1407, metadata !DIExpression(DW_OP_constu, 7, DW_OP_minus, DW_OP_constu, 1, DW_OP_minus, DW_OP_stack_value)), !dbg !1410
  call void @llvm.dbg.value(metadata i8* %140, metadata !1409, metadata !DIExpression()), !dbg !1410
  call void @llvm.dbg.value(metadata i8* %142, metadata !1408, metadata !DIExpression()), !dbg !1410
  call void @llvm.dbg.value(metadata i64 %121, metadata !1407, metadata !DIExpression(DW_OP_constu, 7, DW_OP_minus, DW_OP_stack_value)), !dbg !1410
  %143 = add i64 %121, -8, !dbg !1428
  %144 = getelementptr inbounds i8, i8* %119, i64 8, !dbg !1424
  %145 = load i8, i8* %140, align 1, !dbg !1413, !tbaa !1414
  %146 = getelementptr inbounds i8, i8* %120, i64 8, !dbg !1429
  store i8 %145, i8* %142, align 1, !dbg !1420, !tbaa !1414
  call void @llvm.dbg.value(metadata i8* %144, metadata !1409, metadata !DIExpression()), !dbg !1410
  call void @llvm.dbg.value(metadata i8* %146, metadata !1408, metadata !DIExpression()), !dbg !1410
  call void @llvm.dbg.value(metadata i64 %143, metadata !1407, metadata !DIExpression()), !dbg !1410
  call void @llvm.dbg.value(metadata i64 %143, metadata !1407, metadata !DIExpression(DW_OP_constu, 1, DW_OP_minus, DW_OP_stack_value)), !dbg !1410
  %147 = icmp eq i64 %143, 0, !dbg !1411
  br i1 %147, label %148, label %118, !dbg !1412, !llvm.loop !1431

148:                                              ; preds = %113, %118, %93, %3
  ret i8* %0, !dbg !1432
}

define internal void @klee.ctor_stub() {
entry:
  ret void
}

attributes #0 = { norecurse uwtable "correctly-rounded-divide-sqrt-fp-math"="false" "disable-tail-calls"="false" "frame-pointer"="none" "less-precise-fpmad"="false" "min-legal-vector-width"="0" "no-infs-fp-math"="false" "no-jump-tables"="false" "no-nans-fp-math"="false" "no-signed-zeros-fp-math"="false" "no-trapping-math"="false" "stack-protector-buffer-size"="8" "target-cpu"="x86-64" "target-features"="+cx8,+fxsr,+mmx,+sse,+sse2,+x87" "unsafe-fp-math"="false" "use-soft-float"="false" }
attributes #1 = { argmemonly nounwind willreturn }
attributes #2 = { nounwind readnone speculatable willreturn }
attributes #3 = { "correctly-rounded-divide-sqrt-fp-math"="false" "disable-tail-calls"="false" "frame-pointer"="none" "less-precise-fpmad"="false" "no-infs-fp-math"="false" "no-nans-fp-math"="false" "no-signed-zeros-fp-math"="false" "no-trapping-math"="false" "stack-protector-buffer-size"="8" "target-cpu"="x86-64" "target-features"="+cx8,+fxsr,+mmx,+sse,+sse2,+x87" "unsafe-fp-math"="false" "use-soft-float"="false" }
attributes #4 = { noreturn nounwind "correctly-rounded-divide-sqrt-fp-math"="false" "disable-tail-calls"="false" "frame-pointer"="none" "less-precise-fpmad"="false" "no-infs-fp-math"="false" "no-nans-fp-math"="false" "no-signed-zeros-fp-math"="false" "no-trapping-math"="false" "stack-protector-buffer-size"="8" "target-cpu"="x86-64" "target-features"="+cx8,+fxsr,+mmx,+sse,+sse2,+x87" "unsafe-fp-math"="false" "use-soft-float"="false" }
attributes #5 = { nofree norecurse nounwind uwtable "correctly-rounded-divide-sqrt-fp-math"="false" "disable-tail-calls"="false" "frame-pointer"="none" "less-precise-fpmad"="false" "min-legal-vector-width"="0" "no-infs-fp-math"="false" "no-jump-tables"="false" "no-nans-fp-math"="false" "no-signed-zeros-fp-math"="false" "no-trapping-math"="false" "stack-protector-buffer-size"="8" "target-cpu"="x86-64" "target-features"="+cx8,+fxsr,+mmx,+sse,+sse2,+x87" "unsafe-fp-math"="false" "use-soft-float"="false" }
attributes #6 = { noreturn nounwind }

!llvm.dbg.cu = !{!2, !1321}
!llvm.module.flags = !{!1323, !1324, !1325}
!llvm.ident = !{!1326, !1327}

!0 = !DIGlobalVariableExpression(var: !1, expr: !DIExpression())
!1 = distinct !DIGlobalVariable(name: "generator", scope: !2, file: !3, line: 10, type: !1319, isLocal: false, isDefinition: true)
!2 = distinct !DICompileUnit(language: DW_LANG_C_plus_plus_14, file: !3, producer: "clang version 10.0.0-4ubuntu1 ", isOptimized: true, runtimeVersion: 0, emissionKind: FullDebug, enums: !4, retainedTypes: !5, globals: !62, imports: !114, splitDebugInlining: false, nameTableKind: None)
!3 = !DIFile(filename: "example2.cpp", directory: "/home/mlc655/Documents/PSE-Program-Examples")
!4 = !{}
!5 = !{!6, !17, !20, !21, !24, !27}
!6 = !DISubprogram(name: "klee_make_pse_symbolic", scope: !7, file: !7, line: 48, type: !8, flags: DIFlagPrototyped, spFlags: DISPFlagOptimized, retainedNodes: !4)
!7 = !DIFile(filename: "/usr/local/include/klee/klee.h", directory: "")
!8 = !DISubroutineType(types: !9)
!9 = !{null, !10, !11, !12, !15, !15}
!10 = !DIDerivedType(tag: DW_TAG_pointer_type, baseType: null, size: 64)
!11 = !DIBasicType(name: "long unsigned int", size: 64, encoding: DW_ATE_unsigned)
!12 = !DIDerivedType(tag: DW_TAG_pointer_type, baseType: !13, size: 64)
!13 = !DIDerivedType(tag: DW_TAG_const_type, baseType: !14)
!14 = !DIBasicType(name: "char", size: 8, encoding: DW_ATE_signed_char)
!15 = !DIDerivedType(tag: DW_TAG_pointer_type, baseType: !16, size: 64)
!16 = !DIBasicType(name: "float", size: 32, encoding: DW_ATE_float)
!17 = !DISubprogram(name: "klee_make_symbolic", scope: !7, file: !7, line: 37, type: !18, flags: DIFlagPrototyped, spFlags: DISPFlagOptimized, retainedNodes: !4)
!18 = !DISubroutineType(types: !19)
!19 = !{null, !10, !11, !12}
!20 = !DIBasicType(name: "bool", size: 8, encoding: DW_ATE_boolean)
!21 = !DISubprogram(name: "klee_dump_symbolic_details", scope: !7, file: !7, line: 134, type: !22, flags: DIFlagPrototyped, spFlags: DISPFlagOptimized, retainedNodes: !4)
!22 = !DISubroutineType(types: !23)
!23 = !{null, !10, !12}
!24 = !DISubprogram(name: "klee_dump_kquery_state", scope: !7, file: !7, line: 128, type: !25, flags: DIFlagPrototyped, spFlags: DISPFlagOptimized, retainedNodes: !4)
!25 = !DISubroutineType(types: !26)
!26 = !{null}
!27 = distinct !DICompositeType(tag: DW_TAG_class_type, name: "linear_congruential_engine<unsigned long, 16807, 0, 2147483647>", scope: !29, file: !28, line: 246, size: 64, flags: DIFlagTypePassByValue | DIFlagNonTrivial, elements: !30, templateParams: !57, identifier: "_ZTSSt26linear_congruential_engineImLm16807ELm0ELm2147483647EE")
!28 = !DIFile(filename: "/usr/bin/../lib/gcc/x86_64-linux-gnu/10/../../../../include/c++/10/bits/random.h", directory: "")
!29 = !DINamespace(name: "std", scope: null)
!30 = !{!31, !34, !35, !36, !37, !38, !42, !45, !46, !49, !50, !54}
!31 = !DIDerivedType(tag: DW_TAG_member, name: "multiplier", scope: !27, file: !28, line: 262, baseType: !32, flags: DIFlagPublic | DIFlagStaticMember)
!32 = !DIDerivedType(tag: DW_TAG_const_type, baseType: !33)
!33 = !DIDerivedType(tag: DW_TAG_typedef, name: "result_type", scope: !27, file: !28, line: 259, baseType: !11)
!34 = !DIDerivedType(tag: DW_TAG_member, name: "increment", scope: !27, file: !28, line: 264, baseType: !32, flags: DIFlagPublic | DIFlagStaticMember)
!35 = !DIDerivedType(tag: DW_TAG_member, name: "modulus", scope: !27, file: !28, line: 266, baseType: !32, flags: DIFlagPublic | DIFlagStaticMember)
!36 = !DIDerivedType(tag: DW_TAG_member, name: "default_seed", scope: !27, file: !28, line: 267, baseType: !32, flags: DIFlagPublic | DIFlagStaticMember)
!37 = !DIDerivedType(tag: DW_TAG_member, name: "_M_x", scope: !27, file: !28, line: 407, baseType: !11, size: 64)
!38 = !DISubprogram(name: "linear_congruential_engine", scope: !27, file: !28, line: 273, type: !39, scopeLine: 273, flags: DIFlagPublic | DIFlagPrototyped, spFlags: DISPFlagOptimized)
!39 = !DISubroutineType(types: !40)
!40 = !{null, !41}
!41 = !DIDerivedType(tag: DW_TAG_pointer_type, baseType: !27, size: 64, flags: DIFlagArtificial | DIFlagObjectPointer)
!42 = !DISubprogram(name: "linear_congruential_engine", scope: !27, file: !28, line: 284, type: !43, scopeLine: 284, flags: DIFlagPublic | DIFlagExplicit | DIFlagPrototyped, spFlags: DISPFlagOptimized)
!43 = !DISubroutineType(types: !44)
!44 = !{null, !41, !33}
!45 = !DISubprogram(name: "seed", linkageName: "_ZNSt26linear_congruential_engineImLm16807ELm0ELm2147483647EE4seedEm", scope: !27, file: !28, line: 305, type: !43, scopeLine: 305, flags: DIFlagPublic | DIFlagPrototyped, spFlags: DISPFlagOptimized)
!46 = !DISubprogram(name: "min", linkageName: "_ZNSt26linear_congruential_engineImLm16807ELm0ELm2147483647EE3minEv", scope: !27, file: !28, line: 325, type: !47, scopeLine: 325, flags: DIFlagPublic | DIFlagPrototyped | DIFlagStaticMember, spFlags: DISPFlagOptimized)
!47 = !DISubroutineType(types: !48)
!48 = !{!33}
!49 = !DISubprogram(name: "max", linkageName: "_ZNSt26linear_congruential_engineImLm16807ELm0ELm2147483647EE3maxEv", scope: !27, file: !28, line: 332, type: !47, scopeLine: 332, flags: DIFlagPublic | DIFlagPrototyped | DIFlagStaticMember, spFlags: DISPFlagOptimized)
!50 = !DISubprogram(name: "discard", linkageName: "_ZNSt26linear_congruential_engineImLm16807ELm0ELm2147483647EE7discardEy", scope: !27, file: !28, line: 339, type: !51, scopeLine: 339, flags: DIFlagPublic | DIFlagPrototyped, spFlags: DISPFlagOptimized)
!51 = !DISubroutineType(types: !52)
!52 = !{null, !41, !53}
!53 = !DIBasicType(name: "long long unsigned int", size: 64, encoding: DW_ATE_unsigned)
!54 = !DISubprogram(name: "operator()", linkageName: "_ZNSt26linear_congruential_engineImLm16807ELm0ELm2147483647EEclEv", scope: !27, file: !28, line: 349, type: !55, scopeLine: 349, flags: DIFlagPublic | DIFlagPrototyped, spFlags: DISPFlagOptimized)
!55 = !DISubroutineType(types: !56)
!56 = !{!33, !41}
!57 = !{!58, !59, !60, !61}
!58 = !DITemplateTypeParameter(name: "_UIntType", type: !11)
!59 = !DITemplateValueParameter(name: "__a", type: !11, value: i64 16807)
!60 = !DITemplateValueParameter(name: "__c", type: !11, value: i64 0)
!61 = !DITemplateValueParameter(name: "__m", type: !11, value: i64 2147483647)
!62 = !{!0, !63}
!63 = !DIGlobalVariableExpression(var: !64, expr: !DIExpression())
!64 = distinct !DIGlobalVariable(name: "distribution", scope: !2, file: !3, line: 11, type: !65, isLocal: false, isDefinition: true)
!65 = distinct !DICompositeType(tag: DW_TAG_class_type, name: "uniform_int_distribution<int>", scope: !29, file: !66, line: 74, size: 64, flags: DIFlagTypePassByValue | DIFlagNonTrivial, elements: !67, templateParams: !112, identifier: "_ZTSSt24uniform_int_distributionIiE")
!66 = !DIFile(filename: "/usr/bin/../lib/gcc/x86_64-linux-gnu/10/../../../../include/c++/10/bits/uniform_int_dist.h", directory: "")
!67 = !{!68, !88, !92, !95, !99, !100, !105, !106, !109, !110, !111}
!68 = !DIDerivedType(tag: DW_TAG_member, name: "_M_param", scope: !65, file: !66, line: 235, baseType: !69, size: 64)
!69 = distinct !DICompositeType(tag: DW_TAG_structure_type, name: "param_type", scope: !65, file: !66, line: 83, size: 64, flags: DIFlagTypePassByValue | DIFlagNonTrivial, elements: !70, identifier: "_ZTSNSt24uniform_int_distributionIiE10param_typeE")
!70 = !{!71, !73, !74, !78, !81, !87}
!71 = !DIDerivedType(tag: DW_TAG_member, name: "_M_a", scope: !69, file: !66, line: 114, baseType: !72, size: 32, flags: DIFlagPrivate)
!72 = !DIBasicType(name: "int", size: 32, encoding: DW_ATE_signed)
!73 = !DIDerivedType(tag: DW_TAG_member, name: "_M_b", scope: !69, file: !66, line: 115, baseType: !72, size: 32, offset: 32, flags: DIFlagPrivate)
!74 = !DISubprogram(name: "param_type", scope: !69, file: !66, line: 87, type: !75, scopeLine: 87, flags: DIFlagPrototyped, spFlags: DISPFlagOptimized)
!75 = !DISubroutineType(types: !76)
!76 = !{null, !77}
!77 = !DIDerivedType(tag: DW_TAG_pointer_type, baseType: !69, size: 64, flags: DIFlagArtificial | DIFlagObjectPointer)
!78 = !DISubprogram(name: "param_type", scope: !69, file: !66, line: 90, type: !79, scopeLine: 90, flags: DIFlagExplicit | DIFlagPrototyped, spFlags: DISPFlagOptimized)
!79 = !DISubroutineType(types: !80)
!80 = !{null, !77, !72, !72}
!81 = !DISubprogram(name: "a", linkageName: "_ZNKSt24uniform_int_distributionIiE10param_type1aEv", scope: !69, file: !66, line: 98, type: !82, scopeLine: 98, flags: DIFlagPrototyped, spFlags: DISPFlagOptimized)
!82 = !DISubroutineType(types: !83)
!83 = !{!84, !85}
!84 = !DIDerivedType(tag: DW_TAG_typedef, name: "result_type", scope: !65, file: !66, line: 81, baseType: !72)
!85 = !DIDerivedType(tag: DW_TAG_pointer_type, baseType: !86, size: 64, flags: DIFlagArtificial | DIFlagObjectPointer)
!86 = !DIDerivedType(tag: DW_TAG_const_type, baseType: !69)
!87 = !DISubprogram(name: "b", linkageName: "_ZNKSt24uniform_int_distributionIiE10param_type1bEv", scope: !69, file: !66, line: 102, type: !82, scopeLine: 102, flags: DIFlagPrototyped, spFlags: DISPFlagOptimized)
!88 = !DISubprogram(name: "uniform_int_distribution", scope: !65, file: !66, line: 122, type: !89, scopeLine: 122, flags: DIFlagPublic | DIFlagPrototyped, spFlags: DISPFlagOptimized)
!89 = !DISubroutineType(types: !90)
!90 = !{null, !91}
!91 = !DIDerivedType(tag: DW_TAG_pointer_type, baseType: !65, size: 64, flags: DIFlagArtificial | DIFlagObjectPointer)
!92 = !DISubprogram(name: "uniform_int_distribution", scope: !65, file: !66, line: 128, type: !93, scopeLine: 128, flags: DIFlagPublic | DIFlagExplicit | DIFlagPrototyped, spFlags: DISPFlagOptimized)
!93 = !DISubroutineType(types: !94)
!94 = !{null, !91, !72, !72}
!95 = !DISubprogram(name: "uniform_int_distribution", scope: !65, file: !66, line: 134, type: !96, scopeLine: 134, flags: DIFlagPublic | DIFlagExplicit | DIFlagPrototyped, spFlags: DISPFlagOptimized)
!96 = !DISubroutineType(types: !97)
!97 = !{null, !91, !98}
!98 = !DIDerivedType(tag: DW_TAG_reference_type, baseType: !86, size: 64)
!99 = !DISubprogram(name: "reset", linkageName: "_ZNSt24uniform_int_distributionIiE5resetEv", scope: !65, file: !66, line: 144, type: !89, scopeLine: 144, flags: DIFlagPublic | DIFlagPrototyped, spFlags: DISPFlagOptimized)
!100 = !DISubprogram(name: "a", linkageName: "_ZNKSt24uniform_int_distributionIiE1aEv", scope: !65, file: !66, line: 147, type: !101, scopeLine: 147, flags: DIFlagPublic | DIFlagPrototyped, spFlags: DISPFlagOptimized)
!101 = !DISubroutineType(types: !102)
!102 = !{!84, !103}
!103 = !DIDerivedType(tag: DW_TAG_pointer_type, baseType: !104, size: 64, flags: DIFlagArtificial | DIFlagObjectPointer)
!104 = !DIDerivedType(tag: DW_TAG_const_type, baseType: !65)
!105 = !DISubprogram(name: "b", linkageName: "_ZNKSt24uniform_int_distributionIiE1bEv", scope: !65, file: !66, line: 151, type: !101, scopeLine: 151, flags: DIFlagPublic | DIFlagPrototyped, spFlags: DISPFlagOptimized)
!106 = !DISubprogram(name: "param", linkageName: "_ZNKSt24uniform_int_distributionIiE5paramEv", scope: !65, file: !66, line: 158, type: !107, scopeLine: 158, flags: DIFlagPublic | DIFlagPrototyped, spFlags: DISPFlagOptimized)
!107 = !DISubroutineType(types: !108)
!108 = !{!69, !103}
!109 = !DISubprogram(name: "param", linkageName: "_ZNSt24uniform_int_distributionIiE5paramERKNS0_10param_typeE", scope: !65, file: !66, line: 166, type: !96, scopeLine: 166, flags: DIFlagPublic | DIFlagPrototyped, spFlags: DISPFlagOptimized)
!110 = !DISubprogram(name: "min", linkageName: "_ZNKSt24uniform_int_distributionIiE3minEv", scope: !65, file: !66, line: 173, type: !101, scopeLine: 173, flags: DIFlagPublic | DIFlagPrototyped, spFlags: DISPFlagOptimized)
!111 = !DISubprogram(name: "max", linkageName: "_ZNKSt24uniform_int_distributionIiE3maxEv", scope: !65, file: !66, line: 180, type: !101, scopeLine: 180, flags: DIFlagPublic | DIFlagPrototyped, spFlags: DISPFlagOptimized)
!112 = !{!113}
!113 = !DITemplateTypeParameter(name: "_IntType", type: !72)
!114 = !{!115, !121, !128, !130, !132, !136, !138, !140, !142, !144, !146, !148, !150, !155, !159, !161, !163, !168, !170, !172, !174, !176, !178, !180, !183, !185, !187, !191, !196, !198, !200, !202, !204, !206, !208, !210, !212, !214, !216, !220, !224, !226, !228, !230, !232, !234, !236, !238, !240, !242, !244, !246, !248, !250, !252, !254, !258, !262, !266, !268, !270, !272, !274, !276, !278, !280, !282, !284, !288, !292, !296, !298, !300, !302, !307, !311, !315, !317, !319, !321, !323, !325, !327, !329, !331, !333, !335, !337, !339, !344, !348, !352, !354, !356, !358, !362, !366, !370, !372, !374, !376, !378, !380, !382, !386, !390, !392, !394, !396, !398, !402, !406, !410, !412, !414, !416, !418, !420, !422, !426, !430, !434, !436, !440, !444, !446, !448, !450, !452, !454, !456, !460, !464, !470, !472, !478, !483, !485, !488, !492, !496, !507, !509, !513, !517, !521, !526, !530, !534, !538, !542, !550, !554, !558, !560, !564, !568, !573, !579, !583, !587, !589, !597, !601, !608, !610, !614, !618, !622, !626, !630, !634, !638, !639, !640, !641, !643, !644, !645, !646, !647, !648, !649, !666, !669, !674, !733, !738, !742, !746, !750, !754, !756, !758, !762, !768, !772, !778, !784, !786, !790, !794, !798, !802, !813, !815, !819, !823, !827, !829, !833, !837, !841, !843, !845, !849, !857, !861, !865, !869, !871, !877, !879, !885, !889, !893, !897, !901, !905, !909, !911, !913, !917, !921, !925, !927, !931, !935, !937, !939, !943, !947, !951, !955, !956, !957, !958, !959, !960, !961, !962, !963, !964, !965, !970, !974, !977, !980, !983, !985, !987, !989, !992, !995, !998, !1001, !1004, !1006, !1011, !1014, !1017, !1020, !1022, !1024, !1026, !1028, !1031, !1034, !1037, !1040, !1043, !1045, !1100, !1104, !1108, !1112, !1117, !1121, !1123, !1125, !1127, !1129, !1131, !1133, !1135, !1137, !1139, !1141, !1143, !1145, !1147, !1151, !1157, !1162, !1166, !1168, !1170, !1172, !1174, !1181, !1185, !1189, !1193, !1197, !1201, !1206, !1210, !1212, !1216, !1222, !1226, !1231, !1233, !1236, !1240, !1244, !1246, !1248, !1250, !1252, !1256, !1258, !1260, !1264, !1268, !1272, !1276, !1280, !1284, !1286, !1290, !1294, !1298, !1302, !1304, !1306, !1310, !1314, !1315, !1316, !1317, !1318}
!115 = !DIImportedEntity(tag: DW_TAG_imported_declaration, scope: !29, entity: !116, file: !120, line: 52)
!116 = !DISubprogram(name: "abs", scope: !117, file: !117, line: 840, type: !118, flags: DIFlagPrototyped, spFlags: DISPFlagOptimized)
!117 = !DIFile(filename: "/usr/include/stdlib.h", directory: "")
!118 = !DISubroutineType(types: !119)
!119 = !{!72, !72}
!120 = !DIFile(filename: "/usr/bin/../lib/gcc/x86_64-linux-gnu/10/../../../../include/c++/10/bits/std_abs.h", directory: "")
!121 = !DIImportedEntity(tag: DW_TAG_imported_declaration, scope: !29, entity: !122, file: !127, line: 83)
!122 = !DISubprogram(name: "acos", scope: !123, file: !123, line: 53, type: !124, flags: DIFlagPrototyped, spFlags: DISPFlagOptimized)
!123 = !DIFile(filename: "/usr/include/x86_64-linux-gnu/bits/mathcalls.h", directory: "")
!124 = !DISubroutineType(types: !125)
!125 = !{!126, !126}
!126 = !DIBasicType(name: "double", size: 64, encoding: DW_ATE_float)
!127 = !DIFile(filename: "/usr/bin/../lib/gcc/x86_64-linux-gnu/10/../../../../include/c++/10/cmath", directory: "")
!128 = !DIImportedEntity(tag: DW_TAG_imported_declaration, scope: !29, entity: !129, file: !127, line: 102)
!129 = !DISubprogram(name: "asin", scope: !123, file: !123, line: 55, type: !124, flags: DIFlagPrototyped, spFlags: DISPFlagOptimized)
!130 = !DIImportedEntity(tag: DW_TAG_imported_declaration, scope: !29, entity: !131, file: !127, line: 121)
!131 = !DISubprogram(name: "atan", scope: !123, file: !123, line: 57, type: !124, flags: DIFlagPrototyped, spFlags: DISPFlagOptimized)
!132 = !DIImportedEntity(tag: DW_TAG_imported_declaration, scope: !29, entity: !133, file: !127, line: 140)
!133 = !DISubprogram(name: "atan2", scope: !123, file: !123, line: 59, type: !134, flags: DIFlagPrototyped, spFlags: DISPFlagOptimized)
!134 = !DISubroutineType(types: !135)
!135 = !{!126, !126, !126}
!136 = !DIImportedEntity(tag: DW_TAG_imported_declaration, scope: !29, entity: !137, file: !127, line: 161)
!137 = !DISubprogram(name: "ceil", scope: !123, file: !123, line: 159, type: !124, flags: DIFlagPrototyped, spFlags: DISPFlagOptimized)
!138 = !DIImportedEntity(tag: DW_TAG_imported_declaration, scope: !29, entity: !139, file: !127, line: 180)
!139 = !DISubprogram(name: "cos", scope: !123, file: !123, line: 62, type: !124, flags: DIFlagPrototyped, spFlags: DISPFlagOptimized)
!140 = !DIImportedEntity(tag: DW_TAG_imported_declaration, scope: !29, entity: !141, file: !127, line: 199)
!141 = !DISubprogram(name: "cosh", scope: !123, file: !123, line: 71, type: !124, flags: DIFlagPrototyped, spFlags: DISPFlagOptimized)
!142 = !DIImportedEntity(tag: DW_TAG_imported_declaration, scope: !29, entity: !143, file: !127, line: 218)
!143 = !DISubprogram(name: "exp", scope: !123, file: !123, line: 95, type: !124, flags: DIFlagPrototyped, spFlags: DISPFlagOptimized)
!144 = !DIImportedEntity(tag: DW_TAG_imported_declaration, scope: !29, entity: !145, file: !127, line: 237)
!145 = !DISubprogram(name: "fabs", scope: !123, file: !123, line: 162, type: !124, flags: DIFlagPrototyped, spFlags: DISPFlagOptimized)
!146 = !DIImportedEntity(tag: DW_TAG_imported_declaration, scope: !29, entity: !147, file: !127, line: 256)
!147 = !DISubprogram(name: "floor", scope: !123, file: !123, line: 165, type: !124, flags: DIFlagPrototyped, spFlags: DISPFlagOptimized)
!148 = !DIImportedEntity(tag: DW_TAG_imported_declaration, scope: !29, entity: !149, file: !127, line: 275)
!149 = !DISubprogram(name: "fmod", scope: !123, file: !123, line: 168, type: !134, flags: DIFlagPrototyped, spFlags: DISPFlagOptimized)
!150 = !DIImportedEntity(tag: DW_TAG_imported_declaration, scope: !29, entity: !151, file: !127, line: 296)
!151 = !DISubprogram(name: "frexp", scope: !123, file: !123, line: 98, type: !152, flags: DIFlagPrototyped, spFlags: DISPFlagOptimized)
!152 = !DISubroutineType(types: !153)
!153 = !{!126, !126, !154}
!154 = !DIDerivedType(tag: DW_TAG_pointer_type, baseType: !72, size: 64)
!155 = !DIImportedEntity(tag: DW_TAG_imported_declaration, scope: !29, entity: !156, file: !127, line: 315)
!156 = !DISubprogram(name: "ldexp", scope: !123, file: !123, line: 101, type: !157, flags: DIFlagPrototyped, spFlags: DISPFlagOptimized)
!157 = !DISubroutineType(types: !158)
!158 = !{!126, !126, !72}
!159 = !DIImportedEntity(tag: DW_TAG_imported_declaration, scope: !29, entity: !160, file: !127, line: 334)
!160 = !DISubprogram(name: "log", scope: !123, file: !123, line: 104, type: !124, flags: DIFlagPrototyped, spFlags: DISPFlagOptimized)
!161 = !DIImportedEntity(tag: DW_TAG_imported_declaration, scope: !29, entity: !162, file: !127, line: 353)
!162 = !DISubprogram(name: "log10", scope: !123, file: !123, line: 107, type: !124, flags: DIFlagPrototyped, spFlags: DISPFlagOptimized)
!163 = !DIImportedEntity(tag: DW_TAG_imported_declaration, scope: !29, entity: !164, file: !127, line: 372)
!164 = !DISubprogram(name: "modf", scope: !123, file: !123, line: 110, type: !165, flags: DIFlagPrototyped, spFlags: DISPFlagOptimized)
!165 = !DISubroutineType(types: !166)
!166 = !{!126, !126, !167}
!167 = !DIDerivedType(tag: DW_TAG_pointer_type, baseType: !126, size: 64)
!168 = !DIImportedEntity(tag: DW_TAG_imported_declaration, scope: !29, entity: !169, file: !127, line: 384)
!169 = !DISubprogram(name: "pow", scope: !123, file: !123, line: 140, type: !134, flags: DIFlagPrototyped, spFlags: DISPFlagOptimized)
!170 = !DIImportedEntity(tag: DW_TAG_imported_declaration, scope: !29, entity: !171, file: !127, line: 421)
!171 = !DISubprogram(name: "sin", scope: !123, file: !123, line: 64, type: !124, flags: DIFlagPrototyped, spFlags: DISPFlagOptimized)
!172 = !DIImportedEntity(tag: DW_TAG_imported_declaration, scope: !29, entity: !173, file: !127, line: 440)
!173 = !DISubprogram(name: "sinh", scope: !123, file: !123, line: 73, type: !124, flags: DIFlagPrototyped, spFlags: DISPFlagOptimized)
!174 = !DIImportedEntity(tag: DW_TAG_imported_declaration, scope: !29, entity: !175, file: !127, line: 459)
!175 = !DISubprogram(name: "sqrt", scope: !123, file: !123, line: 143, type: !124, flags: DIFlagPrototyped, spFlags: DISPFlagOptimized)
!176 = !DIImportedEntity(tag: DW_TAG_imported_declaration, scope: !29, entity: !177, file: !127, line: 478)
!177 = !DISubprogram(name: "tan", scope: !123, file: !123, line: 66, type: !124, flags: DIFlagPrototyped, spFlags: DISPFlagOptimized)
!178 = !DIImportedEntity(tag: DW_TAG_imported_declaration, scope: !29, entity: !179, file: !127, line: 497)
!179 = !DISubprogram(name: "tanh", scope: !123, file: !123, line: 75, type: !124, flags: DIFlagPrototyped, spFlags: DISPFlagOptimized)
!180 = !DIImportedEntity(tag: DW_TAG_imported_declaration, scope: !29, entity: !181, file: !127, line: 1065)
!181 = !DIDerivedType(tag: DW_TAG_typedef, name: "double_t", file: !182, line: 150, baseType: !126)
!182 = !DIFile(filename: "/usr/include/math.h", directory: "")
!183 = !DIImportedEntity(tag: DW_TAG_imported_declaration, scope: !29, entity: !184, file: !127, line: 1066)
!184 = !DIDerivedType(tag: DW_TAG_typedef, name: "float_t", file: !182, line: 149, baseType: !16)
!185 = !DIImportedEntity(tag: DW_TAG_imported_declaration, scope: !29, entity: !186, file: !127, line: 1069)
!186 = !DISubprogram(name: "acosh", scope: !123, file: !123, line: 85, type: !124, flags: DIFlagPrototyped, spFlags: DISPFlagOptimized)
!187 = !DIImportedEntity(tag: DW_TAG_imported_declaration, scope: !29, entity: !188, file: !127, line: 1070)
!188 = !DISubprogram(name: "acoshf", scope: !123, file: !123, line: 85, type: !189, flags: DIFlagPrototyped, spFlags: DISPFlagOptimized)
!189 = !DISubroutineType(types: !190)
!190 = !{!16, !16}
!191 = !DIImportedEntity(tag: DW_TAG_imported_declaration, scope: !29, entity: !192, file: !127, line: 1071)
!192 = !DISubprogram(name: "acoshl", scope: !123, file: !123, line: 85, type: !193, flags: DIFlagPrototyped, spFlags: DISPFlagOptimized)
!193 = !DISubroutineType(types: !194)
!194 = !{!195, !195}
!195 = !DIBasicType(name: "long double", size: 128, encoding: DW_ATE_float)
!196 = !DIImportedEntity(tag: DW_TAG_imported_declaration, scope: !29, entity: !197, file: !127, line: 1073)
!197 = !DISubprogram(name: "asinh", scope: !123, file: !123, line: 87, type: !124, flags: DIFlagPrototyped, spFlags: DISPFlagOptimized)
!198 = !DIImportedEntity(tag: DW_TAG_imported_declaration, scope: !29, entity: !199, file: !127, line: 1074)
!199 = !DISubprogram(name: "asinhf", scope: !123, file: !123, line: 87, type: !189, flags: DIFlagPrototyped, spFlags: DISPFlagOptimized)
!200 = !DIImportedEntity(tag: DW_TAG_imported_declaration, scope: !29, entity: !201, file: !127, line: 1075)
!201 = !DISubprogram(name: "asinhl", scope: !123, file: !123, line: 87, type: !193, flags: DIFlagPrototyped, spFlags: DISPFlagOptimized)
!202 = !DIImportedEntity(tag: DW_TAG_imported_declaration, scope: !29, entity: !203, file: !127, line: 1077)
!203 = !DISubprogram(name: "atanh", scope: !123, file: !123, line: 89, type: !124, flags: DIFlagPrototyped, spFlags: DISPFlagOptimized)
!204 = !DIImportedEntity(tag: DW_TAG_imported_declaration, scope: !29, entity: !205, file: !127, line: 1078)
!205 = !DISubprogram(name: "atanhf", scope: !123, file: !123, line: 89, type: !189, flags: DIFlagPrototyped, spFlags: DISPFlagOptimized)
!206 = !DIImportedEntity(tag: DW_TAG_imported_declaration, scope: !29, entity: !207, file: !127, line: 1079)
!207 = !DISubprogram(name: "atanhl", scope: !123, file: !123, line: 89, type: !193, flags: DIFlagPrototyped, spFlags: DISPFlagOptimized)
!208 = !DIImportedEntity(tag: DW_TAG_imported_declaration, scope: !29, entity: !209, file: !127, line: 1081)
!209 = !DISubprogram(name: "cbrt", scope: !123, file: !123, line: 152, type: !124, flags: DIFlagPrototyped, spFlags: DISPFlagOptimized)
!210 = !DIImportedEntity(tag: DW_TAG_imported_declaration, scope: !29, entity: !211, file: !127, line: 1082)
!211 = !DISubprogram(name: "cbrtf", scope: !123, file: !123, line: 152, type: !189, flags: DIFlagPrototyped, spFlags: DISPFlagOptimized)
!212 = !DIImportedEntity(tag: DW_TAG_imported_declaration, scope: !29, entity: !213, file: !127, line: 1083)
!213 = !DISubprogram(name: "cbrtl", scope: !123, file: !123, line: 152, type: !193, flags: DIFlagPrototyped, spFlags: DISPFlagOptimized)
!214 = !DIImportedEntity(tag: DW_TAG_imported_declaration, scope: !29, entity: !215, file: !127, line: 1085)
!215 = !DISubprogram(name: "copysign", scope: !123, file: !123, line: 196, type: !134, flags: DIFlagPrototyped, spFlags: DISPFlagOptimized)
!216 = !DIImportedEntity(tag: DW_TAG_imported_declaration, scope: !29, entity: !217, file: !127, line: 1086)
!217 = !DISubprogram(name: "copysignf", scope: !123, file: !123, line: 196, type: !218, flags: DIFlagPrototyped, spFlags: DISPFlagOptimized)
!218 = !DISubroutineType(types: !219)
!219 = !{!16, !16, !16}
!220 = !DIImportedEntity(tag: DW_TAG_imported_declaration, scope: !29, entity: !221, file: !127, line: 1087)
!221 = !DISubprogram(name: "copysignl", scope: !123, file: !123, line: 196, type: !222, flags: DIFlagPrototyped, spFlags: DISPFlagOptimized)
!222 = !DISubroutineType(types: !223)
!223 = !{!195, !195, !195}
!224 = !DIImportedEntity(tag: DW_TAG_imported_declaration, scope: !29, entity: !225, file: !127, line: 1089)
!225 = !DISubprogram(name: "erf", scope: !123, file: !123, line: 228, type: !124, flags: DIFlagPrototyped, spFlags: DISPFlagOptimized)
!226 = !DIImportedEntity(tag: DW_TAG_imported_declaration, scope: !29, entity: !227, file: !127, line: 1090)
!227 = !DISubprogram(name: "erff", scope: !123, file: !123, line: 228, type: !189, flags: DIFlagPrototyped, spFlags: DISPFlagOptimized)
!228 = !DIImportedEntity(tag: DW_TAG_imported_declaration, scope: !29, entity: !229, file: !127, line: 1091)
!229 = !DISubprogram(name: "erfl", scope: !123, file: !123, line: 228, type: !193, flags: DIFlagPrototyped, spFlags: DISPFlagOptimized)
!230 = !DIImportedEntity(tag: DW_TAG_imported_declaration, scope: !29, entity: !231, file: !127, line: 1093)
!231 = !DISubprogram(name: "erfc", scope: !123, file: !123, line: 229, type: !124, flags: DIFlagPrototyped, spFlags: DISPFlagOptimized)
!232 = !DIImportedEntity(tag: DW_TAG_imported_declaration, scope: !29, entity: !233, file: !127, line: 1094)
!233 = !DISubprogram(name: "erfcf", scope: !123, file: !123, line: 229, type: !189, flags: DIFlagPrototyped, spFlags: DISPFlagOptimized)
!234 = !DIImportedEntity(tag: DW_TAG_imported_declaration, scope: !29, entity: !235, file: !127, line: 1095)
!235 = !DISubprogram(name: "erfcl", scope: !123, file: !123, line: 229, type: !193, flags: DIFlagPrototyped, spFlags: DISPFlagOptimized)
!236 = !DIImportedEntity(tag: DW_TAG_imported_declaration, scope: !29, entity: !237, file: !127, line: 1097)
!237 = !DISubprogram(name: "exp2", scope: !123, file: !123, line: 130, type: !124, flags: DIFlagPrototyped, spFlags: DISPFlagOptimized)
!238 = !DIImportedEntity(tag: DW_TAG_imported_declaration, scope: !29, entity: !239, file: !127, line: 1098)
!239 = !DISubprogram(name: "exp2f", scope: !123, file: !123, line: 130, type: !189, flags: DIFlagPrototyped, spFlags: DISPFlagOptimized)
!240 = !DIImportedEntity(tag: DW_TAG_imported_declaration, scope: !29, entity: !241, file: !127, line: 1099)
!241 = !DISubprogram(name: "exp2l", scope: !123, file: !123, line: 130, type: !193, flags: DIFlagPrototyped, spFlags: DISPFlagOptimized)
!242 = !DIImportedEntity(tag: DW_TAG_imported_declaration, scope: !29, entity: !243, file: !127, line: 1101)
!243 = !DISubprogram(name: "expm1", scope: !123, file: !123, line: 119, type: !124, flags: DIFlagPrototyped, spFlags: DISPFlagOptimized)
!244 = !DIImportedEntity(tag: DW_TAG_imported_declaration, scope: !29, entity: !245, file: !127, line: 1102)
!245 = !DISubprogram(name: "expm1f", scope: !123, file: !123, line: 119, type: !189, flags: DIFlagPrototyped, spFlags: DISPFlagOptimized)
!246 = !DIImportedEntity(tag: DW_TAG_imported_declaration, scope: !29, entity: !247, file: !127, line: 1103)
!247 = !DISubprogram(name: "expm1l", scope: !123, file: !123, line: 119, type: !193, flags: DIFlagPrototyped, spFlags: DISPFlagOptimized)
!248 = !DIImportedEntity(tag: DW_TAG_imported_declaration, scope: !29, entity: !249, file: !127, line: 1105)
!249 = !DISubprogram(name: "fdim", scope: !123, file: !123, line: 326, type: !134, flags: DIFlagPrototyped, spFlags: DISPFlagOptimized)
!250 = !DIImportedEntity(tag: DW_TAG_imported_declaration, scope: !29, entity: !251, file: !127, line: 1106)
!251 = !DISubprogram(name: "fdimf", scope: !123, file: !123, line: 326, type: !218, flags: DIFlagPrototyped, spFlags: DISPFlagOptimized)
!252 = !DIImportedEntity(tag: DW_TAG_imported_declaration, scope: !29, entity: !253, file: !127, line: 1107)
!253 = !DISubprogram(name: "fdiml", scope: !123, file: !123, line: 326, type: !222, flags: DIFlagPrototyped, spFlags: DISPFlagOptimized)
!254 = !DIImportedEntity(tag: DW_TAG_imported_declaration, scope: !29, entity: !255, file: !127, line: 1109)
!255 = !DISubprogram(name: "fma", scope: !123, file: !123, line: 335, type: !256, flags: DIFlagPrototyped, spFlags: DISPFlagOptimized)
!256 = !DISubroutineType(types: !257)
!257 = !{!126, !126, !126, !126}
!258 = !DIImportedEntity(tag: DW_TAG_imported_declaration, scope: !29, entity: !259, file: !127, line: 1110)
!259 = !DISubprogram(name: "fmaf", scope: !123, file: !123, line: 335, type: !260, flags: DIFlagPrototyped, spFlags: DISPFlagOptimized)
!260 = !DISubroutineType(types: !261)
!261 = !{!16, !16, !16, !16}
!262 = !DIImportedEntity(tag: DW_TAG_imported_declaration, scope: !29, entity: !263, file: !127, line: 1111)
!263 = !DISubprogram(name: "fmal", scope: !123, file: !123, line: 335, type: !264, flags: DIFlagPrototyped, spFlags: DISPFlagOptimized)
!264 = !DISubroutineType(types: !265)
!265 = !{!195, !195, !195, !195}
!266 = !DIImportedEntity(tag: DW_TAG_imported_declaration, scope: !29, entity: !267, file: !127, line: 1113)
!267 = !DISubprogram(name: "fmax", scope: !123, file: !123, line: 329, type: !134, flags: DIFlagPrototyped, spFlags: DISPFlagOptimized)
!268 = !DIImportedEntity(tag: DW_TAG_imported_declaration, scope: !29, entity: !269, file: !127, line: 1114)
!269 = !DISubprogram(name: "fmaxf", scope: !123, file: !123, line: 329, type: !218, flags: DIFlagPrototyped, spFlags: DISPFlagOptimized)
!270 = !DIImportedEntity(tag: DW_TAG_imported_declaration, scope: !29, entity: !271, file: !127, line: 1115)
!271 = !DISubprogram(name: "fmaxl", scope: !123, file: !123, line: 329, type: !222, flags: DIFlagPrototyped, spFlags: DISPFlagOptimized)
!272 = !DIImportedEntity(tag: DW_TAG_imported_declaration, scope: !29, entity: !273, file: !127, line: 1117)
!273 = !DISubprogram(name: "fmin", scope: !123, file: !123, line: 332, type: !134, flags: DIFlagPrototyped, spFlags: DISPFlagOptimized)
!274 = !DIImportedEntity(tag: DW_TAG_imported_declaration, scope: !29, entity: !275, file: !127, line: 1118)
!275 = !DISubprogram(name: "fminf", scope: !123, file: !123, line: 332, type: !218, flags: DIFlagPrototyped, spFlags: DISPFlagOptimized)
!276 = !DIImportedEntity(tag: DW_TAG_imported_declaration, scope: !29, entity: !277, file: !127, line: 1119)
!277 = !DISubprogram(name: "fminl", scope: !123, file: !123, line: 332, type: !222, flags: DIFlagPrototyped, spFlags: DISPFlagOptimized)
!278 = !DIImportedEntity(tag: DW_TAG_imported_declaration, scope: !29, entity: !279, file: !127, line: 1121)
!279 = !DISubprogram(name: "hypot", scope: !123, file: !123, line: 147, type: !134, flags: DIFlagPrototyped, spFlags: DISPFlagOptimized)
!280 = !DIImportedEntity(tag: DW_TAG_imported_declaration, scope: !29, entity: !281, file: !127, line: 1122)
!281 = !DISubprogram(name: "hypotf", scope: !123, file: !123, line: 147, type: !218, flags: DIFlagPrototyped, spFlags: DISPFlagOptimized)
!282 = !DIImportedEntity(tag: DW_TAG_imported_declaration, scope: !29, entity: !283, file: !127, line: 1123)
!283 = !DISubprogram(name: "hypotl", scope: !123, file: !123, line: 147, type: !222, flags: DIFlagPrototyped, spFlags: DISPFlagOptimized)
!284 = !DIImportedEntity(tag: DW_TAG_imported_declaration, scope: !29, entity: !285, file: !127, line: 1125)
!285 = !DISubprogram(name: "ilogb", scope: !123, file: !123, line: 280, type: !286, flags: DIFlagPrototyped, spFlags: DISPFlagOptimized)
!286 = !DISubroutineType(types: !287)
!287 = !{!72, !126}
!288 = !DIImportedEntity(tag: DW_TAG_imported_declaration, scope: !29, entity: !289, file: !127, line: 1126)
!289 = !DISubprogram(name: "ilogbf", scope: !123, file: !123, line: 280, type: !290, flags: DIFlagPrototyped, spFlags: DISPFlagOptimized)
!290 = !DISubroutineType(types: !291)
!291 = !{!72, !16}
!292 = !DIImportedEntity(tag: DW_TAG_imported_declaration, scope: !29, entity: !293, file: !127, line: 1127)
!293 = !DISubprogram(name: "ilogbl", scope: !123, file: !123, line: 280, type: !294, flags: DIFlagPrototyped, spFlags: DISPFlagOptimized)
!294 = !DISubroutineType(types: !295)
!295 = !{!72, !195}
!296 = !DIImportedEntity(tag: DW_TAG_imported_declaration, scope: !29, entity: !297, file: !127, line: 1129)
!297 = !DISubprogram(name: "lgamma", scope: !123, file: !123, line: 230, type: !124, flags: DIFlagPrototyped, spFlags: DISPFlagOptimized)
!298 = !DIImportedEntity(tag: DW_TAG_imported_declaration, scope: !29, entity: !299, file: !127, line: 1130)
!299 = !DISubprogram(name: "lgammaf", scope: !123, file: !123, line: 230, type: !189, flags: DIFlagPrototyped, spFlags: DISPFlagOptimized)
!300 = !DIImportedEntity(tag: DW_TAG_imported_declaration, scope: !29, entity: !301, file: !127, line: 1131)
!301 = !DISubprogram(name: "lgammal", scope: !123, file: !123, line: 230, type: !193, flags: DIFlagPrototyped, spFlags: DISPFlagOptimized)
!302 = !DIImportedEntity(tag: DW_TAG_imported_declaration, scope: !29, entity: !303, file: !127, line: 1134)
!303 = !DISubprogram(name: "llrint", scope: !123, file: !123, line: 316, type: !304, flags: DIFlagPrototyped, spFlags: DISPFlagOptimized)
!304 = !DISubroutineType(types: !305)
!305 = !{!306, !126}
!306 = !DIBasicType(name: "long long int", size: 64, encoding: DW_ATE_signed)
!307 = !DIImportedEntity(tag: DW_TAG_imported_declaration, scope: !29, entity: !308, file: !127, line: 1135)
!308 = !DISubprogram(name: "llrintf", scope: !123, file: !123, line: 316, type: !309, flags: DIFlagPrototyped, spFlags: DISPFlagOptimized)
!309 = !DISubroutineType(types: !310)
!310 = !{!306, !16}
!311 = !DIImportedEntity(tag: DW_TAG_imported_declaration, scope: !29, entity: !312, file: !127, line: 1136)
!312 = !DISubprogram(name: "llrintl", scope: !123, file: !123, line: 316, type: !313, flags: DIFlagPrototyped, spFlags: DISPFlagOptimized)
!313 = !DISubroutineType(types: !314)
!314 = !{!306, !195}
!315 = !DIImportedEntity(tag: DW_TAG_imported_declaration, scope: !29, entity: !316, file: !127, line: 1138)
!316 = !DISubprogram(name: "llround", scope: !123, file: !123, line: 322, type: !304, flags: DIFlagPrototyped, spFlags: DISPFlagOptimized)
!317 = !DIImportedEntity(tag: DW_TAG_imported_declaration, scope: !29, entity: !318, file: !127, line: 1139)
!318 = !DISubprogram(name: "llroundf", scope: !123, file: !123, line: 322, type: !309, flags: DIFlagPrototyped, spFlags: DISPFlagOptimized)
!319 = !DIImportedEntity(tag: DW_TAG_imported_declaration, scope: !29, entity: !320, file: !127, line: 1140)
!320 = !DISubprogram(name: "llroundl", scope: !123, file: !123, line: 322, type: !313, flags: DIFlagPrototyped, spFlags: DISPFlagOptimized)
!321 = !DIImportedEntity(tag: DW_TAG_imported_declaration, scope: !29, entity: !322, file: !127, line: 1143)
!322 = !DISubprogram(name: "log1p", scope: !123, file: !123, line: 122, type: !124, flags: DIFlagPrototyped, spFlags: DISPFlagOptimized)
!323 = !DIImportedEntity(tag: DW_TAG_imported_declaration, scope: !29, entity: !324, file: !127, line: 1144)
!324 = !DISubprogram(name: "log1pf", scope: !123, file: !123, line: 122, type: !189, flags: DIFlagPrototyped, spFlags: DISPFlagOptimized)
!325 = !DIImportedEntity(tag: DW_TAG_imported_declaration, scope: !29, entity: !326, file: !127, line: 1145)
!326 = !DISubprogram(name: "log1pl", scope: !123, file: !123, line: 122, type: !193, flags: DIFlagPrototyped, spFlags: DISPFlagOptimized)
!327 = !DIImportedEntity(tag: DW_TAG_imported_declaration, scope: !29, entity: !328, file: !127, line: 1147)
!328 = !DISubprogram(name: "log2", scope: !123, file: !123, line: 133, type: !124, flags: DIFlagPrototyped, spFlags: DISPFlagOptimized)
!329 = !DIImportedEntity(tag: DW_TAG_imported_declaration, scope: !29, entity: !330, file: !127, line: 1148)
!330 = !DISubprogram(name: "log2f", scope: !123, file: !123, line: 133, type: !189, flags: DIFlagPrototyped, spFlags: DISPFlagOptimized)
!331 = !DIImportedEntity(tag: DW_TAG_imported_declaration, scope: !29, entity: !332, file: !127, line: 1149)
!332 = !DISubprogram(name: "log2l", scope: !123, file: !123, line: 133, type: !193, flags: DIFlagPrototyped, spFlags: DISPFlagOptimized)
!333 = !DIImportedEntity(tag: DW_TAG_imported_declaration, scope: !29, entity: !334, file: !127, line: 1151)
!334 = !DISubprogram(name: "logb", scope: !123, file: !123, line: 125, type: !124, flags: DIFlagPrototyped, spFlags: DISPFlagOptimized)
!335 = !DIImportedEntity(tag: DW_TAG_imported_declaration, scope: !29, entity: !336, file: !127, line: 1152)
!336 = !DISubprogram(name: "logbf", scope: !123, file: !123, line: 125, type: !189, flags: DIFlagPrototyped, spFlags: DISPFlagOptimized)
!337 = !DIImportedEntity(tag: DW_TAG_imported_declaration, scope: !29, entity: !338, file: !127, line: 1153)
!338 = !DISubprogram(name: "logbl", scope: !123, file: !123, line: 125, type: !193, flags: DIFlagPrototyped, spFlags: DISPFlagOptimized)
!339 = !DIImportedEntity(tag: DW_TAG_imported_declaration, scope: !29, entity: !340, file: !127, line: 1155)
!340 = !DISubprogram(name: "lrint", scope: !123, file: !123, line: 314, type: !341, flags: DIFlagPrototyped, spFlags: DISPFlagOptimized)
!341 = !DISubroutineType(types: !342)
!342 = !{!343, !126}
!343 = !DIBasicType(name: "long int", size: 64, encoding: DW_ATE_signed)
!344 = !DIImportedEntity(tag: DW_TAG_imported_declaration, scope: !29, entity: !345, file: !127, line: 1156)
!345 = !DISubprogram(name: "lrintf", scope: !123, file: !123, line: 314, type: !346, flags: DIFlagPrototyped, spFlags: DISPFlagOptimized)
!346 = !DISubroutineType(types: !347)
!347 = !{!343, !16}
!348 = !DIImportedEntity(tag: DW_TAG_imported_declaration, scope: !29, entity: !349, file: !127, line: 1157)
!349 = !DISubprogram(name: "lrintl", scope: !123, file: !123, line: 314, type: !350, flags: DIFlagPrototyped, spFlags: DISPFlagOptimized)
!350 = !DISubroutineType(types: !351)
!351 = !{!343, !195}
!352 = !DIImportedEntity(tag: DW_TAG_imported_declaration, scope: !29, entity: !353, file: !127, line: 1159)
!353 = !DISubprogram(name: "lround", scope: !123, file: !123, line: 320, type: !341, flags: DIFlagPrototyped, spFlags: DISPFlagOptimized)
!354 = !DIImportedEntity(tag: DW_TAG_imported_declaration, scope: !29, entity: !355, file: !127, line: 1160)
!355 = !DISubprogram(name: "lroundf", scope: !123, file: !123, line: 320, type: !346, flags: DIFlagPrototyped, spFlags: DISPFlagOptimized)
!356 = !DIImportedEntity(tag: DW_TAG_imported_declaration, scope: !29, entity: !357, file: !127, line: 1161)
!357 = !DISubprogram(name: "lroundl", scope: !123, file: !123, line: 320, type: !350, flags: DIFlagPrototyped, spFlags: DISPFlagOptimized)
!358 = !DIImportedEntity(tag: DW_TAG_imported_declaration, scope: !29, entity: !359, file: !127, line: 1163)
!359 = !DISubprogram(name: "nan", scope: !123, file: !123, line: 201, type: !360, flags: DIFlagPrototyped, spFlags: DISPFlagOptimized)
!360 = !DISubroutineType(types: !361)
!361 = !{!126, !12}
!362 = !DIImportedEntity(tag: DW_TAG_imported_declaration, scope: !29, entity: !363, file: !127, line: 1164)
!363 = !DISubprogram(name: "nanf", scope: !123, file: !123, line: 201, type: !364, flags: DIFlagPrototyped, spFlags: DISPFlagOptimized)
!364 = !DISubroutineType(types: !365)
!365 = !{!16, !12}
!366 = !DIImportedEntity(tag: DW_TAG_imported_declaration, scope: !29, entity: !367, file: !127, line: 1165)
!367 = !DISubprogram(name: "nanl", scope: !123, file: !123, line: 201, type: !368, flags: DIFlagPrototyped, spFlags: DISPFlagOptimized)
!368 = !DISubroutineType(types: !369)
!369 = !{!195, !12}
!370 = !DIImportedEntity(tag: DW_TAG_imported_declaration, scope: !29, entity: !371, file: !127, line: 1167)
!371 = !DISubprogram(name: "nearbyint", scope: !123, file: !123, line: 294, type: !124, flags: DIFlagPrototyped, spFlags: DISPFlagOptimized)
!372 = !DIImportedEntity(tag: DW_TAG_imported_declaration, scope: !29, entity: !373, file: !127, line: 1168)
!373 = !DISubprogram(name: "nearbyintf", scope: !123, file: !123, line: 294, type: !189, flags: DIFlagPrototyped, spFlags: DISPFlagOptimized)
!374 = !DIImportedEntity(tag: DW_TAG_imported_declaration, scope: !29, entity: !375, file: !127, line: 1169)
!375 = !DISubprogram(name: "nearbyintl", scope: !123, file: !123, line: 294, type: !193, flags: DIFlagPrototyped, spFlags: DISPFlagOptimized)
!376 = !DIImportedEntity(tag: DW_TAG_imported_declaration, scope: !29, entity: !377, file: !127, line: 1171)
!377 = !DISubprogram(name: "nextafter", scope: !123, file: !123, line: 259, type: !134, flags: DIFlagPrototyped, spFlags: DISPFlagOptimized)
!378 = !DIImportedEntity(tag: DW_TAG_imported_declaration, scope: !29, entity: !379, file: !127, line: 1172)
!379 = !DISubprogram(name: "nextafterf", scope: !123, file: !123, line: 259, type: !218, flags: DIFlagPrototyped, spFlags: DISPFlagOptimized)
!380 = !DIImportedEntity(tag: DW_TAG_imported_declaration, scope: !29, entity: !381, file: !127, line: 1173)
!381 = !DISubprogram(name: "nextafterl", scope: !123, file: !123, line: 259, type: !222, flags: DIFlagPrototyped, spFlags: DISPFlagOptimized)
!382 = !DIImportedEntity(tag: DW_TAG_imported_declaration, scope: !29, entity: !383, file: !127, line: 1175)
!383 = !DISubprogram(name: "nexttoward", scope: !123, file: !123, line: 261, type: !384, flags: DIFlagPrototyped, spFlags: DISPFlagOptimized)
!384 = !DISubroutineType(types: !385)
!385 = !{!126, !126, !195}
!386 = !DIImportedEntity(tag: DW_TAG_imported_declaration, scope: !29, entity: !387, file: !127, line: 1176)
!387 = !DISubprogram(name: "nexttowardf", scope: !123, file: !123, line: 261, type: !388, flags: DIFlagPrototyped, spFlags: DISPFlagOptimized)
!388 = !DISubroutineType(types: !389)
!389 = !{!16, !16, !195}
!390 = !DIImportedEntity(tag: DW_TAG_imported_declaration, scope: !29, entity: !391, file: !127, line: 1177)
!391 = !DISubprogram(name: "nexttowardl", scope: !123, file: !123, line: 261, type: !222, flags: DIFlagPrototyped, spFlags: DISPFlagOptimized)
!392 = !DIImportedEntity(tag: DW_TAG_imported_declaration, scope: !29, entity: !393, file: !127, line: 1179)
!393 = !DISubprogram(name: "remainder", scope: !123, file: !123, line: 272, type: !134, flags: DIFlagPrototyped, spFlags: DISPFlagOptimized)
!394 = !DIImportedEntity(tag: DW_TAG_imported_declaration, scope: !29, entity: !395, file: !127, line: 1180)
!395 = !DISubprogram(name: "remainderf", scope: !123, file: !123, line: 272, type: !218, flags: DIFlagPrototyped, spFlags: DISPFlagOptimized)
!396 = !DIImportedEntity(tag: DW_TAG_imported_declaration, scope: !29, entity: !397, file: !127, line: 1181)
!397 = !DISubprogram(name: "remainderl", scope: !123, file: !123, line: 272, type: !222, flags: DIFlagPrototyped, spFlags: DISPFlagOptimized)
!398 = !DIImportedEntity(tag: DW_TAG_imported_declaration, scope: !29, entity: !399, file: !127, line: 1183)
!399 = !DISubprogram(name: "remquo", scope: !123, file: !123, line: 307, type: !400, flags: DIFlagPrototyped, spFlags: DISPFlagOptimized)
!400 = !DISubroutineType(types: !401)
!401 = !{!126, !126, !126, !154}
!402 = !DIImportedEntity(tag: DW_TAG_imported_declaration, scope: !29, entity: !403, file: !127, line: 1184)
!403 = !DISubprogram(name: "remquof", scope: !123, file: !123, line: 307, type: !404, flags: DIFlagPrototyped, spFlags: DISPFlagOptimized)
!404 = !DISubroutineType(types: !405)
!405 = !{!16, !16, !16, !154}
!406 = !DIImportedEntity(tag: DW_TAG_imported_declaration, scope: !29, entity: !407, file: !127, line: 1185)
!407 = !DISubprogram(name: "remquol", scope: !123, file: !123, line: 307, type: !408, flags: DIFlagPrototyped, spFlags: DISPFlagOptimized)
!408 = !DISubroutineType(types: !409)
!409 = !{!195, !195, !195, !154}
!410 = !DIImportedEntity(tag: DW_TAG_imported_declaration, scope: !29, entity: !411, file: !127, line: 1187)
!411 = !DISubprogram(name: "rint", scope: !123, file: !123, line: 256, type: !124, flags: DIFlagPrototyped, spFlags: DISPFlagOptimized)
!412 = !DIImportedEntity(tag: DW_TAG_imported_declaration, scope: !29, entity: !413, file: !127, line: 1188)
!413 = !DISubprogram(name: "rintf", scope: !123, file: !123, line: 256, type: !189, flags: DIFlagPrototyped, spFlags: DISPFlagOptimized)
!414 = !DIImportedEntity(tag: DW_TAG_imported_declaration, scope: !29, entity: !415, file: !127, line: 1189)
!415 = !DISubprogram(name: "rintl", scope: !123, file: !123, line: 256, type: !193, flags: DIFlagPrototyped, spFlags: DISPFlagOptimized)
!416 = !DIImportedEntity(tag: DW_TAG_imported_declaration, scope: !29, entity: !417, file: !127, line: 1191)
!417 = !DISubprogram(name: "round", scope: !123, file: !123, line: 298, type: !124, flags: DIFlagPrototyped, spFlags: DISPFlagOptimized)
!418 = !DIImportedEntity(tag: DW_TAG_imported_declaration, scope: !29, entity: !419, file: !127, line: 1192)
!419 = !DISubprogram(name: "roundf", scope: !123, file: !123, line: 298, type: !189, flags: DIFlagPrototyped, spFlags: DISPFlagOptimized)
!420 = !DIImportedEntity(tag: DW_TAG_imported_declaration, scope: !29, entity: !421, file: !127, line: 1193)
!421 = !DISubprogram(name: "roundl", scope: !123, file: !123, line: 298, type: !193, flags: DIFlagPrototyped, spFlags: DISPFlagOptimized)
!422 = !DIImportedEntity(tag: DW_TAG_imported_declaration, scope: !29, entity: !423, file: !127, line: 1195)
!423 = !DISubprogram(name: "scalbln", scope: !123, file: !123, line: 290, type: !424, flags: DIFlagPrototyped, spFlags: DISPFlagOptimized)
!424 = !DISubroutineType(types: !425)
!425 = !{!126, !126, !343}
!426 = !DIImportedEntity(tag: DW_TAG_imported_declaration, scope: !29, entity: !427, file: !127, line: 1196)
!427 = !DISubprogram(name: "scalblnf", scope: !123, file: !123, line: 290, type: !428, flags: DIFlagPrototyped, spFlags: DISPFlagOptimized)
!428 = !DISubroutineType(types: !429)
!429 = !{!16, !16, !343}
!430 = !DIImportedEntity(tag: DW_TAG_imported_declaration, scope: !29, entity: !431, file: !127, line: 1197)
!431 = !DISubprogram(name: "scalblnl", scope: !123, file: !123, line: 290, type: !432, flags: DIFlagPrototyped, spFlags: DISPFlagOptimized)
!432 = !DISubroutineType(types: !433)
!433 = !{!195, !195, !343}
!434 = !DIImportedEntity(tag: DW_TAG_imported_declaration, scope: !29, entity: !435, file: !127, line: 1199)
!435 = !DISubprogram(name: "scalbn", scope: !123, file: !123, line: 276, type: !157, flags: DIFlagPrototyped, spFlags: DISPFlagOptimized)
!436 = !DIImportedEntity(tag: DW_TAG_imported_declaration, scope: !29, entity: !437, file: !127, line: 1200)
!437 = !DISubprogram(name: "scalbnf", scope: !123, file: !123, line: 276, type: !438, flags: DIFlagPrototyped, spFlags: DISPFlagOptimized)
!438 = !DISubroutineType(types: !439)
!439 = !{!16, !16, !72}
!440 = !DIImportedEntity(tag: DW_TAG_imported_declaration, scope: !29, entity: !441, file: !127, line: 1201)
!441 = !DISubprogram(name: "scalbnl", scope: !123, file: !123, line: 276, type: !442, flags: DIFlagPrototyped, spFlags: DISPFlagOptimized)
!442 = !DISubroutineType(types: !443)
!443 = !{!195, !195, !72}
!444 = !DIImportedEntity(tag: DW_TAG_imported_declaration, scope: !29, entity: !445, file: !127, line: 1203)
!445 = !DISubprogram(name: "tgamma", scope: !123, file: !123, line: 235, type: !124, flags: DIFlagPrototyped, spFlags: DISPFlagOptimized)
!446 = !DIImportedEntity(tag: DW_TAG_imported_declaration, scope: !29, entity: !447, file: !127, line: 1204)
!447 = !DISubprogram(name: "tgammaf", scope: !123, file: !123, line: 235, type: !189, flags: DIFlagPrototyped, spFlags: DISPFlagOptimized)
!448 = !DIImportedEntity(tag: DW_TAG_imported_declaration, scope: !29, entity: !449, file: !127, line: 1205)
!449 = !DISubprogram(name: "tgammal", scope: !123, file: !123, line: 235, type: !193, flags: DIFlagPrototyped, spFlags: DISPFlagOptimized)
!450 = !DIImportedEntity(tag: DW_TAG_imported_declaration, scope: !29, entity: !451, file: !127, line: 1207)
!451 = !DISubprogram(name: "trunc", scope: !123, file: !123, line: 302, type: !124, flags: DIFlagPrototyped, spFlags: DISPFlagOptimized)
!452 = !DIImportedEntity(tag: DW_TAG_imported_declaration, scope: !29, entity: !453, file: !127, line: 1208)
!453 = !DISubprogram(name: "truncf", scope: !123, file: !123, line: 302, type: !189, flags: DIFlagPrototyped, spFlags: DISPFlagOptimized)
!454 = !DIImportedEntity(tag: DW_TAG_imported_declaration, scope: !29, entity: !455, file: !127, line: 1209)
!455 = !DISubprogram(name: "truncl", scope: !123, file: !123, line: 302, type: !193, flags: DIFlagPrototyped, spFlags: DISPFlagOptimized)
!456 = !DIImportedEntity(tag: DW_TAG_imported_module, scope: !457, entity: !458, file: !459, line: 58)
!457 = !DINamespace(name: "__gnu_debug", scope: null)
!458 = !DINamespace(name: "__debug", scope: !29)
!459 = !DIFile(filename: "/usr/bin/../lib/gcc/x86_64-linux-gnu/10/../../../../include/c++/10/debug/debug.h", directory: "")
!460 = !DIImportedEntity(tag: DW_TAG_imported_declaration, scope: !29, entity: !461, file: !463, line: 127)
!461 = !DIDerivedType(tag: DW_TAG_typedef, name: "div_t", file: !117, line: 62, baseType: !462)
!462 = !DICompositeType(tag: DW_TAG_structure_type, file: !117, line: 58, flags: DIFlagFwdDecl, identifier: "_ZTS5div_t")
!463 = !DIFile(filename: "/usr/bin/../lib/gcc/x86_64-linux-gnu/10/../../../../include/c++/10/cstdlib", directory: "")
!464 = !DIImportedEntity(tag: DW_TAG_imported_declaration, scope: !29, entity: !465, file: !463, line: 128)
!465 = !DIDerivedType(tag: DW_TAG_typedef, name: "ldiv_t", file: !117, line: 70, baseType: !466)
!466 = distinct !DICompositeType(tag: DW_TAG_structure_type, file: !117, line: 66, size: 128, flags: DIFlagTypePassByValue, elements: !467, identifier: "_ZTS6ldiv_t")
!467 = !{!468, !469}
!468 = !DIDerivedType(tag: DW_TAG_member, name: "quot", scope: !466, file: !117, line: 68, baseType: !343, size: 64)
!469 = !DIDerivedType(tag: DW_TAG_member, name: "rem", scope: !466, file: !117, line: 69, baseType: !343, size: 64, offset: 64)
!470 = !DIImportedEntity(tag: DW_TAG_imported_declaration, scope: !29, entity: !471, file: !463, line: 130)
!471 = !DISubprogram(name: "abort", scope: !117, file: !117, line: 591, type: !25, flags: DIFlagPrototyped | DIFlagNoReturn, spFlags: DISPFlagOptimized)
!472 = !DIImportedEntity(tag: DW_TAG_imported_declaration, scope: !29, entity: !473, file: !463, line: 132)
!473 = !DISubprogram(name: "aligned_alloc", scope: !117, file: !117, line: 586, type: !474, flags: DIFlagPrototyped, spFlags: DISPFlagOptimized)
!474 = !DISubroutineType(types: !475)
!475 = !{!10, !476, !476}
!476 = !DIDerivedType(tag: DW_TAG_typedef, name: "size_t", file: !477, line: 46, baseType: !11)
!477 = !DIFile(filename: "/usr/lib/llvm-10/lib/clang/10.0.0/include/stddef.h", directory: "")
!478 = !DIImportedEntity(tag: DW_TAG_imported_declaration, scope: !29, entity: !479, file: !463, line: 134)
!479 = !DISubprogram(name: "atexit", scope: !117, file: !117, line: 595, type: !480, flags: DIFlagPrototyped, spFlags: DISPFlagOptimized)
!480 = !DISubroutineType(types: !481)
!481 = !{!72, !482}
!482 = !DIDerivedType(tag: DW_TAG_pointer_type, baseType: !25, size: 64)
!483 = !DIImportedEntity(tag: DW_TAG_imported_declaration, scope: !29, entity: !484, file: !463, line: 137)
!484 = !DISubprogram(name: "at_quick_exit", scope: !117, file: !117, line: 600, type: !480, flags: DIFlagPrototyped, spFlags: DISPFlagOptimized)
!485 = !DIImportedEntity(tag: DW_TAG_imported_declaration, scope: !29, entity: !486, file: !463, line: 140)
!486 = !DISubprogram(name: "atof", scope: !487, file: !487, line: 25, type: !360, flags: DIFlagPrototyped, spFlags: DISPFlagOptimized)
!487 = !DIFile(filename: "/usr/include/x86_64-linux-gnu/bits/stdlib-float.h", directory: "")
!488 = !DIImportedEntity(tag: DW_TAG_imported_declaration, scope: !29, entity: !489, file: !463, line: 141)
!489 = !DISubprogram(name: "atoi", scope: !117, file: !117, line: 361, type: !490, flags: DIFlagPrototyped, spFlags: DISPFlagOptimized)
!490 = !DISubroutineType(types: !491)
!491 = !{!72, !12}
!492 = !DIImportedEntity(tag: DW_TAG_imported_declaration, scope: !29, entity: !493, file: !463, line: 142)
!493 = !DISubprogram(name: "atol", scope: !117, file: !117, line: 366, type: !494, flags: DIFlagPrototyped, spFlags: DISPFlagOptimized)
!494 = !DISubroutineType(types: !495)
!495 = !{!343, !12}
!496 = !DIImportedEntity(tag: DW_TAG_imported_declaration, scope: !29, entity: !497, file: !463, line: 143)
!497 = !DISubprogram(name: "bsearch", scope: !498, file: !498, line: 20, type: !499, flags: DIFlagPrototyped, spFlags: DISPFlagOptimized)
!498 = !DIFile(filename: "/usr/include/x86_64-linux-gnu/bits/stdlib-bsearch.h", directory: "")
!499 = !DISubroutineType(types: !500)
!500 = !{!10, !501, !501, !476, !476, !503}
!501 = !DIDerivedType(tag: DW_TAG_pointer_type, baseType: !502, size: 64)
!502 = !DIDerivedType(tag: DW_TAG_const_type, baseType: null)
!503 = !DIDerivedType(tag: DW_TAG_typedef, name: "__compar_fn_t", file: !117, line: 808, baseType: !504)
!504 = !DIDerivedType(tag: DW_TAG_pointer_type, baseType: !505, size: 64)
!505 = !DISubroutineType(types: !506)
!506 = !{!72, !501, !501}
!507 = !DIImportedEntity(tag: DW_TAG_imported_declaration, scope: !29, entity: !508, file: !463, line: 144)
!508 = !DISubprogram(name: "calloc", scope: !117, file: !117, line: 542, type: !474, flags: DIFlagPrototyped, spFlags: DISPFlagOptimized)
!509 = !DIImportedEntity(tag: DW_TAG_imported_declaration, scope: !29, entity: !510, file: !463, line: 145)
!510 = !DISubprogram(name: "div", scope: !117, file: !117, line: 852, type: !511, flags: DIFlagPrototyped, spFlags: DISPFlagOptimized)
!511 = !DISubroutineType(types: !512)
!512 = !{!461, !72, !72}
!513 = !DIImportedEntity(tag: DW_TAG_imported_declaration, scope: !29, entity: !514, file: !463, line: 146)
!514 = !DISubprogram(name: "exit", scope: !117, file: !117, line: 617, type: !515, flags: DIFlagPrototyped | DIFlagNoReturn, spFlags: DISPFlagOptimized)
!515 = !DISubroutineType(types: !516)
!516 = !{null, !72}
!517 = !DIImportedEntity(tag: DW_TAG_imported_declaration, scope: !29, entity: !518, file: !463, line: 147)
!518 = !DISubprogram(name: "free", scope: !117, file: !117, line: 565, type: !519, flags: DIFlagPrototyped, spFlags: DISPFlagOptimized)
!519 = !DISubroutineType(types: !520)
!520 = !{null, !10}
!521 = !DIImportedEntity(tag: DW_TAG_imported_declaration, scope: !29, entity: !522, file: !463, line: 148)
!522 = !DISubprogram(name: "getenv", scope: !117, file: !117, line: 634, type: !523, flags: DIFlagPrototyped, spFlags: DISPFlagOptimized)
!523 = !DISubroutineType(types: !524)
!524 = !{!525, !12}
!525 = !DIDerivedType(tag: DW_TAG_pointer_type, baseType: !14, size: 64)
!526 = !DIImportedEntity(tag: DW_TAG_imported_declaration, scope: !29, entity: !527, file: !463, line: 149)
!527 = !DISubprogram(name: "labs", scope: !117, file: !117, line: 841, type: !528, flags: DIFlagPrototyped, spFlags: DISPFlagOptimized)
!528 = !DISubroutineType(types: !529)
!529 = !{!343, !343}
!530 = !DIImportedEntity(tag: DW_TAG_imported_declaration, scope: !29, entity: !531, file: !463, line: 150)
!531 = !DISubprogram(name: "ldiv", scope: !117, file: !117, line: 854, type: !532, flags: DIFlagPrototyped, spFlags: DISPFlagOptimized)
!532 = !DISubroutineType(types: !533)
!533 = !{!465, !343, !343}
!534 = !DIImportedEntity(tag: DW_TAG_imported_declaration, scope: !29, entity: !535, file: !463, line: 151)
!535 = !DISubprogram(name: "malloc", scope: !117, file: !117, line: 539, type: !536, flags: DIFlagPrototyped, spFlags: DISPFlagOptimized)
!536 = !DISubroutineType(types: !537)
!537 = !{!10, !476}
!538 = !DIImportedEntity(tag: DW_TAG_imported_declaration, scope: !29, entity: !539, file: !463, line: 153)
!539 = !DISubprogram(name: "mblen", scope: !117, file: !117, line: 922, type: !540, flags: DIFlagPrototyped, spFlags: DISPFlagOptimized)
!540 = !DISubroutineType(types: !541)
!541 = !{!72, !12, !476}
!542 = !DIImportedEntity(tag: DW_TAG_imported_declaration, scope: !29, entity: !543, file: !463, line: 154)
!543 = !DISubprogram(name: "mbstowcs", scope: !117, file: !117, line: 933, type: !544, flags: DIFlagPrototyped, spFlags: DISPFlagOptimized)
!544 = !DISubroutineType(types: !545)
!545 = !{!476, !546, !549, !476}
!546 = !DIDerivedType(tag: DW_TAG_restrict_type, baseType: !547)
!547 = !DIDerivedType(tag: DW_TAG_pointer_type, baseType: !548, size: 64)
!548 = !DIBasicType(name: "wchar_t", size: 32, encoding: DW_ATE_signed)
!549 = !DIDerivedType(tag: DW_TAG_restrict_type, baseType: !12)
!550 = !DIImportedEntity(tag: DW_TAG_imported_declaration, scope: !29, entity: !551, file: !463, line: 155)
!551 = !DISubprogram(name: "mbtowc", scope: !117, file: !117, line: 925, type: !552, flags: DIFlagPrototyped, spFlags: DISPFlagOptimized)
!552 = !DISubroutineType(types: !553)
!553 = !{!72, !546, !549, !476}
!554 = !DIImportedEntity(tag: DW_TAG_imported_declaration, scope: !29, entity: !555, file: !463, line: 157)
!555 = !DISubprogram(name: "qsort", scope: !117, file: !117, line: 830, type: !556, flags: DIFlagPrototyped, spFlags: DISPFlagOptimized)
!556 = !DISubroutineType(types: !557)
!557 = !{null, !10, !476, !476, !503}
!558 = !DIImportedEntity(tag: DW_TAG_imported_declaration, scope: !29, entity: !559, file: !463, line: 160)
!559 = !DISubprogram(name: "quick_exit", scope: !117, file: !117, line: 623, type: !515, flags: DIFlagPrototyped | DIFlagNoReturn, spFlags: DISPFlagOptimized)
!560 = !DIImportedEntity(tag: DW_TAG_imported_declaration, scope: !29, entity: !561, file: !463, line: 163)
!561 = !DISubprogram(name: "rand", scope: !117, file: !117, line: 453, type: !562, flags: DIFlagPrototyped, spFlags: DISPFlagOptimized)
!562 = !DISubroutineType(types: !563)
!563 = !{!72}
!564 = !DIImportedEntity(tag: DW_TAG_imported_declaration, scope: !29, entity: !565, file: !463, line: 164)
!565 = !DISubprogram(name: "realloc", scope: !117, file: !117, line: 550, type: !566, flags: DIFlagPrototyped, spFlags: DISPFlagOptimized)
!566 = !DISubroutineType(types: !567)
!567 = !{!10, !10, !476}
!568 = !DIImportedEntity(tag: DW_TAG_imported_declaration, scope: !29, entity: !569, file: !463, line: 165)
!569 = !DISubprogram(name: "srand", scope: !117, file: !117, line: 455, type: !570, flags: DIFlagPrototyped, spFlags: DISPFlagOptimized)
!570 = !DISubroutineType(types: !571)
!571 = !{null, !572}
!572 = !DIBasicType(name: "unsigned int", size: 32, encoding: DW_ATE_unsigned)
!573 = !DIImportedEntity(tag: DW_TAG_imported_declaration, scope: !29, entity: !574, file: !463, line: 166)
!574 = !DISubprogram(name: "strtod", scope: !117, file: !117, line: 117, type: !575, flags: DIFlagPrototyped, spFlags: DISPFlagOptimized)
!575 = !DISubroutineType(types: !576)
!576 = !{!126, !549, !577}
!577 = !DIDerivedType(tag: DW_TAG_restrict_type, baseType: !578)
!578 = !DIDerivedType(tag: DW_TAG_pointer_type, baseType: !525, size: 64)
!579 = !DIImportedEntity(tag: DW_TAG_imported_declaration, scope: !29, entity: !580, file: !463, line: 167)
!580 = !DISubprogram(name: "strtol", scope: !117, file: !117, line: 176, type: !581, flags: DIFlagPrototyped, spFlags: DISPFlagOptimized)
!581 = !DISubroutineType(types: !582)
!582 = !{!343, !549, !577, !72}
!583 = !DIImportedEntity(tag: DW_TAG_imported_declaration, scope: !29, entity: !584, file: !463, line: 168)
!584 = !DISubprogram(name: "strtoul", scope: !117, file: !117, line: 180, type: !585, flags: DIFlagPrototyped, spFlags: DISPFlagOptimized)
!585 = !DISubroutineType(types: !586)
!586 = !{!11, !549, !577, !72}
!587 = !DIImportedEntity(tag: DW_TAG_imported_declaration, scope: !29, entity: !588, file: !463, line: 169)
!588 = !DISubprogram(name: "system", scope: !117, file: !117, line: 784, type: !490, flags: DIFlagPrototyped, spFlags: DISPFlagOptimized)
!589 = !DIImportedEntity(tag: DW_TAG_imported_declaration, scope: !29, entity: !590, file: !463, line: 171)
!590 = !DISubprogram(name: "wcstombs", scope: !117, file: !117, line: 936, type: !591, flags: DIFlagPrototyped, spFlags: DISPFlagOptimized)
!591 = !DISubroutineType(types: !592)
!592 = !{!476, !593, !594, !476}
!593 = !DIDerivedType(tag: DW_TAG_restrict_type, baseType: !525)
!594 = !DIDerivedType(tag: DW_TAG_restrict_type, baseType: !595)
!595 = !DIDerivedType(tag: DW_TAG_pointer_type, baseType: !596, size: 64)
!596 = !DIDerivedType(tag: DW_TAG_const_type, baseType: !548)
!597 = !DIImportedEntity(tag: DW_TAG_imported_declaration, scope: !29, entity: !598, file: !463, line: 172)
!598 = !DISubprogram(name: "wctomb", scope: !117, file: !117, line: 929, type: !599, flags: DIFlagPrototyped, spFlags: DISPFlagOptimized)
!599 = !DISubroutineType(types: !600)
!600 = !{!72, !525, !548}
!601 = !DIImportedEntity(tag: DW_TAG_imported_declaration, scope: !602, entity: !603, file: !463, line: 200)
!602 = !DINamespace(name: "__gnu_cxx", scope: null)
!603 = !DIDerivedType(tag: DW_TAG_typedef, name: "lldiv_t", file: !117, line: 80, baseType: !604)
!604 = distinct !DICompositeType(tag: DW_TAG_structure_type, file: !117, line: 76, size: 128, flags: DIFlagTypePassByValue, elements: !605, identifier: "_ZTS7lldiv_t")
!605 = !{!606, !607}
!606 = !DIDerivedType(tag: DW_TAG_member, name: "quot", scope: !604, file: !117, line: 78, baseType: !306, size: 64)
!607 = !DIDerivedType(tag: DW_TAG_member, name: "rem", scope: !604, file: !117, line: 79, baseType: !306, size: 64, offset: 64)
!608 = !DIImportedEntity(tag: DW_TAG_imported_declaration, scope: !602, entity: !609, file: !463, line: 206)
!609 = !DISubprogram(name: "_Exit", scope: !117, file: !117, line: 629, type: !515, flags: DIFlagPrototyped | DIFlagNoReturn, spFlags: DISPFlagOptimized)
!610 = !DIImportedEntity(tag: DW_TAG_imported_declaration, scope: !602, entity: !611, file: !463, line: 210)
!611 = !DISubprogram(name: "llabs", scope: !117, file: !117, line: 844, type: !612, flags: DIFlagPrototyped, spFlags: DISPFlagOptimized)
!612 = !DISubroutineType(types: !613)
!613 = !{!306, !306}
!614 = !DIImportedEntity(tag: DW_TAG_imported_declaration, scope: !602, entity: !615, file: !463, line: 216)
!615 = !DISubprogram(name: "lldiv", scope: !117, file: !117, line: 858, type: !616, flags: DIFlagPrototyped, spFlags: DISPFlagOptimized)
!616 = !DISubroutineType(types: !617)
!617 = !{!603, !306, !306}
!618 = !DIImportedEntity(tag: DW_TAG_imported_declaration, scope: !602, entity: !619, file: !463, line: 227)
!619 = !DISubprogram(name: "atoll", scope: !117, file: !117, line: 373, type: !620, flags: DIFlagPrototyped, spFlags: DISPFlagOptimized)
!620 = !DISubroutineType(types: !621)
!621 = !{!306, !12}
!622 = !DIImportedEntity(tag: DW_TAG_imported_declaration, scope: !602, entity: !623, file: !463, line: 228)
!623 = !DISubprogram(name: "strtoll", scope: !117, file: !117, line: 200, type: !624, flags: DIFlagPrototyped, spFlags: DISPFlagOptimized)
!624 = !DISubroutineType(types: !625)
!625 = !{!306, !549, !577, !72}
!626 = !DIImportedEntity(tag: DW_TAG_imported_declaration, scope: !602, entity: !627, file: !463, line: 229)
!627 = !DISubprogram(name: "strtoull", scope: !117, file: !117, line: 205, type: !628, flags: DIFlagPrototyped, spFlags: DISPFlagOptimized)
!628 = !DISubroutineType(types: !629)
!629 = !{!53, !549, !577, !72}
!630 = !DIImportedEntity(tag: DW_TAG_imported_declaration, scope: !602, entity: !631, file: !463, line: 231)
!631 = !DISubprogram(name: "strtof", scope: !117, file: !117, line: 123, type: !632, flags: DIFlagPrototyped, spFlags: DISPFlagOptimized)
!632 = !DISubroutineType(types: !633)
!633 = !{!16, !549, !577}
!634 = !DIImportedEntity(tag: DW_TAG_imported_declaration, scope: !602, entity: !635, file: !463, line: 232)
!635 = !DISubprogram(name: "strtold", scope: !117, file: !117, line: 126, type: !636, flags: DIFlagPrototyped, spFlags: DISPFlagOptimized)
!636 = !DISubroutineType(types: !637)
!637 = !{!195, !549, !577}
!638 = !DIImportedEntity(tag: DW_TAG_imported_declaration, scope: !29, entity: !603, file: !463, line: 240)
!639 = !DIImportedEntity(tag: DW_TAG_imported_declaration, scope: !29, entity: !609, file: !463, line: 242)
!640 = !DIImportedEntity(tag: DW_TAG_imported_declaration, scope: !29, entity: !611, file: !463, line: 244)
!641 = !DIImportedEntity(tag: DW_TAG_imported_declaration, scope: !29, entity: !642, file: !463, line: 245)
!642 = !DISubprogram(name: "div", linkageName: "_ZN9__gnu_cxx3divExx", scope: !602, file: !463, line: 213, type: !616, flags: DIFlagPrototyped, spFlags: DISPFlagOptimized)
!643 = !DIImportedEntity(tag: DW_TAG_imported_declaration, scope: !29, entity: !615, file: !463, line: 246)
!644 = !DIImportedEntity(tag: DW_TAG_imported_declaration, scope: !29, entity: !619, file: !463, line: 248)
!645 = !DIImportedEntity(tag: DW_TAG_imported_declaration, scope: !29, entity: !631, file: !463, line: 249)
!646 = !DIImportedEntity(tag: DW_TAG_imported_declaration, scope: !29, entity: !623, file: !463, line: 250)
!647 = !DIImportedEntity(tag: DW_TAG_imported_declaration, scope: !29, entity: !627, file: !463, line: 251)
!648 = !DIImportedEntity(tag: DW_TAG_imported_declaration, scope: !29, entity: !635, file: !463, line: 252)
!649 = !DIImportedEntity(tag: DW_TAG_imported_declaration, scope: !29, entity: !650, file: !665, line: 64)
!650 = !DIDerivedType(tag: DW_TAG_typedef, name: "mbstate_t", file: !651, line: 6, baseType: !652)
!651 = !DIFile(filename: "/usr/include/x86_64-linux-gnu/bits/types/mbstate_t.h", directory: "")
!652 = !DIDerivedType(tag: DW_TAG_typedef, name: "__mbstate_t", file: !653, line: 21, baseType: !654)
!653 = !DIFile(filename: "/usr/include/x86_64-linux-gnu/bits/types/__mbstate_t.h", directory: "")
!654 = distinct !DICompositeType(tag: DW_TAG_structure_type, file: !653, line: 13, size: 64, flags: DIFlagTypePassByValue, elements: !655, identifier: "_ZTS11__mbstate_t")
!655 = !{!656, !657}
!656 = !DIDerivedType(tag: DW_TAG_member, name: "__count", scope: !654, file: !653, line: 15, baseType: !72, size: 32)
!657 = !DIDerivedType(tag: DW_TAG_member, name: "__value", scope: !654, file: !653, line: 20, baseType: !658, size: 32, offset: 32)
!658 = distinct !DICompositeType(tag: DW_TAG_union_type, scope: !654, file: !653, line: 16, size: 32, flags: DIFlagTypePassByValue, elements: !659, identifier: "_ZTSN11__mbstate_tUt_E")
!659 = !{!660, !661}
!660 = !DIDerivedType(tag: DW_TAG_member, name: "__wch", scope: !658, file: !653, line: 18, baseType: !572, size: 32)
!661 = !DIDerivedType(tag: DW_TAG_member, name: "__wchb", scope: !658, file: !653, line: 19, baseType: !662, size: 32)
!662 = !DICompositeType(tag: DW_TAG_array_type, baseType: !14, size: 32, elements: !663)
!663 = !{!664}
!664 = !DISubrange(count: 4)
!665 = !DIFile(filename: "/usr/bin/../lib/gcc/x86_64-linux-gnu/10/../../../../include/c++/10/cwchar", directory: "")
!666 = !DIImportedEntity(tag: DW_TAG_imported_declaration, scope: !29, entity: !667, file: !665, line: 141)
!667 = !DIDerivedType(tag: DW_TAG_typedef, name: "wint_t", file: !668, line: 20, baseType: !572)
!668 = !DIFile(filename: "/usr/include/x86_64-linux-gnu/bits/types/wint_t.h", directory: "")
!669 = !DIImportedEntity(tag: DW_TAG_imported_declaration, scope: !29, entity: !670, file: !665, line: 143)
!670 = !DISubprogram(name: "btowc", scope: !671, file: !671, line: 318, type: !672, flags: DIFlagPrototyped, spFlags: DISPFlagOptimized)
!671 = !DIFile(filename: "/usr/include/wchar.h", directory: "")
!672 = !DISubroutineType(types: !673)
!673 = !{!667, !72}
!674 = !DIImportedEntity(tag: DW_TAG_imported_declaration, scope: !29, entity: !675, file: !665, line: 144)
!675 = !DISubprogram(name: "fgetwc", scope: !671, file: !671, line: 726, type: !676, flags: DIFlagPrototyped, spFlags: DISPFlagOptimized)
!676 = !DISubroutineType(types: !677)
!677 = !{!667, !678}
!678 = !DIDerivedType(tag: DW_TAG_pointer_type, baseType: !679, size: 64)
!679 = !DIDerivedType(tag: DW_TAG_typedef, name: "__FILE", file: !680, line: 5, baseType: !681)
!680 = !DIFile(filename: "/usr/include/x86_64-linux-gnu/bits/types/__FILE.h", directory: "")
!681 = distinct !DICompositeType(tag: DW_TAG_structure_type, name: "_IO_FILE", file: !682, line: 49, size: 1728, flags: DIFlagTypePassByValue, elements: !683, identifier: "_ZTS8_IO_FILE")
!682 = !DIFile(filename: "/usr/include/x86_64-linux-gnu/bits/types/struct_FILE.h", directory: "")
!683 = !{!684, !685, !686, !687, !688, !689, !690, !691, !692, !693, !694, !695, !696, !699, !701, !702, !703, !706, !708, !710, !714, !717, !719, !722, !725, !726, !727, !728, !729}
!684 = !DIDerivedType(tag: DW_TAG_member, name: "_flags", scope: !681, file: !682, line: 51, baseType: !72, size: 32)
!685 = !DIDerivedType(tag: DW_TAG_member, name: "_IO_read_ptr", scope: !681, file: !682, line: 54, baseType: !525, size: 64, offset: 64)
!686 = !DIDerivedType(tag: DW_TAG_member, name: "_IO_read_end", scope: !681, file: !682, line: 55, baseType: !525, size: 64, offset: 128)
!687 = !DIDerivedType(tag: DW_TAG_member, name: "_IO_read_base", scope: !681, file: !682, line: 56, baseType: !525, size: 64, offset: 192)
!688 = !DIDerivedType(tag: DW_TAG_member, name: "_IO_write_base", scope: !681, file: !682, line: 57, baseType: !525, size: 64, offset: 256)
!689 = !DIDerivedType(tag: DW_TAG_member, name: "_IO_write_ptr", scope: !681, file: !682, line: 58, baseType: !525, size: 64, offset: 320)
!690 = !DIDerivedType(tag: DW_TAG_member, name: "_IO_write_end", scope: !681, file: !682, line: 59, baseType: !525, size: 64, offset: 384)
!691 = !DIDerivedType(tag: DW_TAG_member, name: "_IO_buf_base", scope: !681, file: !682, line: 60, baseType: !525, size: 64, offset: 448)
!692 = !DIDerivedType(tag: DW_TAG_member, name: "_IO_buf_end", scope: !681, file: !682, line: 61, baseType: !525, size: 64, offset: 512)
!693 = !DIDerivedType(tag: DW_TAG_member, name: "_IO_save_base", scope: !681, file: !682, line: 64, baseType: !525, size: 64, offset: 576)
!694 = !DIDerivedType(tag: DW_TAG_member, name: "_IO_backup_base", scope: !681, file: !682, line: 65, baseType: !525, size: 64, offset: 640)
!695 = !DIDerivedType(tag: DW_TAG_member, name: "_IO_save_end", scope: !681, file: !682, line: 66, baseType: !525, size: 64, offset: 704)
!696 = !DIDerivedType(tag: DW_TAG_member, name: "_markers", scope: !681, file: !682, line: 68, baseType: !697, size: 64, offset: 768)
!697 = !DIDerivedType(tag: DW_TAG_pointer_type, baseType: !698, size: 64)
!698 = !DICompositeType(tag: DW_TAG_structure_type, name: "_IO_marker", file: !682, line: 36, flags: DIFlagFwdDecl, identifier: "_ZTS10_IO_marker")
!699 = !DIDerivedType(tag: DW_TAG_member, name: "_chain", scope: !681, file: !682, line: 70, baseType: !700, size: 64, offset: 832)
!700 = !DIDerivedType(tag: DW_TAG_pointer_type, baseType: !681, size: 64)
!701 = !DIDerivedType(tag: DW_TAG_member, name: "_fileno", scope: !681, file: !682, line: 72, baseType: !72, size: 32, offset: 896)
!702 = !DIDerivedType(tag: DW_TAG_member, name: "_flags2", scope: !681, file: !682, line: 73, baseType: !72, size: 32, offset: 928)
!703 = !DIDerivedType(tag: DW_TAG_member, name: "_old_offset", scope: !681, file: !682, line: 74, baseType: !704, size: 64, offset: 960)
!704 = !DIDerivedType(tag: DW_TAG_typedef, name: "__off_t", file: !705, line: 152, baseType: !343)
!705 = !DIFile(filename: "/usr/include/x86_64-linux-gnu/bits/types.h", directory: "")
!706 = !DIDerivedType(tag: DW_TAG_member, name: "_cur_column", scope: !681, file: !682, line: 77, baseType: !707, size: 16, offset: 1024)
!707 = !DIBasicType(name: "unsigned short", size: 16, encoding: DW_ATE_unsigned)
!708 = !DIDerivedType(tag: DW_TAG_member, name: "_vtable_offset", scope: !681, file: !682, line: 78, baseType: !709, size: 8, offset: 1040)
!709 = !DIBasicType(name: "signed char", size: 8, encoding: DW_ATE_signed_char)
!710 = !DIDerivedType(tag: DW_TAG_member, name: "_shortbuf", scope: !681, file: !682, line: 79, baseType: !711, size: 8, offset: 1048)
!711 = !DICompositeType(tag: DW_TAG_array_type, baseType: !14, size: 8, elements: !712)
!712 = !{!713}
!713 = !DISubrange(count: 1)
!714 = !DIDerivedType(tag: DW_TAG_member, name: "_lock", scope: !681, file: !682, line: 81, baseType: !715, size: 64, offset: 1088)
!715 = !DIDerivedType(tag: DW_TAG_pointer_type, baseType: !716, size: 64)
!716 = !DIDerivedType(tag: DW_TAG_typedef, name: "_IO_lock_t", file: !682, line: 43, baseType: null)
!717 = !DIDerivedType(tag: DW_TAG_member, name: "_offset", scope: !681, file: !682, line: 89, baseType: !718, size: 64, offset: 1152)
!718 = !DIDerivedType(tag: DW_TAG_typedef, name: "__off64_t", file: !705, line: 153, baseType: !343)
!719 = !DIDerivedType(tag: DW_TAG_member, name: "_codecvt", scope: !681, file: !682, line: 91, baseType: !720, size: 64, offset: 1216)
!720 = !DIDerivedType(tag: DW_TAG_pointer_type, baseType: !721, size: 64)
!721 = !DICompositeType(tag: DW_TAG_structure_type, name: "_IO_codecvt", file: !682, line: 37, flags: DIFlagFwdDecl, identifier: "_ZTS11_IO_codecvt")
!722 = !DIDerivedType(tag: DW_TAG_member, name: "_wide_data", scope: !681, file: !682, line: 92, baseType: !723, size: 64, offset: 1280)
!723 = !DIDerivedType(tag: DW_TAG_pointer_type, baseType: !724, size: 64)
!724 = !DICompositeType(tag: DW_TAG_structure_type, name: "_IO_wide_data", file: !682, line: 38, flags: DIFlagFwdDecl, identifier: "_ZTS13_IO_wide_data")
!725 = !DIDerivedType(tag: DW_TAG_member, name: "_freeres_list", scope: !681, file: !682, line: 93, baseType: !700, size: 64, offset: 1344)
!726 = !DIDerivedType(tag: DW_TAG_member, name: "_freeres_buf", scope: !681, file: !682, line: 94, baseType: !10, size: 64, offset: 1408)
!727 = !DIDerivedType(tag: DW_TAG_member, name: "__pad5", scope: !681, file: !682, line: 95, baseType: !476, size: 64, offset: 1472)
!728 = !DIDerivedType(tag: DW_TAG_member, name: "_mode", scope: !681, file: !682, line: 96, baseType: !72, size: 32, offset: 1536)
!729 = !DIDerivedType(tag: DW_TAG_member, name: "_unused2", scope: !681, file: !682, line: 98, baseType: !730, size: 160, offset: 1568)
!730 = !DICompositeType(tag: DW_TAG_array_type, baseType: !14, size: 160, elements: !731)
!731 = !{!732}
!732 = !DISubrange(count: 20)
!733 = !DIImportedEntity(tag: DW_TAG_imported_declaration, scope: !29, entity: !734, file: !665, line: 145)
!734 = !DISubprogram(name: "fgetws", scope: !671, file: !671, line: 755, type: !735, flags: DIFlagPrototyped, spFlags: DISPFlagOptimized)
!735 = !DISubroutineType(types: !736)
!736 = !{!547, !546, !72, !737}
!737 = !DIDerivedType(tag: DW_TAG_restrict_type, baseType: !678)
!738 = !DIImportedEntity(tag: DW_TAG_imported_declaration, scope: !29, entity: !739, file: !665, line: 146)
!739 = !DISubprogram(name: "fputwc", scope: !671, file: !671, line: 740, type: !740, flags: DIFlagPrototyped, spFlags: DISPFlagOptimized)
!740 = !DISubroutineType(types: !741)
!741 = !{!667, !548, !678}
!742 = !DIImportedEntity(tag: DW_TAG_imported_declaration, scope: !29, entity: !743, file: !665, line: 147)
!743 = !DISubprogram(name: "fputws", scope: !671, file: !671, line: 762, type: !744, flags: DIFlagPrototyped, spFlags: DISPFlagOptimized)
!744 = !DISubroutineType(types: !745)
!745 = !{!72, !594, !737}
!746 = !DIImportedEntity(tag: DW_TAG_imported_declaration, scope: !29, entity: !747, file: !665, line: 148)
!747 = !DISubprogram(name: "fwide", scope: !671, file: !671, line: 573, type: !748, flags: DIFlagPrototyped, spFlags: DISPFlagOptimized)
!748 = !DISubroutineType(types: !749)
!749 = !{!72, !678, !72}
!750 = !DIImportedEntity(tag: DW_TAG_imported_declaration, scope: !29, entity: !751, file: !665, line: 149)
!751 = !DISubprogram(name: "fwprintf", scope: !671, file: !671, line: 580, type: !752, flags: DIFlagPrototyped, spFlags: DISPFlagOptimized)
!752 = !DISubroutineType(types: !753)
!753 = !{!72, !737, !594, null}
!754 = !DIImportedEntity(tag: DW_TAG_imported_declaration, scope: !29, entity: !755, file: !665, line: 150)
!755 = !DISubprogram(name: "fwscanf", linkageName: "__isoc99_fwscanf", scope: !671, file: !671, line: 640, type: !752, flags: DIFlagPrototyped, spFlags: DISPFlagOptimized)
!756 = !DIImportedEntity(tag: DW_TAG_imported_declaration, scope: !29, entity: !757, file: !665, line: 151)
!757 = !DISubprogram(name: "getwc", scope: !671, file: !671, line: 727, type: !676, flags: DIFlagPrototyped, spFlags: DISPFlagOptimized)
!758 = !DIImportedEntity(tag: DW_TAG_imported_declaration, scope: !29, entity: !759, file: !665, line: 152)
!759 = !DISubprogram(name: "getwchar", scope: !671, file: !671, line: 733, type: !760, flags: DIFlagPrototyped, spFlags: DISPFlagOptimized)
!760 = !DISubroutineType(types: !761)
!761 = !{!667}
!762 = !DIImportedEntity(tag: DW_TAG_imported_declaration, scope: !29, entity: !763, file: !665, line: 153)
!763 = !DISubprogram(name: "mbrlen", scope: !671, file: !671, line: 329, type: !764, flags: DIFlagPrototyped, spFlags: DISPFlagOptimized)
!764 = !DISubroutineType(types: !765)
!765 = !{!476, !549, !476, !766}
!766 = !DIDerivedType(tag: DW_TAG_restrict_type, baseType: !767)
!767 = !DIDerivedType(tag: DW_TAG_pointer_type, baseType: !650, size: 64)
!768 = !DIImportedEntity(tag: DW_TAG_imported_declaration, scope: !29, entity: !769, file: !665, line: 154)
!769 = !DISubprogram(name: "mbrtowc", scope: !671, file: !671, line: 296, type: !770, flags: DIFlagPrototyped, spFlags: DISPFlagOptimized)
!770 = !DISubroutineType(types: !771)
!771 = !{!476, !546, !549, !476, !766}
!772 = !DIImportedEntity(tag: DW_TAG_imported_declaration, scope: !29, entity: !773, file: !665, line: 155)
!773 = !DISubprogram(name: "mbsinit", scope: !671, file: !671, line: 292, type: !774, flags: DIFlagPrototyped, spFlags: DISPFlagOptimized)
!774 = !DISubroutineType(types: !775)
!775 = !{!72, !776}
!776 = !DIDerivedType(tag: DW_TAG_pointer_type, baseType: !777, size: 64)
!777 = !DIDerivedType(tag: DW_TAG_const_type, baseType: !650)
!778 = !DIImportedEntity(tag: DW_TAG_imported_declaration, scope: !29, entity: !779, file: !665, line: 156)
!779 = !DISubprogram(name: "mbsrtowcs", scope: !671, file: !671, line: 337, type: !780, flags: DIFlagPrototyped, spFlags: DISPFlagOptimized)
!780 = !DISubroutineType(types: !781)
!781 = !{!476, !546, !782, !476, !766}
!782 = !DIDerivedType(tag: DW_TAG_restrict_type, baseType: !783)
!783 = !DIDerivedType(tag: DW_TAG_pointer_type, baseType: !12, size: 64)
!784 = !DIImportedEntity(tag: DW_TAG_imported_declaration, scope: !29, entity: !785, file: !665, line: 157)
!785 = !DISubprogram(name: "putwc", scope: !671, file: !671, line: 741, type: !740, flags: DIFlagPrototyped, spFlags: DISPFlagOptimized)
!786 = !DIImportedEntity(tag: DW_TAG_imported_declaration, scope: !29, entity: !787, file: !665, line: 158)
!787 = !DISubprogram(name: "putwchar", scope: !671, file: !671, line: 747, type: !788, flags: DIFlagPrototyped, spFlags: DISPFlagOptimized)
!788 = !DISubroutineType(types: !789)
!789 = !{!667, !548}
!790 = !DIImportedEntity(tag: DW_TAG_imported_declaration, scope: !29, entity: !791, file: !665, line: 160)
!791 = !DISubprogram(name: "swprintf", scope: !671, file: !671, line: 590, type: !792, flags: DIFlagPrototyped, spFlags: DISPFlagOptimized)
!792 = !DISubroutineType(types: !793)
!793 = !{!72, !546, !476, !594, null}
!794 = !DIImportedEntity(tag: DW_TAG_imported_declaration, scope: !29, entity: !795, file: !665, line: 162)
!795 = !DISubprogram(name: "swscanf", linkageName: "__isoc99_swscanf", scope: !671, file: !671, line: 647, type: !796, flags: DIFlagPrototyped, spFlags: DISPFlagOptimized)
!796 = !DISubroutineType(types: !797)
!797 = !{!72, !594, !594, null}
!798 = !DIImportedEntity(tag: DW_TAG_imported_declaration, scope: !29, entity: !799, file: !665, line: 163)
!799 = !DISubprogram(name: "ungetwc", scope: !671, file: !671, line: 770, type: !800, flags: DIFlagPrototyped, spFlags: DISPFlagOptimized)
!800 = !DISubroutineType(types: !801)
!801 = !{!667, !667, !678}
!802 = !DIImportedEntity(tag: DW_TAG_imported_declaration, scope: !29, entity: !803, file: !665, line: 164)
!803 = !DISubprogram(name: "vfwprintf", scope: !671, file: !671, line: 598, type: !804, flags: DIFlagPrototyped, spFlags: DISPFlagOptimized)
!804 = !DISubroutineType(types: !805)
!805 = !{!72, !737, !594, !806}
!806 = !DIDerivedType(tag: DW_TAG_pointer_type, baseType: !807, size: 64)
!807 = distinct !DICompositeType(tag: DW_TAG_structure_type, name: "__va_list_tag", file: !3, size: 192, flags: DIFlagTypePassByValue, elements: !808, identifier: "_ZTS13__va_list_tag")
!808 = !{!809, !810, !811, !812}
!809 = !DIDerivedType(tag: DW_TAG_member, name: "gp_offset", scope: !807, file: !3, baseType: !572, size: 32)
!810 = !DIDerivedType(tag: DW_TAG_member, name: "fp_offset", scope: !807, file: !3, baseType: !572, size: 32, offset: 32)
!811 = !DIDerivedType(tag: DW_TAG_member, name: "overflow_arg_area", scope: !807, file: !3, baseType: !10, size: 64, offset: 64)
!812 = !DIDerivedType(tag: DW_TAG_member, name: "reg_save_area", scope: !807, file: !3, baseType: !10, size: 64, offset: 128)
!813 = !DIImportedEntity(tag: DW_TAG_imported_declaration, scope: !29, entity: !814, file: !665, line: 166)
!814 = !DISubprogram(name: "vfwscanf", linkageName: "__isoc99_vfwscanf", scope: !671, file: !671, line: 693, type: !804, flags: DIFlagPrototyped, spFlags: DISPFlagOptimized)
!815 = !DIImportedEntity(tag: DW_TAG_imported_declaration, scope: !29, entity: !816, file: !665, line: 169)
!816 = !DISubprogram(name: "vswprintf", scope: !671, file: !671, line: 611, type: !817, flags: DIFlagPrototyped, spFlags: DISPFlagOptimized)
!817 = !DISubroutineType(types: !818)
!818 = !{!72, !546, !476, !594, !806}
!819 = !DIImportedEntity(tag: DW_TAG_imported_declaration, scope: !29, entity: !820, file: !665, line: 172)
!820 = !DISubprogram(name: "vswscanf", linkageName: "__isoc99_vswscanf", scope: !671, file: !671, line: 700, type: !821, flags: DIFlagPrototyped, spFlags: DISPFlagOptimized)
!821 = !DISubroutineType(types: !822)
!822 = !{!72, !594, !594, !806}
!823 = !DIImportedEntity(tag: DW_TAG_imported_declaration, scope: !29, entity: !824, file: !665, line: 174)
!824 = !DISubprogram(name: "vwprintf", scope: !671, file: !671, line: 606, type: !825, flags: DIFlagPrototyped, spFlags: DISPFlagOptimized)
!825 = !DISubroutineType(types: !826)
!826 = !{!72, !594, !806}
!827 = !DIImportedEntity(tag: DW_TAG_imported_declaration, scope: !29, entity: !828, file: !665, line: 176)
!828 = !DISubprogram(name: "vwscanf", linkageName: "__isoc99_vwscanf", scope: !671, file: !671, line: 697, type: !825, flags: DIFlagPrototyped, spFlags: DISPFlagOptimized)
!829 = !DIImportedEntity(tag: DW_TAG_imported_declaration, scope: !29, entity: !830, file: !665, line: 178)
!830 = !DISubprogram(name: "wcrtomb", scope: !671, file: !671, line: 301, type: !831, flags: DIFlagPrototyped, spFlags: DISPFlagOptimized)
!831 = !DISubroutineType(types: !832)
!832 = !{!476, !593, !548, !766}
!833 = !DIImportedEntity(tag: DW_TAG_imported_declaration, scope: !29, entity: !834, file: !665, line: 179)
!834 = !DISubprogram(name: "wcscat", scope: !671, file: !671, line: 97, type: !835, flags: DIFlagPrototyped, spFlags: DISPFlagOptimized)
!835 = !DISubroutineType(types: !836)
!836 = !{!547, !546, !594}
!837 = !DIImportedEntity(tag: DW_TAG_imported_declaration, scope: !29, entity: !838, file: !665, line: 180)
!838 = !DISubprogram(name: "wcscmp", scope: !671, file: !671, line: 106, type: !839, flags: DIFlagPrototyped, spFlags: DISPFlagOptimized)
!839 = !DISubroutineType(types: !840)
!840 = !{!72, !595, !595}
!841 = !DIImportedEntity(tag: DW_TAG_imported_declaration, scope: !29, entity: !842, file: !665, line: 181)
!842 = !DISubprogram(name: "wcscoll", scope: !671, file: !671, line: 131, type: !839, flags: DIFlagPrototyped, spFlags: DISPFlagOptimized)
!843 = !DIImportedEntity(tag: DW_TAG_imported_declaration, scope: !29, entity: !844, file: !665, line: 182)
!844 = !DISubprogram(name: "wcscpy", scope: !671, file: !671, line: 87, type: !835, flags: DIFlagPrototyped, spFlags: DISPFlagOptimized)
!845 = !DIImportedEntity(tag: DW_TAG_imported_declaration, scope: !29, entity: !846, file: !665, line: 183)
!846 = !DISubprogram(name: "wcscspn", scope: !671, file: !671, line: 187, type: !847, flags: DIFlagPrototyped, spFlags: DISPFlagOptimized)
!847 = !DISubroutineType(types: !848)
!848 = !{!476, !595, !595}
!849 = !DIImportedEntity(tag: DW_TAG_imported_declaration, scope: !29, entity: !850, file: !665, line: 184)
!850 = !DISubprogram(name: "wcsftime", scope: !671, file: !671, line: 834, type: !851, flags: DIFlagPrototyped, spFlags: DISPFlagOptimized)
!851 = !DISubroutineType(types: !852)
!852 = !{!476, !546, !476, !594, !853}
!853 = !DIDerivedType(tag: DW_TAG_restrict_type, baseType: !854)
!854 = !DIDerivedType(tag: DW_TAG_pointer_type, baseType: !855, size: 64)
!855 = !DIDerivedType(tag: DW_TAG_const_type, baseType: !856)
!856 = !DICompositeType(tag: DW_TAG_structure_type, name: "tm", file: !671, line: 83, flags: DIFlagFwdDecl, identifier: "_ZTS2tm")
!857 = !DIImportedEntity(tag: DW_TAG_imported_declaration, scope: !29, entity: !858, file: !665, line: 185)
!858 = !DISubprogram(name: "wcslen", scope: !671, file: !671, line: 222, type: !859, flags: DIFlagPrototyped, spFlags: DISPFlagOptimized)
!859 = !DISubroutineType(types: !860)
!860 = !{!476, !595}
!861 = !DIImportedEntity(tag: DW_TAG_imported_declaration, scope: !29, entity: !862, file: !665, line: 186)
!862 = !DISubprogram(name: "wcsncat", scope: !671, file: !671, line: 101, type: !863, flags: DIFlagPrototyped, spFlags: DISPFlagOptimized)
!863 = !DISubroutineType(types: !864)
!864 = !{!547, !546, !594, !476}
!865 = !DIImportedEntity(tag: DW_TAG_imported_declaration, scope: !29, entity: !866, file: !665, line: 187)
!866 = !DISubprogram(name: "wcsncmp", scope: !671, file: !671, line: 109, type: !867, flags: DIFlagPrototyped, spFlags: DISPFlagOptimized)
!867 = !DISubroutineType(types: !868)
!868 = !{!72, !595, !595, !476}
!869 = !DIImportedEntity(tag: DW_TAG_imported_declaration, scope: !29, entity: !870, file: !665, line: 188)
!870 = !DISubprogram(name: "wcsncpy", scope: !671, file: !671, line: 92, type: !863, flags: DIFlagPrototyped, spFlags: DISPFlagOptimized)
!871 = !DIImportedEntity(tag: DW_TAG_imported_declaration, scope: !29, entity: !872, file: !665, line: 189)
!872 = !DISubprogram(name: "wcsrtombs", scope: !671, file: !671, line: 343, type: !873, flags: DIFlagPrototyped, spFlags: DISPFlagOptimized)
!873 = !DISubroutineType(types: !874)
!874 = !{!476, !593, !875, !476, !766}
!875 = !DIDerivedType(tag: DW_TAG_restrict_type, baseType: !876)
!876 = !DIDerivedType(tag: DW_TAG_pointer_type, baseType: !595, size: 64)
!877 = !DIImportedEntity(tag: DW_TAG_imported_declaration, scope: !29, entity: !878, file: !665, line: 190)
!878 = !DISubprogram(name: "wcsspn", scope: !671, file: !671, line: 191, type: !847, flags: DIFlagPrototyped, spFlags: DISPFlagOptimized)
!879 = !DIImportedEntity(tag: DW_TAG_imported_declaration, scope: !29, entity: !880, file: !665, line: 191)
!880 = !DISubprogram(name: "wcstod", scope: !671, file: !671, line: 377, type: !881, flags: DIFlagPrototyped, spFlags: DISPFlagOptimized)
!881 = !DISubroutineType(types: !882)
!882 = !{!126, !594, !883}
!883 = !DIDerivedType(tag: DW_TAG_restrict_type, baseType: !884)
!884 = !DIDerivedType(tag: DW_TAG_pointer_type, baseType: !547, size: 64)
!885 = !DIImportedEntity(tag: DW_TAG_imported_declaration, scope: !29, entity: !886, file: !665, line: 193)
!886 = !DISubprogram(name: "wcstof", scope: !671, file: !671, line: 382, type: !887, flags: DIFlagPrototyped, spFlags: DISPFlagOptimized)
!887 = !DISubroutineType(types: !888)
!888 = !{!16, !594, !883}
!889 = !DIImportedEntity(tag: DW_TAG_imported_declaration, scope: !29, entity: !890, file: !665, line: 195)
!890 = !DISubprogram(name: "wcstok", scope: !671, file: !671, line: 217, type: !891, flags: DIFlagPrototyped, spFlags: DISPFlagOptimized)
!891 = !DISubroutineType(types: !892)
!892 = !{!547, !546, !594, !883}
!893 = !DIImportedEntity(tag: DW_TAG_imported_declaration, scope: !29, entity: !894, file: !665, line: 196)
!894 = !DISubprogram(name: "wcstol", scope: !671, file: !671, line: 428, type: !895, flags: DIFlagPrototyped, spFlags: DISPFlagOptimized)
!895 = !DISubroutineType(types: !896)
!896 = !{!343, !594, !883, !72}
!897 = !DIImportedEntity(tag: DW_TAG_imported_declaration, scope: !29, entity: !898, file: !665, line: 197)
!898 = !DISubprogram(name: "wcstoul", scope: !671, file: !671, line: 433, type: !899, flags: DIFlagPrototyped, spFlags: DISPFlagOptimized)
!899 = !DISubroutineType(types: !900)
!900 = !{!11, !594, !883, !72}
!901 = !DIImportedEntity(tag: DW_TAG_imported_declaration, scope: !29, entity: !902, file: !665, line: 198)
!902 = !DISubprogram(name: "wcsxfrm", scope: !671, file: !671, line: 135, type: !903, flags: DIFlagPrototyped, spFlags: DISPFlagOptimized)
!903 = !DISubroutineType(types: !904)
!904 = !{!476, !546, !594, !476}
!905 = !DIImportedEntity(tag: DW_TAG_imported_declaration, scope: !29, entity: !906, file: !665, line: 199)
!906 = !DISubprogram(name: "wctob", scope: !671, file: !671, line: 324, type: !907, flags: DIFlagPrototyped, spFlags: DISPFlagOptimized)
!907 = !DISubroutineType(types: !908)
!908 = !{!72, !667}
!909 = !DIImportedEntity(tag: DW_TAG_imported_declaration, scope: !29, entity: !910, file: !665, line: 200)
!910 = !DISubprogram(name: "wmemcmp", scope: !671, file: !671, line: 258, type: !867, flags: DIFlagPrototyped, spFlags: DISPFlagOptimized)
!911 = !DIImportedEntity(tag: DW_TAG_imported_declaration, scope: !29, entity: !912, file: !665, line: 201)
!912 = !DISubprogram(name: "wmemcpy", scope: !671, file: !671, line: 262, type: !863, flags: DIFlagPrototyped, spFlags: DISPFlagOptimized)
!913 = !DIImportedEntity(tag: DW_TAG_imported_declaration, scope: !29, entity: !914, file: !665, line: 202)
!914 = !DISubprogram(name: "wmemmove", scope: !671, file: !671, line: 267, type: !915, flags: DIFlagPrototyped, spFlags: DISPFlagOptimized)
!915 = !DISubroutineType(types: !916)
!916 = !{!547, !547, !595, !476}
!917 = !DIImportedEntity(tag: DW_TAG_imported_declaration, scope: !29, entity: !918, file: !665, line: 203)
!918 = !DISubprogram(name: "wmemset", scope: !671, file: !671, line: 271, type: !919, flags: DIFlagPrototyped, spFlags: DISPFlagOptimized)
!919 = !DISubroutineType(types: !920)
!920 = !{!547, !547, !548, !476}
!921 = !DIImportedEntity(tag: DW_TAG_imported_declaration, scope: !29, entity: !922, file: !665, line: 204)
!922 = !DISubprogram(name: "wprintf", scope: !671, file: !671, line: 587, type: !923, flags: DIFlagPrototyped, spFlags: DISPFlagOptimized)
!923 = !DISubroutineType(types: !924)
!924 = !{!72, !594, null}
!925 = !DIImportedEntity(tag: DW_TAG_imported_declaration, scope: !29, entity: !926, file: !665, line: 205)
!926 = !DISubprogram(name: "wscanf", linkageName: "__isoc99_wscanf", scope: !671, file: !671, line: 644, type: !923, flags: DIFlagPrototyped, spFlags: DISPFlagOptimized)
!927 = !DIImportedEntity(tag: DW_TAG_imported_declaration, scope: !29, entity: !928, file: !665, line: 206)
!928 = !DISubprogram(name: "wcschr", scope: !671, file: !671, line: 164, type: !929, flags: DIFlagPrototyped, spFlags: DISPFlagOptimized)
!929 = !DISubroutineType(types: !930)
!930 = !{!547, !595, !548}
!931 = !DIImportedEntity(tag: DW_TAG_imported_declaration, scope: !29, entity: !932, file: !665, line: 207)
!932 = !DISubprogram(name: "wcspbrk", scope: !671, file: !671, line: 201, type: !933, flags: DIFlagPrototyped, spFlags: DISPFlagOptimized)
!933 = !DISubroutineType(types: !934)
!934 = !{!547, !595, !595}
!935 = !DIImportedEntity(tag: DW_TAG_imported_declaration, scope: !29, entity: !936, file: !665, line: 208)
!936 = !DISubprogram(name: "wcsrchr", scope: !671, file: !671, line: 174, type: !929, flags: DIFlagPrototyped, spFlags: DISPFlagOptimized)
!937 = !DIImportedEntity(tag: DW_TAG_imported_declaration, scope: !29, entity: !938, file: !665, line: 209)
!938 = !DISubprogram(name: "wcsstr", scope: !671, file: !671, line: 212, type: !933, flags: DIFlagPrototyped, spFlags: DISPFlagOptimized)
!939 = !DIImportedEntity(tag: DW_TAG_imported_declaration, scope: !29, entity: !940, file: !665, line: 210)
!940 = !DISubprogram(name: "wmemchr", scope: !671, file: !671, line: 253, type: !941, flags: DIFlagPrototyped, spFlags: DISPFlagOptimized)
!941 = !DISubroutineType(types: !942)
!942 = !{!547, !595, !548, !476}
!943 = !DIImportedEntity(tag: DW_TAG_imported_declaration, scope: !602, entity: !944, file: !665, line: 251)
!944 = !DISubprogram(name: "wcstold", scope: !671, file: !671, line: 384, type: !945, flags: DIFlagPrototyped, spFlags: DISPFlagOptimized)
!945 = !DISubroutineType(types: !946)
!946 = !{!195, !594, !883}
!947 = !DIImportedEntity(tag: DW_TAG_imported_declaration, scope: !602, entity: !948, file: !665, line: 260)
!948 = !DISubprogram(name: "wcstoll", scope: !671, file: !671, line: 441, type: !949, flags: DIFlagPrototyped, spFlags: DISPFlagOptimized)
!949 = !DISubroutineType(types: !950)
!950 = !{!306, !594, !883, !72}
!951 = !DIImportedEntity(tag: DW_TAG_imported_declaration, scope: !602, entity: !952, file: !665, line: 261)
!952 = !DISubprogram(name: "wcstoull", scope: !671, file: !671, line: 448, type: !953, flags: DIFlagPrototyped, spFlags: DISPFlagOptimized)
!953 = !DISubroutineType(types: !954)
!954 = !{!53, !594, !883, !72}
!955 = !DIImportedEntity(tag: DW_TAG_imported_declaration, scope: !29, entity: !944, file: !665, line: 267)
!956 = !DIImportedEntity(tag: DW_TAG_imported_declaration, scope: !29, entity: !948, file: !665, line: 268)
!957 = !DIImportedEntity(tag: DW_TAG_imported_declaration, scope: !29, entity: !952, file: !665, line: 269)
!958 = !DIImportedEntity(tag: DW_TAG_imported_declaration, scope: !29, entity: !886, file: !665, line: 283)
!959 = !DIImportedEntity(tag: DW_TAG_imported_declaration, scope: !29, entity: !814, file: !665, line: 286)
!960 = !DIImportedEntity(tag: DW_TAG_imported_declaration, scope: !29, entity: !820, file: !665, line: 289)
!961 = !DIImportedEntity(tag: DW_TAG_imported_declaration, scope: !29, entity: !828, file: !665, line: 292)
!962 = !DIImportedEntity(tag: DW_TAG_imported_declaration, scope: !29, entity: !944, file: !665, line: 296)
!963 = !DIImportedEntity(tag: DW_TAG_imported_declaration, scope: !29, entity: !948, file: !665, line: 297)
!964 = !DIImportedEntity(tag: DW_TAG_imported_declaration, scope: !29, entity: !952, file: !665, line: 298)
!965 = !DIImportedEntity(tag: DW_TAG_imported_declaration, scope: !29, entity: !966, file: !969, line: 47)
!966 = !DIDerivedType(tag: DW_TAG_typedef, name: "int8_t", file: !967, line: 24, baseType: !968)
!967 = !DIFile(filename: "/usr/include/x86_64-linux-gnu/bits/stdint-intn.h", directory: "")
!968 = !DIDerivedType(tag: DW_TAG_typedef, name: "__int8_t", file: !705, line: 37, baseType: !709)
!969 = !DIFile(filename: "/usr/bin/../lib/gcc/x86_64-linux-gnu/10/../../../../include/c++/10/cstdint", directory: "")
!970 = !DIImportedEntity(tag: DW_TAG_imported_declaration, scope: !29, entity: !971, file: !969, line: 48)
!971 = !DIDerivedType(tag: DW_TAG_typedef, name: "int16_t", file: !967, line: 25, baseType: !972)
!972 = !DIDerivedType(tag: DW_TAG_typedef, name: "__int16_t", file: !705, line: 39, baseType: !973)
!973 = !DIBasicType(name: "short", size: 16, encoding: DW_ATE_signed)
!974 = !DIImportedEntity(tag: DW_TAG_imported_declaration, scope: !29, entity: !975, file: !969, line: 49)
!975 = !DIDerivedType(tag: DW_TAG_typedef, name: "int32_t", file: !967, line: 26, baseType: !976)
!976 = !DIDerivedType(tag: DW_TAG_typedef, name: "__int32_t", file: !705, line: 41, baseType: !72)
!977 = !DIImportedEntity(tag: DW_TAG_imported_declaration, scope: !29, entity: !978, file: !969, line: 50)
!978 = !DIDerivedType(tag: DW_TAG_typedef, name: "int64_t", file: !967, line: 27, baseType: !979)
!979 = !DIDerivedType(tag: DW_TAG_typedef, name: "__int64_t", file: !705, line: 44, baseType: !343)
!980 = !DIImportedEntity(tag: DW_TAG_imported_declaration, scope: !29, entity: !981, file: !969, line: 52)
!981 = !DIDerivedType(tag: DW_TAG_typedef, name: "int_fast8_t", file: !982, line: 58, baseType: !709)
!982 = !DIFile(filename: "/usr/include/stdint.h", directory: "")
!983 = !DIImportedEntity(tag: DW_TAG_imported_declaration, scope: !29, entity: !984, file: !969, line: 53)
!984 = !DIDerivedType(tag: DW_TAG_typedef, name: "int_fast16_t", file: !982, line: 60, baseType: !343)
!985 = !DIImportedEntity(tag: DW_TAG_imported_declaration, scope: !29, entity: !986, file: !969, line: 54)
!986 = !DIDerivedType(tag: DW_TAG_typedef, name: "int_fast32_t", file: !982, line: 61, baseType: !343)
!987 = !DIImportedEntity(tag: DW_TAG_imported_declaration, scope: !29, entity: !988, file: !969, line: 55)
!988 = !DIDerivedType(tag: DW_TAG_typedef, name: "int_fast64_t", file: !982, line: 62, baseType: !343)
!989 = !DIImportedEntity(tag: DW_TAG_imported_declaration, scope: !29, entity: !990, file: !969, line: 57)
!990 = !DIDerivedType(tag: DW_TAG_typedef, name: "int_least8_t", file: !982, line: 43, baseType: !991)
!991 = !DIDerivedType(tag: DW_TAG_typedef, name: "__int_least8_t", file: !705, line: 52, baseType: !968)
!992 = !DIImportedEntity(tag: DW_TAG_imported_declaration, scope: !29, entity: !993, file: !969, line: 58)
!993 = !DIDerivedType(tag: DW_TAG_typedef, name: "int_least16_t", file: !982, line: 44, baseType: !994)
!994 = !DIDerivedType(tag: DW_TAG_typedef, name: "__int_least16_t", file: !705, line: 54, baseType: !972)
!995 = !DIImportedEntity(tag: DW_TAG_imported_declaration, scope: !29, entity: !996, file: !969, line: 59)
!996 = !DIDerivedType(tag: DW_TAG_typedef, name: "int_least32_t", file: !982, line: 45, baseType: !997)
!997 = !DIDerivedType(tag: DW_TAG_typedef, name: "__int_least32_t", file: !705, line: 56, baseType: !976)
!998 = !DIImportedEntity(tag: DW_TAG_imported_declaration, scope: !29, entity: !999, file: !969, line: 60)
!999 = !DIDerivedType(tag: DW_TAG_typedef, name: "int_least64_t", file: !982, line: 46, baseType: !1000)
!1000 = !DIDerivedType(tag: DW_TAG_typedef, name: "__int_least64_t", file: !705, line: 58, baseType: !979)
!1001 = !DIImportedEntity(tag: DW_TAG_imported_declaration, scope: !29, entity: !1002, file: !969, line: 62)
!1002 = !DIDerivedType(tag: DW_TAG_typedef, name: "intmax_t", file: !982, line: 101, baseType: !1003)
!1003 = !DIDerivedType(tag: DW_TAG_typedef, name: "__intmax_t", file: !705, line: 72, baseType: !343)
!1004 = !DIImportedEntity(tag: DW_TAG_imported_declaration, scope: !29, entity: !1005, file: !969, line: 63)
!1005 = !DIDerivedType(tag: DW_TAG_typedef, name: "intptr_t", file: !982, line: 87, baseType: !343)
!1006 = !DIImportedEntity(tag: DW_TAG_imported_declaration, scope: !29, entity: !1007, file: !969, line: 65)
!1007 = !DIDerivedType(tag: DW_TAG_typedef, name: "uint8_t", file: !1008, line: 24, baseType: !1009)
!1008 = !DIFile(filename: "/usr/include/x86_64-linux-gnu/bits/stdint-uintn.h", directory: "")
!1009 = !DIDerivedType(tag: DW_TAG_typedef, name: "__uint8_t", file: !705, line: 38, baseType: !1010)
!1010 = !DIBasicType(name: "unsigned char", size: 8, encoding: DW_ATE_unsigned_char)
!1011 = !DIImportedEntity(tag: DW_TAG_imported_declaration, scope: !29, entity: !1012, file: !969, line: 66)
!1012 = !DIDerivedType(tag: DW_TAG_typedef, name: "uint16_t", file: !1008, line: 25, baseType: !1013)
!1013 = !DIDerivedType(tag: DW_TAG_typedef, name: "__uint16_t", file: !705, line: 40, baseType: !707)
!1014 = !DIImportedEntity(tag: DW_TAG_imported_declaration, scope: !29, entity: !1015, file: !969, line: 67)
!1015 = !DIDerivedType(tag: DW_TAG_typedef, name: "uint32_t", file: !1008, line: 26, baseType: !1016)
!1016 = !DIDerivedType(tag: DW_TAG_typedef, name: "__uint32_t", file: !705, line: 42, baseType: !572)
!1017 = !DIImportedEntity(tag: DW_TAG_imported_declaration, scope: !29, entity: !1018, file: !969, line: 68)
!1018 = !DIDerivedType(tag: DW_TAG_typedef, name: "uint64_t", file: !1008, line: 27, baseType: !1019)
!1019 = !DIDerivedType(tag: DW_TAG_typedef, name: "__uint64_t", file: !705, line: 45, baseType: !11)
!1020 = !DIImportedEntity(tag: DW_TAG_imported_declaration, scope: !29, entity: !1021, file: !969, line: 70)
!1021 = !DIDerivedType(tag: DW_TAG_typedef, name: "uint_fast8_t", file: !982, line: 71, baseType: !1010)
!1022 = !DIImportedEntity(tag: DW_TAG_imported_declaration, scope: !29, entity: !1023, file: !969, line: 71)
!1023 = !DIDerivedType(tag: DW_TAG_typedef, name: "uint_fast16_t", file: !982, line: 73, baseType: !11)
!1024 = !DIImportedEntity(tag: DW_TAG_imported_declaration, scope: !29, entity: !1025, file: !969, line: 72)
!1025 = !DIDerivedType(tag: DW_TAG_typedef, name: "uint_fast32_t", file: !982, line: 74, baseType: !11)
!1026 = !DIImportedEntity(tag: DW_TAG_imported_declaration, scope: !29, entity: !1027, file: !969, line: 73)
!1027 = !DIDerivedType(tag: DW_TAG_typedef, name: "uint_fast64_t", file: !982, line: 75, baseType: !11)
!1028 = !DIImportedEntity(tag: DW_TAG_imported_declaration, scope: !29, entity: !1029, file: !969, line: 75)
!1029 = !DIDerivedType(tag: DW_TAG_typedef, name: "uint_least8_t", file: !982, line: 49, baseType: !1030)
!1030 = !DIDerivedType(tag: DW_TAG_typedef, name: "__uint_least8_t", file: !705, line: 53, baseType: !1009)
!1031 = !DIImportedEntity(tag: DW_TAG_imported_declaration, scope: !29, entity: !1032, file: !969, line: 76)
!1032 = !DIDerivedType(tag: DW_TAG_typedef, name: "uint_least16_t", file: !982, line: 50, baseType: !1033)
!1033 = !DIDerivedType(tag: DW_TAG_typedef, name: "__uint_least16_t", file: !705, line: 55, baseType: !1013)
!1034 = !DIImportedEntity(tag: DW_TAG_imported_declaration, scope: !29, entity: !1035, file: !969, line: 77)
!1035 = !DIDerivedType(tag: DW_TAG_typedef, name: "uint_least32_t", file: !982, line: 51, baseType: !1036)
!1036 = !DIDerivedType(tag: DW_TAG_typedef, name: "__uint_least32_t", file: !705, line: 57, baseType: !1016)
!1037 = !DIImportedEntity(tag: DW_TAG_imported_declaration, scope: !29, entity: !1038, file: !969, line: 78)
!1038 = !DIDerivedType(tag: DW_TAG_typedef, name: "uint_least64_t", file: !982, line: 52, baseType: !1039)
!1039 = !DIDerivedType(tag: DW_TAG_typedef, name: "__uint_least64_t", file: !705, line: 59, baseType: !1019)
!1040 = !DIImportedEntity(tag: DW_TAG_imported_declaration, scope: !29, entity: !1041, file: !969, line: 80)
!1041 = !DIDerivedType(tag: DW_TAG_typedef, name: "uintmax_t", file: !982, line: 102, baseType: !1042)
!1042 = !DIDerivedType(tag: DW_TAG_typedef, name: "__uintmax_t", file: !705, line: 73, baseType: !11)
!1043 = !DIImportedEntity(tag: DW_TAG_imported_declaration, scope: !29, entity: !1044, file: !969, line: 81)
!1044 = !DIDerivedType(tag: DW_TAG_typedef, name: "uintptr_t", file: !982, line: 90, baseType: !11)
!1045 = !DIImportedEntity(tag: DW_TAG_imported_declaration, scope: !29, entity: !1046, file: !1047, line: 58)
!1046 = distinct !DICompositeType(tag: DW_TAG_class_type, name: "exception_ptr", scope: !1048, file: !1047, line: 80, size: 64, flags: DIFlagTypePassByReference | DIFlagNonTrivial, elements: !1049, identifier: "_ZTSNSt15__exception_ptr13exception_ptrE")
!1047 = !DIFile(filename: "/usr/bin/../lib/gcc/x86_64-linux-gnu/10/../../../../include/c++/10/bits/exception_ptr.h", directory: "")
!1048 = !DINamespace(name: "__exception_ptr", scope: !29)
!1049 = !{!1050, !1051, !1055, !1058, !1059, !1064, !1065, !1069, !1075, !1079, !1083, !1086, !1087, !1090, !1093}
!1050 = !DIDerivedType(tag: DW_TAG_member, name: "_M_exception_object", scope: !1046, file: !1047, line: 82, baseType: !10, size: 64)
!1051 = !DISubprogram(name: "exception_ptr", scope: !1046, file: !1047, line: 84, type: !1052, scopeLine: 84, flags: DIFlagExplicit | DIFlagPrototyped, spFlags: DISPFlagOptimized)
!1052 = !DISubroutineType(types: !1053)
!1053 = !{null, !1054, !10}
!1054 = !DIDerivedType(tag: DW_TAG_pointer_type, baseType: !1046, size: 64, flags: DIFlagArtificial | DIFlagObjectPointer)
!1055 = !DISubprogram(name: "_M_addref", linkageName: "_ZNSt15__exception_ptr13exception_ptr9_M_addrefEv", scope: !1046, file: !1047, line: 86, type: !1056, scopeLine: 86, flags: DIFlagPrototyped, spFlags: DISPFlagOptimized)
!1056 = !DISubroutineType(types: !1057)
!1057 = !{null, !1054}
!1058 = !DISubprogram(name: "_M_release", linkageName: "_ZNSt15__exception_ptr13exception_ptr10_M_releaseEv", scope: !1046, file: !1047, line: 87, type: !1056, scopeLine: 87, flags: DIFlagPrototyped, spFlags: DISPFlagOptimized)
!1059 = !DISubprogram(name: "_M_get", linkageName: "_ZNKSt15__exception_ptr13exception_ptr6_M_getEv", scope: !1046, file: !1047, line: 89, type: !1060, scopeLine: 89, flags: DIFlagPrototyped, spFlags: DISPFlagOptimized)
!1060 = !DISubroutineType(types: !1061)
!1061 = !{!10, !1062}
!1062 = !DIDerivedType(tag: DW_TAG_pointer_type, baseType: !1063, size: 64, flags: DIFlagArtificial | DIFlagObjectPointer)
!1063 = !DIDerivedType(tag: DW_TAG_const_type, baseType: !1046)
!1064 = !DISubprogram(name: "exception_ptr", scope: !1046, file: !1047, line: 97, type: !1056, scopeLine: 97, flags: DIFlagPublic | DIFlagPrototyped, spFlags: DISPFlagOptimized)
!1065 = !DISubprogram(name: "exception_ptr", scope: !1046, file: !1047, line: 99, type: !1066, scopeLine: 99, flags: DIFlagPublic | DIFlagPrototyped, spFlags: DISPFlagOptimized)
!1066 = !DISubroutineType(types: !1067)
!1067 = !{null, !1054, !1068}
!1068 = !DIDerivedType(tag: DW_TAG_reference_type, baseType: !1063, size: 64)
!1069 = !DISubprogram(name: "exception_ptr", scope: !1046, file: !1047, line: 102, type: !1070, scopeLine: 102, flags: DIFlagPublic | DIFlagPrototyped, spFlags: DISPFlagOptimized)
!1070 = !DISubroutineType(types: !1071)
!1071 = !{null, !1054, !1072}
!1072 = !DIDerivedType(tag: DW_TAG_typedef, name: "nullptr_t", scope: !29, file: !1073, line: 264, baseType: !1074)
!1073 = !DIFile(filename: "/usr/bin/../lib/gcc/x86_64-linux-gnu/10/../../../../include/x86_64-linux-gnu/c++/10/bits/c++config.h", directory: "")
!1074 = !DIBasicType(tag: DW_TAG_unspecified_type, name: "decltype(nullptr)")
!1075 = !DISubprogram(name: "exception_ptr", scope: !1046, file: !1047, line: 106, type: !1076, scopeLine: 106, flags: DIFlagPublic | DIFlagPrototyped, spFlags: DISPFlagOptimized)
!1076 = !DISubroutineType(types: !1077)
!1077 = !{null, !1054, !1078}
!1078 = !DIDerivedType(tag: DW_TAG_rvalue_reference_type, baseType: !1046, size: 64)
!1079 = !DISubprogram(name: "operator=", linkageName: "_ZNSt15__exception_ptr13exception_ptraSERKS0_", scope: !1046, file: !1047, line: 119, type: !1080, scopeLine: 119, flags: DIFlagPublic | DIFlagPrototyped, spFlags: DISPFlagOptimized)
!1080 = !DISubroutineType(types: !1081)
!1081 = !{!1082, !1054, !1068}
!1082 = !DIDerivedType(tag: DW_TAG_reference_type, baseType: !1046, size: 64)
!1083 = !DISubprogram(name: "operator=", linkageName: "_ZNSt15__exception_ptr13exception_ptraSEOS0_", scope: !1046, file: !1047, line: 123, type: !1084, scopeLine: 123, flags: DIFlagPublic | DIFlagPrototyped, spFlags: DISPFlagOptimized)
!1084 = !DISubroutineType(types: !1085)
!1085 = !{!1082, !1054, !1078}
!1086 = !DISubprogram(name: "~exception_ptr", scope: !1046, file: !1047, line: 130, type: !1056, scopeLine: 130, flags: DIFlagPublic | DIFlagPrototyped, spFlags: DISPFlagOptimized)
!1087 = !DISubprogram(name: "swap", linkageName: "_ZNSt15__exception_ptr13exception_ptr4swapERS0_", scope: !1046, file: !1047, line: 133, type: !1088, scopeLine: 133, flags: DIFlagPublic | DIFlagPrototyped, spFlags: DISPFlagOptimized)
!1088 = !DISubroutineType(types: !1089)
!1089 = !{null, !1054, !1082}
!1090 = !DISubprogram(name: "operator bool", linkageName: "_ZNKSt15__exception_ptr13exception_ptrcvbEv", scope: !1046, file: !1047, line: 145, type: !1091, scopeLine: 145, flags: DIFlagPublic | DIFlagExplicit | DIFlagPrototyped, spFlags: DISPFlagOptimized)
!1091 = !DISubroutineType(types: !1092)
!1092 = !{!20, !1062}
!1093 = !DISubprogram(name: "__cxa_exception_type", linkageName: "_ZNKSt15__exception_ptr13exception_ptr20__cxa_exception_typeEv", scope: !1046, file: !1047, line: 154, type: !1094, scopeLine: 154, flags: DIFlagPublic | DIFlagPrototyped, spFlags: DISPFlagOptimized)
!1094 = !DISubroutineType(types: !1095)
!1095 = !{!1096, !1062}
!1096 = !DIDerivedType(tag: DW_TAG_pointer_type, baseType: !1097, size: 64)
!1097 = !DIDerivedType(tag: DW_TAG_const_type, baseType: !1098)
!1098 = !DICompositeType(tag: DW_TAG_class_type, name: "type_info", scope: !29, file: !1099, line: 88, flags: DIFlagFwdDecl, identifier: "_ZTSSt9type_info")
!1099 = !DIFile(filename: "/usr/bin/../lib/gcc/x86_64-linux-gnu/10/../../../../include/c++/10/typeinfo", directory: "")
!1100 = !DIImportedEntity(tag: DW_TAG_imported_declaration, scope: !1048, entity: !1101, file: !1047, line: 74)
!1101 = !DISubprogram(name: "rethrow_exception", linkageName: "_ZSt17rethrow_exceptionNSt15__exception_ptr13exception_ptrE", scope: !29, file: !1047, line: 70, type: !1102, flags: DIFlagPrototyped | DIFlagNoReturn, spFlags: DISPFlagOptimized)
!1102 = !DISubroutineType(types: !1103)
!1103 = !{null, !1046}
!1104 = !DIImportedEntity(tag: DW_TAG_imported_declaration, scope: !29, entity: !1105, file: !1107, line: 53)
!1105 = !DICompositeType(tag: DW_TAG_structure_type, name: "lconv", file: !1106, line: 51, flags: DIFlagFwdDecl, identifier: "_ZTS5lconv")
!1106 = !DIFile(filename: "/usr/include/locale.h", directory: "")
!1107 = !DIFile(filename: "/usr/bin/../lib/gcc/x86_64-linux-gnu/10/../../../../include/c++/10/clocale", directory: "")
!1108 = !DIImportedEntity(tag: DW_TAG_imported_declaration, scope: !29, entity: !1109, file: !1107, line: 54)
!1109 = !DISubprogram(name: "setlocale", scope: !1106, file: !1106, line: 122, type: !1110, flags: DIFlagPrototyped, spFlags: DISPFlagOptimized)
!1110 = !DISubroutineType(types: !1111)
!1111 = !{!525, !72, !12}
!1112 = !DIImportedEntity(tag: DW_TAG_imported_declaration, scope: !29, entity: !1113, file: !1107, line: 55)
!1113 = !DISubprogram(name: "localeconv", scope: !1106, file: !1106, line: 125, type: !1114, flags: DIFlagPrototyped, spFlags: DISPFlagOptimized)
!1114 = !DISubroutineType(types: !1115)
!1115 = !{!1116}
!1116 = !DIDerivedType(tag: DW_TAG_pointer_type, baseType: !1105, size: 64)
!1117 = !DIImportedEntity(tag: DW_TAG_imported_declaration, scope: !29, entity: !1118, file: !1120, line: 64)
!1118 = !DISubprogram(name: "isalnum", scope: !1119, file: !1119, line: 108, type: !118, flags: DIFlagPrototyped, spFlags: DISPFlagOptimized)
!1119 = !DIFile(filename: "/usr/include/ctype.h", directory: "")
!1120 = !DIFile(filename: "/usr/bin/../lib/gcc/x86_64-linux-gnu/10/../../../../include/c++/10/cctype", directory: "")
!1121 = !DIImportedEntity(tag: DW_TAG_imported_declaration, scope: !29, entity: !1122, file: !1120, line: 65)
!1122 = !DISubprogram(name: "isalpha", scope: !1119, file: !1119, line: 109, type: !118, flags: DIFlagPrototyped, spFlags: DISPFlagOptimized)
!1123 = !DIImportedEntity(tag: DW_TAG_imported_declaration, scope: !29, entity: !1124, file: !1120, line: 66)
!1124 = !DISubprogram(name: "iscntrl", scope: !1119, file: !1119, line: 110, type: !118, flags: DIFlagPrototyped, spFlags: DISPFlagOptimized)
!1125 = !DIImportedEntity(tag: DW_TAG_imported_declaration, scope: !29, entity: !1126, file: !1120, line: 67)
!1126 = !DISubprogram(name: "isdigit", scope: !1119, file: !1119, line: 111, type: !118, flags: DIFlagPrototyped, spFlags: DISPFlagOptimized)
!1127 = !DIImportedEntity(tag: DW_TAG_imported_declaration, scope: !29, entity: !1128, file: !1120, line: 68)
!1128 = !DISubprogram(name: "isgraph", scope: !1119, file: !1119, line: 113, type: !118, flags: DIFlagPrototyped, spFlags: DISPFlagOptimized)
!1129 = !DIImportedEntity(tag: DW_TAG_imported_declaration, scope: !29, entity: !1130, file: !1120, line: 69)
!1130 = !DISubprogram(name: "islower", scope: !1119, file: !1119, line: 112, type: !118, flags: DIFlagPrototyped, spFlags: DISPFlagOptimized)
!1131 = !DIImportedEntity(tag: DW_TAG_imported_declaration, scope: !29, entity: !1132, file: !1120, line: 70)
!1132 = !DISubprogram(name: "isprint", scope: !1119, file: !1119, line: 114, type: !118, flags: DIFlagPrototyped, spFlags: DISPFlagOptimized)
!1133 = !DIImportedEntity(tag: DW_TAG_imported_declaration, scope: !29, entity: !1134, file: !1120, line: 71)
!1134 = !DISubprogram(name: "ispunct", scope: !1119, file: !1119, line: 115, type: !118, flags: DIFlagPrototyped, spFlags: DISPFlagOptimized)
!1135 = !DIImportedEntity(tag: DW_TAG_imported_declaration, scope: !29, entity: !1136, file: !1120, line: 72)
!1136 = !DISubprogram(name: "isspace", scope: !1119, file: !1119, line: 116, type: !118, flags: DIFlagPrototyped, spFlags: DISPFlagOptimized)
!1137 = !DIImportedEntity(tag: DW_TAG_imported_declaration, scope: !29, entity: !1138, file: !1120, line: 73)
!1138 = !DISubprogram(name: "isupper", scope: !1119, file: !1119, line: 117, type: !118, flags: DIFlagPrototyped, spFlags: DISPFlagOptimized)
!1139 = !DIImportedEntity(tag: DW_TAG_imported_declaration, scope: !29, entity: !1140, file: !1120, line: 74)
!1140 = !DISubprogram(name: "isxdigit", scope: !1119, file: !1119, line: 118, type: !118, flags: DIFlagPrototyped, spFlags: DISPFlagOptimized)
!1141 = !DIImportedEntity(tag: DW_TAG_imported_declaration, scope: !29, entity: !1142, file: !1120, line: 75)
!1142 = !DISubprogram(name: "tolower", scope: !1119, file: !1119, line: 122, type: !118, flags: DIFlagPrototyped, spFlags: DISPFlagOptimized)
!1143 = !DIImportedEntity(tag: DW_TAG_imported_declaration, scope: !29, entity: !1144, file: !1120, line: 76)
!1144 = !DISubprogram(name: "toupper", scope: !1119, file: !1119, line: 125, type: !118, flags: DIFlagPrototyped, spFlags: DISPFlagOptimized)
!1145 = !DIImportedEntity(tag: DW_TAG_imported_declaration, scope: !29, entity: !1146, file: !1120, line: 87)
!1146 = !DISubprogram(name: "isblank", scope: !1119, file: !1119, line: 130, type: !118, flags: DIFlagPrototyped, spFlags: DISPFlagOptimized)
!1147 = !DIImportedEntity(tag: DW_TAG_imported_declaration, scope: !29, entity: !1148, file: !1150, line: 98)
!1148 = !DIDerivedType(tag: DW_TAG_typedef, name: "FILE", file: !1149, line: 7, baseType: !681)
!1149 = !DIFile(filename: "/usr/include/x86_64-linux-gnu/bits/types/FILE.h", directory: "")
!1150 = !DIFile(filename: "/usr/bin/../lib/gcc/x86_64-linux-gnu/10/../../../../include/c++/10/cstdio", directory: "")
!1151 = !DIImportedEntity(tag: DW_TAG_imported_declaration, scope: !29, entity: !1152, file: !1150, line: 99)
!1152 = !DIDerivedType(tag: DW_TAG_typedef, name: "fpos_t", file: !1153, line: 84, baseType: !1154)
!1153 = !DIFile(filename: "/usr/include/stdio.h", directory: "")
!1154 = !DIDerivedType(tag: DW_TAG_typedef, name: "__fpos_t", file: !1155, line: 14, baseType: !1156)
!1155 = !DIFile(filename: "/usr/include/x86_64-linux-gnu/bits/types/__fpos_t.h", directory: "")
!1156 = !DICompositeType(tag: DW_TAG_structure_type, name: "_G_fpos_t", file: !1155, line: 10, flags: DIFlagFwdDecl, identifier: "_ZTS9_G_fpos_t")
!1157 = !DIImportedEntity(tag: DW_TAG_imported_declaration, scope: !29, entity: !1158, file: !1150, line: 101)
!1158 = !DISubprogram(name: "clearerr", scope: !1153, file: !1153, line: 757, type: !1159, flags: DIFlagPrototyped, spFlags: DISPFlagOptimized)
!1159 = !DISubroutineType(types: !1160)
!1160 = !{null, !1161}
!1161 = !DIDerivedType(tag: DW_TAG_pointer_type, baseType: !1148, size: 64)
!1162 = !DIImportedEntity(tag: DW_TAG_imported_declaration, scope: !29, entity: !1163, file: !1150, line: 102)
!1163 = !DISubprogram(name: "fclose", scope: !1153, file: !1153, line: 213, type: !1164, flags: DIFlagPrototyped, spFlags: DISPFlagOptimized)
!1164 = !DISubroutineType(types: !1165)
!1165 = !{!72, !1161}
!1166 = !DIImportedEntity(tag: DW_TAG_imported_declaration, scope: !29, entity: !1167, file: !1150, line: 103)
!1167 = !DISubprogram(name: "feof", scope: !1153, file: !1153, line: 759, type: !1164, flags: DIFlagPrototyped, spFlags: DISPFlagOptimized)
!1168 = !DIImportedEntity(tag: DW_TAG_imported_declaration, scope: !29, entity: !1169, file: !1150, line: 104)
!1169 = !DISubprogram(name: "ferror", scope: !1153, file: !1153, line: 761, type: !1164, flags: DIFlagPrototyped, spFlags: DISPFlagOptimized)
!1170 = !DIImportedEntity(tag: DW_TAG_imported_declaration, scope: !29, entity: !1171, file: !1150, line: 105)
!1171 = !DISubprogram(name: "fflush", scope: !1153, file: !1153, line: 218, type: !1164, flags: DIFlagPrototyped, spFlags: DISPFlagOptimized)
!1172 = !DIImportedEntity(tag: DW_TAG_imported_declaration, scope: !29, entity: !1173, file: !1150, line: 106)
!1173 = !DISubprogram(name: "fgetc", scope: !1153, file: !1153, line: 485, type: !1164, flags: DIFlagPrototyped, spFlags: DISPFlagOptimized)
!1174 = !DIImportedEntity(tag: DW_TAG_imported_declaration, scope: !29, entity: !1175, file: !1150, line: 107)
!1175 = !DISubprogram(name: "fgetpos", scope: !1153, file: !1153, line: 731, type: !1176, flags: DIFlagPrototyped, spFlags: DISPFlagOptimized)
!1176 = !DISubroutineType(types: !1177)
!1177 = !{!72, !1178, !1179}
!1178 = !DIDerivedType(tag: DW_TAG_restrict_type, baseType: !1161)
!1179 = !DIDerivedType(tag: DW_TAG_restrict_type, baseType: !1180)
!1180 = !DIDerivedType(tag: DW_TAG_pointer_type, baseType: !1152, size: 64)
!1181 = !DIImportedEntity(tag: DW_TAG_imported_declaration, scope: !29, entity: !1182, file: !1150, line: 108)
!1182 = !DISubprogram(name: "fgets", scope: !1153, file: !1153, line: 564, type: !1183, flags: DIFlagPrototyped, spFlags: DISPFlagOptimized)
!1183 = !DISubroutineType(types: !1184)
!1184 = !{!525, !593, !72, !1178}
!1185 = !DIImportedEntity(tag: DW_TAG_imported_declaration, scope: !29, entity: !1186, file: !1150, line: 109)
!1186 = !DISubprogram(name: "fopen", scope: !1153, file: !1153, line: 246, type: !1187, flags: DIFlagPrototyped, spFlags: DISPFlagOptimized)
!1187 = !DISubroutineType(types: !1188)
!1188 = !{!1161, !549, !549}
!1189 = !DIImportedEntity(tag: DW_TAG_imported_declaration, scope: !29, entity: !1190, file: !1150, line: 110)
!1190 = !DISubprogram(name: "fprintf", scope: !1153, file: !1153, line: 326, type: !1191, flags: DIFlagPrototyped, spFlags: DISPFlagOptimized)
!1191 = !DISubroutineType(types: !1192)
!1192 = !{!72, !1178, !549, null}
!1193 = !DIImportedEntity(tag: DW_TAG_imported_declaration, scope: !29, entity: !1194, file: !1150, line: 111)
!1194 = !DISubprogram(name: "fputc", scope: !1153, file: !1153, line: 521, type: !1195, flags: DIFlagPrototyped, spFlags: DISPFlagOptimized)
!1195 = !DISubroutineType(types: !1196)
!1196 = !{!72, !72, !1161}
!1197 = !DIImportedEntity(tag: DW_TAG_imported_declaration, scope: !29, entity: !1198, file: !1150, line: 112)
!1198 = !DISubprogram(name: "fputs", scope: !1153, file: !1153, line: 626, type: !1199, flags: DIFlagPrototyped, spFlags: DISPFlagOptimized)
!1199 = !DISubroutineType(types: !1200)
!1200 = !{!72, !549, !1178}
!1201 = !DIImportedEntity(tag: DW_TAG_imported_declaration, scope: !29, entity: !1202, file: !1150, line: 113)
!1202 = !DISubprogram(name: "fread", scope: !1153, file: !1153, line: 646, type: !1203, flags: DIFlagPrototyped, spFlags: DISPFlagOptimized)
!1203 = !DISubroutineType(types: !1204)
!1204 = !{!476, !1205, !476, !476, !1178}
!1205 = !DIDerivedType(tag: DW_TAG_restrict_type, baseType: !10)
!1206 = !DIImportedEntity(tag: DW_TAG_imported_declaration, scope: !29, entity: !1207, file: !1150, line: 114)
!1207 = !DISubprogram(name: "freopen", scope: !1153, file: !1153, line: 252, type: !1208, flags: DIFlagPrototyped, spFlags: DISPFlagOptimized)
!1208 = !DISubroutineType(types: !1209)
!1209 = !{!1161, !549, !549, !1178}
!1210 = !DIImportedEntity(tag: DW_TAG_imported_declaration, scope: !29, entity: !1211, file: !1150, line: 115)
!1211 = !DISubprogram(name: "fscanf", linkageName: "__isoc99_fscanf", scope: !1153, file: !1153, line: 407, type: !1191, flags: DIFlagPrototyped, spFlags: DISPFlagOptimized)
!1212 = !DIImportedEntity(tag: DW_TAG_imported_declaration, scope: !29, entity: !1213, file: !1150, line: 116)
!1213 = !DISubprogram(name: "fseek", scope: !1153, file: !1153, line: 684, type: !1214, flags: DIFlagPrototyped, spFlags: DISPFlagOptimized)
!1214 = !DISubroutineType(types: !1215)
!1215 = !{!72, !1161, !343, !72}
!1216 = !DIImportedEntity(tag: DW_TAG_imported_declaration, scope: !29, entity: !1217, file: !1150, line: 117)
!1217 = !DISubprogram(name: "fsetpos", scope: !1153, file: !1153, line: 736, type: !1218, flags: DIFlagPrototyped, spFlags: DISPFlagOptimized)
!1218 = !DISubroutineType(types: !1219)
!1219 = !{!72, !1161, !1220}
!1220 = !DIDerivedType(tag: DW_TAG_pointer_type, baseType: !1221, size: 64)
!1221 = !DIDerivedType(tag: DW_TAG_const_type, baseType: !1152)
!1222 = !DIImportedEntity(tag: DW_TAG_imported_declaration, scope: !29, entity: !1223, file: !1150, line: 118)
!1223 = !DISubprogram(name: "ftell", scope: !1153, file: !1153, line: 689, type: !1224, flags: DIFlagPrototyped, spFlags: DISPFlagOptimized)
!1224 = !DISubroutineType(types: !1225)
!1225 = !{!343, !1161}
!1226 = !DIImportedEntity(tag: DW_TAG_imported_declaration, scope: !29, entity: !1227, file: !1150, line: 119)
!1227 = !DISubprogram(name: "fwrite", scope: !1153, file: !1153, line: 652, type: !1228, flags: DIFlagPrototyped, spFlags: DISPFlagOptimized)
!1228 = !DISubroutineType(types: !1229)
!1229 = !{!476, !1230, !476, !476, !1178}
!1230 = !DIDerivedType(tag: DW_TAG_restrict_type, baseType: !501)
!1231 = !DIImportedEntity(tag: DW_TAG_imported_declaration, scope: !29, entity: !1232, file: !1150, line: 120)
!1232 = !DISubprogram(name: "getc", scope: !1153, file: !1153, line: 486, type: !1164, flags: DIFlagPrototyped, spFlags: DISPFlagOptimized)
!1233 = !DIImportedEntity(tag: DW_TAG_imported_declaration, scope: !29, entity: !1234, file: !1150, line: 121)
!1234 = !DISubprogram(name: "getchar", scope: !1235, file: !1235, line: 47, type: !562, flags: DIFlagPrototyped, spFlags: DISPFlagOptimized)
!1235 = !DIFile(filename: "/usr/include/x86_64-linux-gnu/bits/stdio.h", directory: "")
!1236 = !DIImportedEntity(tag: DW_TAG_imported_declaration, scope: !29, entity: !1237, file: !1150, line: 126)
!1237 = !DISubprogram(name: "perror", scope: !1153, file: !1153, line: 775, type: !1238, flags: DIFlagPrototyped, spFlags: DISPFlagOptimized)
!1238 = !DISubroutineType(types: !1239)
!1239 = !{null, !12}
!1240 = !DIImportedEntity(tag: DW_TAG_imported_declaration, scope: !29, entity: !1241, file: !1150, line: 127)
!1241 = !DISubprogram(name: "printf", scope: !1153, file: !1153, line: 332, type: !1242, flags: DIFlagPrototyped, spFlags: DISPFlagOptimized)
!1242 = !DISubroutineType(types: !1243)
!1243 = !{!72, !549, null}
!1244 = !DIImportedEntity(tag: DW_TAG_imported_declaration, scope: !29, entity: !1245, file: !1150, line: 128)
!1245 = !DISubprogram(name: "putc", scope: !1153, file: !1153, line: 522, type: !1195, flags: DIFlagPrototyped, spFlags: DISPFlagOptimized)
!1246 = !DIImportedEntity(tag: DW_TAG_imported_declaration, scope: !29, entity: !1247, file: !1150, line: 129)
!1247 = !DISubprogram(name: "putchar", scope: !1235, file: !1235, line: 82, type: !118, flags: DIFlagPrototyped, spFlags: DISPFlagOptimized)
!1248 = !DIImportedEntity(tag: DW_TAG_imported_declaration, scope: !29, entity: !1249, file: !1150, line: 130)
!1249 = !DISubprogram(name: "puts", scope: !1153, file: !1153, line: 632, type: !490, flags: DIFlagPrototyped, spFlags: DISPFlagOptimized)
!1250 = !DIImportedEntity(tag: DW_TAG_imported_declaration, scope: !29, entity: !1251, file: !1150, line: 131)
!1251 = !DISubprogram(name: "remove", scope: !1153, file: !1153, line: 146, type: !490, flags: DIFlagPrototyped, spFlags: DISPFlagOptimized)
!1252 = !DIImportedEntity(tag: DW_TAG_imported_declaration, scope: !29, entity: !1253, file: !1150, line: 132)
!1253 = !DISubprogram(name: "rename", scope: !1153, file: !1153, line: 148, type: !1254, flags: DIFlagPrototyped, spFlags: DISPFlagOptimized)
!1254 = !DISubroutineType(types: !1255)
!1255 = !{!72, !12, !12}
!1256 = !DIImportedEntity(tag: DW_TAG_imported_declaration, scope: !29, entity: !1257, file: !1150, line: 133)
!1257 = !DISubprogram(name: "rewind", scope: !1153, file: !1153, line: 694, type: !1159, flags: DIFlagPrototyped, spFlags: DISPFlagOptimized)
!1258 = !DIImportedEntity(tag: DW_TAG_imported_declaration, scope: !29, entity: !1259, file: !1150, line: 134)
!1259 = !DISubprogram(name: "scanf", linkageName: "__isoc99_scanf", scope: !1153, file: !1153, line: 410, type: !1242, flags: DIFlagPrototyped, spFlags: DISPFlagOptimized)
!1260 = !DIImportedEntity(tag: DW_TAG_imported_declaration, scope: !29, entity: !1261, file: !1150, line: 135)
!1261 = !DISubprogram(name: "setbuf", scope: !1153, file: !1153, line: 304, type: !1262, flags: DIFlagPrototyped, spFlags: DISPFlagOptimized)
!1262 = !DISubroutineType(types: !1263)
!1263 = !{null, !1178, !593}
!1264 = !DIImportedEntity(tag: DW_TAG_imported_declaration, scope: !29, entity: !1265, file: !1150, line: 136)
!1265 = !DISubprogram(name: "setvbuf", scope: !1153, file: !1153, line: 308, type: !1266, flags: DIFlagPrototyped, spFlags: DISPFlagOptimized)
!1266 = !DISubroutineType(types: !1267)
!1267 = !{!72, !1178, !593, !72, !476}
!1268 = !DIImportedEntity(tag: DW_TAG_imported_declaration, scope: !29, entity: !1269, file: !1150, line: 137)
!1269 = !DISubprogram(name: "sprintf", scope: !1153, file: !1153, line: 334, type: !1270, flags: DIFlagPrototyped, spFlags: DISPFlagOptimized)
!1270 = !DISubroutineType(types: !1271)
!1271 = !{!72, !593, !549, null}
!1272 = !DIImportedEntity(tag: DW_TAG_imported_declaration, scope: !29, entity: !1273, file: !1150, line: 138)
!1273 = !DISubprogram(name: "sscanf", linkageName: "__isoc99_sscanf", scope: !1153, file: !1153, line: 412, type: !1274, flags: DIFlagPrototyped, spFlags: DISPFlagOptimized)
!1274 = !DISubroutineType(types: !1275)
!1275 = !{!72, !549, !549, null}
!1276 = !DIImportedEntity(tag: DW_TAG_imported_declaration, scope: !29, entity: !1277, file: !1150, line: 139)
!1277 = !DISubprogram(name: "tmpfile", scope: !1153, file: !1153, line: 173, type: !1278, flags: DIFlagPrototyped, spFlags: DISPFlagOptimized)
!1278 = !DISubroutineType(types: !1279)
!1279 = !{!1161}
!1280 = !DIImportedEntity(tag: DW_TAG_imported_declaration, scope: !29, entity: !1281, file: !1150, line: 141)
!1281 = !DISubprogram(name: "tmpnam", scope: !1153, file: !1153, line: 187, type: !1282, flags: DIFlagPrototyped, spFlags: DISPFlagOptimized)
!1282 = !DISubroutineType(types: !1283)
!1283 = !{!525, !525}
!1284 = !DIImportedEntity(tag: DW_TAG_imported_declaration, scope: !29, entity: !1285, file: !1150, line: 143)
!1285 = !DISubprogram(name: "ungetc", scope: !1153, file: !1153, line: 639, type: !1195, flags: DIFlagPrototyped, spFlags: DISPFlagOptimized)
!1286 = !DIImportedEntity(tag: DW_TAG_imported_declaration, scope: !29, entity: !1287, file: !1150, line: 144)
!1287 = !DISubprogram(name: "vfprintf", scope: !1153, file: !1153, line: 341, type: !1288, flags: DIFlagPrototyped, spFlags: DISPFlagOptimized)
!1288 = !DISubroutineType(types: !1289)
!1289 = !{!72, !1178, !549, !806}
!1290 = !DIImportedEntity(tag: DW_TAG_imported_declaration, scope: !29, entity: !1291, file: !1150, line: 145)
!1291 = !DISubprogram(name: "vprintf", scope: !1235, file: !1235, line: 39, type: !1292, flags: DIFlagPrototyped, spFlags: DISPFlagOptimized)
!1292 = !DISubroutineType(types: !1293)
!1293 = !{!72, !549, !806}
!1294 = !DIImportedEntity(tag: DW_TAG_imported_declaration, scope: !29, entity: !1295, file: !1150, line: 146)
!1295 = !DISubprogram(name: "vsprintf", scope: !1153, file: !1153, line: 349, type: !1296, flags: DIFlagPrototyped, spFlags: DISPFlagOptimized)
!1296 = !DISubroutineType(types: !1297)
!1297 = !{!72, !593, !549, !806}
!1298 = !DIImportedEntity(tag: DW_TAG_imported_declaration, scope: !602, entity: !1299, file: !1150, line: 175)
!1299 = !DISubprogram(name: "snprintf", scope: !1153, file: !1153, line: 354, type: !1300, flags: DIFlagPrototyped, spFlags: DISPFlagOptimized)
!1300 = !DISubroutineType(types: !1301)
!1301 = !{!72, !593, !476, !549, null}
!1302 = !DIImportedEntity(tag: DW_TAG_imported_declaration, scope: !602, entity: !1303, file: !1150, line: 176)
!1303 = !DISubprogram(name: "vfscanf", linkageName: "__isoc99_vfscanf", scope: !1153, file: !1153, line: 451, type: !1288, flags: DIFlagPrototyped, spFlags: DISPFlagOptimized)
!1304 = !DIImportedEntity(tag: DW_TAG_imported_declaration, scope: !602, entity: !1305, file: !1150, line: 177)
!1305 = !DISubprogram(name: "vscanf", linkageName: "__isoc99_vscanf", scope: !1153, file: !1153, line: 456, type: !1292, flags: DIFlagPrototyped, spFlags: DISPFlagOptimized)
!1306 = !DIImportedEntity(tag: DW_TAG_imported_declaration, scope: !602, entity: !1307, file: !1150, line: 178)
!1307 = !DISubprogram(name: "vsnprintf", scope: !1153, file: !1153, line: 358, type: !1308, flags: DIFlagPrototyped, spFlags: DISPFlagOptimized)
!1308 = !DISubroutineType(types: !1309)
!1309 = !{!72, !593, !476, !549, !806}
!1310 = !DIImportedEntity(tag: DW_TAG_imported_declaration, scope: !602, entity: !1311, file: !1150, line: 179)
!1311 = !DISubprogram(name: "vsscanf", linkageName: "__isoc99_vsscanf", scope: !1153, file: !1153, line: 459, type: !1312, flags: DIFlagPrototyped, spFlags: DISPFlagOptimized)
!1312 = !DISubroutineType(types: !1313)
!1313 = !{!72, !549, !549, !806}
!1314 = !DIImportedEntity(tag: DW_TAG_imported_declaration, scope: !29, entity: !1299, file: !1150, line: 185)
!1315 = !DIImportedEntity(tag: DW_TAG_imported_declaration, scope: !29, entity: !1303, file: !1150, line: 186)
!1316 = !DIImportedEntity(tag: DW_TAG_imported_declaration, scope: !29, entity: !1305, file: !1150, line: 187)
!1317 = !DIImportedEntity(tag: DW_TAG_imported_declaration, scope: !29, entity: !1307, file: !1150, line: 188)
!1318 = !DIImportedEntity(tag: DW_TAG_imported_declaration, scope: !29, entity: !1311, file: !1150, line: 189)
!1319 = !DIDerivedType(tag: DW_TAG_typedef, name: "default_random_engine", scope: !29, file: !28, line: 1593, baseType: !1320)
!1320 = !DIDerivedType(tag: DW_TAG_typedef, name: "minstd_rand0", scope: !29, file: !28, line: 1545, baseType: !27)
!1321 = distinct !DICompileUnit(language: DW_LANG_C99, file: !1322, producer: "clang version 9.0.1-12 ", isOptimized: true, runtimeVersion: 0, emissionKind: FullDebug, enums: !4, nameTableKind: None)
!1322 = !DIFile(filename: "/home/mlc655/klee/runtime/Freestanding/memcpy.c", directory: "/home/mlc655/klee-build/runtime/Freestanding")
!1323 = !{i32 7, !"Dwarf Version", i32 4}
!1324 = !{i32 2, !"Debug Info Version", i32 3}
!1325 = !{i32 1, !"wchar_size", i32 4}
!1326 = !{!"clang version 10.0.0-4ubuntu1 "}
!1327 = !{!"clang version 9.0.1-12 "}
!1328 = distinct !DISubprogram(name: "main", scope: !3, file: !3, line: 13, type: !562, scopeLine: 14, flags: DIFlagPrototyped | DIFlagAllCallsDescribed, spFlags: DISPFlagDefinition | DISPFlagOptimized, unit: !2, retainedNodes: !1329)
!1329 = !{!1330, !1331, !1332, !1333, !1334, !1338, !1339, !1343}
!1330 = !DILocalVariable(name: "a", scope: !1328, file: !3, line: 15, type: !72)
!1331 = !DILocalVariable(name: "b", scope: !1328, file: !3, line: 15, type: !72)
!1332 = !DILocalVariable(name: "c", scope: !1328, file: !3, line: 15, type: !72)
!1333 = !DILocalVariable(name: "t", scope: !1328, file: !3, line: 15, type: !72)
!1334 = !DILocalVariable(name: "_distribution1", scope: !1328, file: !3, line: 17, type: !1335)
!1335 = !DICompositeType(tag: DW_TAG_array_type, baseType: !16, size: 192, elements: !1336)
!1336 = !{!1337}
!1337 = !DISubrange(count: 6)
!1338 = !DILocalVariable(name: "_probabilities1", scope: !1328, file: !3, line: 18, type: !1335)
!1339 = !DILocalVariable(name: "_distribution2", scope: !1328, file: !3, line: 20, type: !1340)
!1340 = !DICompositeType(tag: DW_TAG_array_type, baseType: !16, size: 320, elements: !1341)
!1341 = !{!1342}
!1342 = !DISubrange(count: 10)
!1343 = !DILocalVariable(name: "_probabilities2", scope: !1328, file: !3, line: 21, type: !1344)
!1344 = !DICompositeType(tag: DW_TAG_array_type, baseType: !16, size: 352, elements: !1345)
!1345 = !{!1346}
!1346 = !DISubrange(count: 11)
!1347 = !DILocation(line: 15, column: 3, scope: !1328)
!1348 = !DILocation(line: 17, column: 3, scope: !1328)
!1349 = !DILocation(line: 17, column: 9, scope: !1328)
!1350 = !DILocation(line: 18, column: 3, scope: !1328)
!1351 = !DILocation(line: 18, column: 9, scope: !1328)
!1352 = !DILocation(line: 20, column: 3, scope: !1328)
!1353 = !DILocation(line: 20, column: 9, scope: !1328)
!1354 = !DILocation(line: 21, column: 3, scope: !1328)
!1355 = !DILocation(line: 21, column: 9, scope: !1328)
!1356 = !DILocation(line: 23, column: 54, scope: !1328)
!1357 = !DILocation(line: 23, column: 70, scope: !1328)
!1358 = !DILocation(line: 0, scope: !1328)
!1359 = !DILocation(line: 23, column: 3, scope: !1328)
!1360 = !DILocation(line: 24, column: 54, scope: !1328)
!1361 = !DILocation(line: 24, column: 70, scope: !1328)
!1362 = !DILocation(line: 24, column: 3, scope: !1328)
!1363 = !DILocation(line: 25, column: 3, scope: !1328)
!1364 = !DILocation(line: 27, column: 8, scope: !1365)
!1365 = distinct !DILexicalBlock(scope: !1328, file: !3, line: 27, column: 7)
!1366 = !{!1367, !1367, i64 0}
!1367 = !{!"int", !1368, i64 0}
!1368 = !{!"omnipotent char", !1369, i64 0}
!1369 = !{!"Simple C++ TBAA"}
!1370 = !DILocation(line: 27, column: 12, scope: !1365)
!1371 = !DILocation(line: 27, column: 16, scope: !1365)
!1372 = !DILocation(line: 27, column: 14, scope: !1365)
!1373 = !DILocation(line: 27, column: 10, scope: !1365)
!1374 = !DILocation(line: 27, column: 24, scope: !1365)
!1375 = !DILocation(line: 27, column: 19, scope: !1365)
!1376 = !DILocation(line: 29, column: 11, scope: !1377)
!1377 = distinct !DILexicalBlock(scope: !1365, file: !3, line: 28, column: 3)
!1378 = !DILocation(line: 29, column: 7, scope: !1377)
!1379 = !DILocation(line: 30, column: 7, scope: !1377)
!1380 = !DILocation(line: 32, column: 5, scope: !1377)
!1381 = !DILocation(line: 33, column: 5, scope: !1377)
!1382 = !DILocation(line: 34, column: 5, scope: !1377)
!1383 = !DILocation(line: 35, column: 5, scope: !1377)
!1384 = !DILocation(line: 37, column: 3, scope: !1377)
!1385 = !DILocation(line: 38, column: 18, scope: !1386)
!1386 = distinct !DILexicalBlock(scope: !1365, file: !3, line: 38, column: 12)
!1387 = !DILocation(line: 38, column: 14, scope: !1386)
!1388 = !DILocation(line: 38, column: 12, scope: !1365)
!1389 = !DILocation(line: 40, column: 11, scope: !1390)
!1390 = distinct !DILexicalBlock(scope: !1386, file: !3, line: 39, column: 3)
!1391 = !DILocation(line: 40, column: 7, scope: !1390)
!1392 = !DILocation(line: 42, column: 5, scope: !1390)
!1393 = !DILocation(line: 43, column: 5, scope: !1390)
!1394 = !DILocation(line: 44, column: 5, scope: !1390)
!1395 = !DILocation(line: 0, scope: !1365)
!1396 = !DILocation(line: 53, column: 1, scope: !1328)
!1397 = !DILocation(line: 52, column: 3, scope: !1328)
!1398 = distinct !DISubprogram(name: "memcpy", scope: !1399, file: !1399, line: 12, type: !1400, scopeLine: 12, flags: DIFlagPrototyped, spFlags: DISPFlagDefinition | DISPFlagOptimized, unit: !1321, retainedNodes: !1404)
!1399 = !DIFile(filename: "klee/runtime/Freestanding/memcpy.c", directory: "/home/mlc655")
!1400 = !DISubroutineType(types: !1401)
!1401 = !{!10, !10, !501, !1402}
!1402 = !DIDerivedType(tag: DW_TAG_typedef, name: "size_t", file: !1403, line: 46, baseType: !11)
!1403 = !DIFile(filename: "/usr/lib/llvm-9/lib/clang/9.0.1/include/stddef.h", directory: "")
!1404 = !{!1405, !1406, !1407, !1408, !1409}
!1405 = !DILocalVariable(name: "destaddr", arg: 1, scope: !1398, file: !1399, line: 12, type: !10)
!1406 = !DILocalVariable(name: "srcaddr", arg: 2, scope: !1398, file: !1399, line: 12, type: !501)
!1407 = !DILocalVariable(name: "len", arg: 3, scope: !1398, file: !1399, line: 12, type: !1402)
!1408 = !DILocalVariable(name: "dest", scope: !1398, file: !1399, line: 13, type: !525)
!1409 = !DILocalVariable(name: "src", scope: !1398, file: !1399, line: 14, type: !12)
!1410 = !DILocation(line: 0, scope: !1398)
!1411 = !DILocation(line: 16, column: 16, scope: !1398)
!1412 = !DILocation(line: 16, column: 3, scope: !1398)
!1413 = !DILocation(line: 17, column: 15, scope: !1398)
!1414 = !{!1415, !1415, i64 0}
!1415 = !{!"omnipotent char", !1416, i64 0}
!1416 = !{!"Simple C/C++ TBAA"}
!1417 = !{!1418}
!1418 = distinct !{!1418, !1419}
!1419 = distinct !{!1419, !"LVerDomain"}
!1420 = !DILocation(line: 17, column: 13, scope: !1398)
!1421 = !{!1422}
!1422 = distinct !{!1422, !1419}
!1423 = distinct !{!1423, !1412, !1424, !1425}
!1424 = !DILocation(line: 17, column: 19, scope: !1398)
!1425 = !{!"llvm.loop.isvectorized", i32 1}
!1426 = distinct !{!1426, !1427}
!1427 = !{!"llvm.loop.unroll.disable"}
!1428 = !DILocation(line: 16, column: 13, scope: !1398)
!1429 = !DILocation(line: 17, column: 10, scope: !1398)
!1430 = distinct !{!1430, !1427}
!1431 = distinct !{!1431, !1412, !1424, !1425}
!1432 = !DILocation(line: 18, column: 3, scope: !1398)
