; ModuleID = 'src/bloomfilter_assumes.cpp'
source_filename = "src/bloomfilter_assumes.cpp"
target datalayout = "e-m:e-p270:32:32-p271:32:32-p272:64:64-i64:64-f80:128-n8:16:32:64-S128"
target triple = "x86_64-pc-linux-gnu"

%"struct.std::piecewise_construct_t" = type { i8 }
%"class.std::__cxx11::basic_string" = type { %"struct.std::__cxx11::basic_string<char, std::char_traits<char>, std::allocator<char> >::_Alloc_hider", i64, %union.anon }
%"struct.std::__cxx11::basic_string<char, std::char_traits<char>, std::allocator<char> >::_Alloc_hider" = type { i8* }
%union.anon = type { i64, [8 x i8] }
%"class.std::allocator" = type { i8 }
%struct.prob_hash = type { %"class.std::unordered_map" }
%"class.std::unordered_map" = type { %"class.std::_Hashtable" }
%"class.std::_Hashtable" = type { %"struct.std::__detail::_Hash_node_base"**, i64, %"struct.std::__detail::_Hash_node_base", i64, %"struct.std::__detail::_Prime_rehash_policy", %"struct.std::__detail::_Hash_node_base"* }
%"struct.std::__detail::_Hash_node_base" = type { %"struct.std::__detail::_Hash_node_base"* }
%"struct.std::__detail::_Prime_rehash_policy" = type { float, i64 }
%"struct.std::__detail::_Node_iterator" = type { %"struct.std::__detail::_Node_iterator_base" }
%"struct.std::__detail::_Node_iterator_base" = type { %"struct.std::__detail::_Hash_node"* }
%"struct.std::__detail::_Hash_node" = type { %"struct.std::__detail::_Hash_node_value_base" }
%"struct.std::__detail::_Hash_node_value_base" = type { %"struct.std::__detail::_Hash_node_base", %"struct.__gnu_cxx::__aligned_buffer" }
%"struct.__gnu_cxx::__aligned_buffer" = type { %"union.std::aligned_storage<8, 4>::type" }
%"union.std::aligned_storage<8, 4>::type" = type { [8 x i8] }
%"struct.std::pair" = type { i32, i32 }
%"struct.std::__detail::_Map_base" = type { i8 }
%struct.bloom = type { i32, double, i32, i32, i32, double, i8*, %struct.prob_hash*, i32 }
%"struct.std::__detail::_Hashtable_base" = type { i8 }
%"struct.std::__detail::_Insert" = type { i8 }
%"struct.std::__detail::_Rehash_base" = type { i8 }
%"struct.std::__detail::_Equality" = type { i8 }
%"struct.std::__detail::_Hashtable_alloc" = type { i8 }
%"struct.std::__detail::_Hashtable_ebo_helper.3" = type { i8 }
%"class.std::allocator.4" = type { i8 }
%"class.__gnu_cxx::new_allocator.5" = type { i8 }
%"class.std::allocator.7" = type { i8 }
%"class.__gnu_cxx::new_allocator.8" = type { i8 }
%"struct.std::__false_type" = type { i8 }
%"struct.std::forward_iterator_tag" = type { i8 }
%"struct.std::random_access_iterator_tag" = type { i8 }
%"struct.std::__detail::_Hash_code_base" = type { i8 }
%"struct.std::hash" = type { i8 }
%"struct.std::__detail::_Hashtable_ebo_helper.0" = type { i8 }
%"struct.std::__detail::_Mod_range_hashing" = type { i8 }
%"struct.std::__detail::_Hashtable_ebo_helper.1" = type { i8 }
%"struct.std::equal_to" = type { i8 }
%"struct.std::__detail::_Select1st" = type { i8 }
%"struct.std::__detail::_Hashtable_ebo_helper.2" = type { i8 }
%"struct.std::__detail::_Hashtable_ebo_helper" = type { i8 }
%"struct.std::_Hashtable<int, std::pair<const int, unsigned int>, std::allocator<std::pair<const int, unsigned int> >, std::__detail::_Select1st, std::equal_to<int>, std::hash<int>, std::__detail::_Mod_range_hashing, std::__detail::_Default_ranged_hash, std::__detail::_Prime_rehash_policy, std::__detail::_Hashtable_traits<false, false, true> >::_Scoped_node" = type { %"struct.std::__detail::_Hashtable_alloc"*, %"struct.std::__detail::_Hash_node"* }
%"class.std::tuple" = type { %"struct.std::_Tuple_impl" }
%"struct.std::_Tuple_impl" = type { %"struct.std::_Head_base" }
%"struct.std::_Head_base" = type { i32* }
%"class.std::tuple.10" = type { i8 }
%"struct.std::pair.12" = type { i8, i64 }
%"struct.std::_Index_tuple" = type { i8 }
%"struct.std::_Index_tuple.11" = type { i8 }
%"class.std::__pair_base" = type { i8 }
%"struct.std::integral_constant" = type { i8 }

$_ZNSt7__cxx119to_stringEi = comdat any

$_ZNSt7__cxx1112basic_stringIcSt11char_traitsIcESaIcEEC2IS3_EEPKcRKS3_ = comdat any

$_ZNSt13unordered_mapIijSt4hashIiESt8equal_toIiESaISt4pairIKijEEE4findERS5_ = comdat any

$_ZNSt8__detaileqISt4pairIKijELb0EEEbRKNS_19_Node_iterator_baseIT_XT0_EEES8_ = comdat any

$_ZNSt13unordered_mapIijSt4hashIiESt8equal_toIiESaISt4pairIKijEEE3endEv = comdat any

$_Z17make_pse_symbolicIjEvPvmPKcOT_S4_ = comdat any

$_ZNSt13unordered_mapIijSt4hashIiESt8equal_toIiESaISt4pairIKijEEEixERS5_ = comdat any

$_ZNKSt8__detail14_Node_iteratorISt4pairIKijELb0ELb0EEptEv = comdat any

$_ZN9prob_hashC2Ev = comdat any

$_ZN9prob_hashD2Ev = comdat any

$_ZNSt8__detail14__to_chars_lenIjEEjT_i = comdat any

$_ZNSt7__cxx1112basic_stringIcSt11char_traitsIcESaIcEEC2IS3_EEmcRKS3_ = comdat any

$_ZNSt8__detail18__to_chars_10_implIjEEvPcjT_ = comdat any

$_ZNSt7__cxx1112basic_stringIcSt11char_traitsIcESaIcEE12_Alloc_hiderD2Ev = comdat any

$_ZNSt13unordered_mapIijSt4hashIiESt8equal_toIiESaISt4pairIKijEEEC2Ev = comdat any

$_ZNSt10_HashtableIiSt4pairIKijESaIS2_ENSt8__detail10_Select1stESt8equal_toIiESt4hashIiENS4_18_Mod_range_hashingENS4_20_Default_ranged_hashENS4_20_Prime_rehash_policyENS4_17_Hashtable_traitsILb0ELb0ELb1EEEEC2Ev = comdat any

$_ZNSt8__detail16_Hashtable_allocISaINS_10_Hash_nodeISt4pairIKijELb0EEEEEC2Ev = comdat any

$_ZNSt8__detail15_Hash_node_baseC2Ev = comdat any

$_ZNSt8__detail20_Prime_rehash_policyC2Ef = comdat any

$_ZNSt8__detail21_Hashtable_ebo_helperILi0ESaINS_10_Hash_nodeISt4pairIKijELb0EEEELb1EEC2Ev = comdat any

$_ZNSaINSt8__detail10_Hash_nodeISt4pairIKijELb0EEEEC2Ev = comdat any

$_ZN9__gnu_cxx13new_allocatorINSt8__detail10_Hash_nodeISt4pairIKijELb0EEEEC2Ev = comdat any

$_ZNSt13unordered_mapIijSt4hashIiESt8equal_toIiESaISt4pairIKijEEED2Ev = comdat any

$_ZNSt10_HashtableIiSt4pairIKijESaIS2_ENSt8__detail10_Select1stESt8equal_toIiESt4hashIiENS4_18_Mod_range_hashingENS4_20_Default_ranged_hashENS4_20_Prime_rehash_policyENS4_17_Hashtable_traitsILb0ELb0ELb1EEEED2Ev = comdat any

$_ZNSt10_HashtableIiSt4pairIKijESaIS2_ENSt8__detail10_Select1stESt8equal_toIiESt4hashIiENS4_18_Mod_range_hashingENS4_20_Default_ranged_hashENS4_20_Prime_rehash_policyENS4_17_Hashtable_traitsILb0ELb0ELb1EEEE5clearEv = comdat any

$_ZNSt10_HashtableIiSt4pairIKijESaIS2_ENSt8__detail10_Select1stESt8equal_toIiESt4hashIiENS4_18_Mod_range_hashingENS4_20_Default_ranged_hashENS4_20_Prime_rehash_policyENS4_17_Hashtable_traitsILb0ELb0ELb1EEEE21_M_deallocate_bucketsEv = comdat any

$_ZNSt8__detail16_Hashtable_allocISaINS_10_Hash_nodeISt4pairIKijELb0EEEEED2Ev = comdat any

$__clang_call_terminate = comdat any

$_ZNSt8__detail16_Hashtable_allocISaINS_10_Hash_nodeISt4pairIKijELb0EEEEE19_M_deallocate_nodesEPS5_ = comdat any

$_ZNKSt10_HashtableIiSt4pairIKijESaIS2_ENSt8__detail10_Select1stESt8equal_toIiESt4hashIiENS4_18_Mod_range_hashingENS4_20_Default_ranged_hashENS4_20_Prime_rehash_policyENS4_17_Hashtable_traitsILb0ELb0ELb1EEEE8_M_beginEv = comdat any

$_ZNKSt8__detail10_Hash_nodeISt4pairIKijELb0EE7_M_nextEv = comdat any

$_ZNSt8__detail16_Hashtable_allocISaINS_10_Hash_nodeISt4pairIKijELb0EEEEE18_M_deallocate_nodeEPS5_ = comdat any

$_ZNSt16allocator_traitsISaINSt8__detail10_Hash_nodeISt4pairIKijELb0EEEEE7destroyIS4_EEvRS6_PT_ = comdat any

$_ZNSt8__detail16_Hashtable_allocISaINS_10_Hash_nodeISt4pairIKijELb0EEEEE17_M_node_allocatorEv = comdat any

$_ZNSt8__detail21_Hash_node_value_baseISt4pairIKijEE9_M_valptrEv = comdat any

$_ZNSt8__detail16_Hashtable_allocISaINS_10_Hash_nodeISt4pairIKijELb0EEEEE22_M_deallocate_node_ptrEPS5_ = comdat any

$_ZN9__gnu_cxx13new_allocatorINSt8__detail10_Hash_nodeISt4pairIKijELb0EEEE7destroyIS5_EEvPT_ = comdat any

$_ZNSt8__detail21_Hashtable_ebo_helperILi0ESaINS_10_Hash_nodeISt4pairIKijELb0EEEELb1EE6_M_getEv = comdat any

$_ZN9__gnu_cxx16__aligned_bufferISt4pairIKijEE6_M_ptrEv = comdat any

$_ZN9__gnu_cxx16__aligned_bufferISt4pairIKijEE7_M_addrEv = comdat any

$_ZNSt14pointer_traitsIPNSt8__detail10_Hash_nodeISt4pairIKijELb0EEEE10pointer_toERS5_ = comdat any

$_ZNSt16allocator_traitsISaINSt8__detail10_Hash_nodeISt4pairIKijELb0EEEEE10deallocateERS6_PS5_m = comdat any

$_ZSt9addressofINSt8__detail10_Hash_nodeISt4pairIKijELb0EEEEPT_RS6_ = comdat any

$_ZSt11__addressofINSt8__detail10_Hash_nodeISt4pairIKijELb0EEEEPT_RS6_ = comdat any

$_ZN9__gnu_cxx13new_allocatorINSt8__detail10_Hash_nodeISt4pairIKijELb0EEEE10deallocateEPS6_m = comdat any

$_ZNSt10_HashtableIiSt4pairIKijESaIS2_ENSt8__detail10_Select1stESt8equal_toIiESt4hashIiENS4_18_Mod_range_hashingENS4_20_Default_ranged_hashENS4_20_Prime_rehash_policyENS4_17_Hashtable_traitsILb0ELb0ELb1EEEE21_M_deallocate_bucketsEPPNS4_15_Hash_node_baseEm = comdat any

$_ZNKSt10_HashtableIiSt4pairIKijESaIS2_ENSt8__detail10_Select1stESt8equal_toIiESt4hashIiENS4_18_Mod_range_hashingENS4_20_Default_ranged_hashENS4_20_Prime_rehash_policyENS4_17_Hashtable_traitsILb0ELb0ELb1EEEE21_M_uses_single_bucketEPPNS4_15_Hash_node_baseE = comdat any

$_ZNSt8__detail16_Hashtable_allocISaINS_10_Hash_nodeISt4pairIKijELb0EEEEE21_M_deallocate_bucketsEPPNS_15_Hash_node_baseEm = comdat any

$_ZNSt14pointer_traitsIPPNSt8__detail15_Hash_node_baseEE10pointer_toERS2_ = comdat any

$_ZNSaIPNSt8__detail15_Hash_node_baseEEC2INS_10_Hash_nodeISt4pairIKijELb0EEEEERKSaIT_E = comdat any

$_ZNSt16allocator_traitsISaIPNSt8__detail15_Hash_node_baseEEE10deallocateERS3_PS2_m = comdat any

$_ZNSaIPNSt8__detail15_Hash_node_baseEED2Ev = comdat any

$_ZSt9addressofIPNSt8__detail15_Hash_node_baseEEPT_RS3_ = comdat any

$_ZSt11__addressofIPNSt8__detail15_Hash_node_baseEEPT_RS3_ = comdat any

$_ZN9__gnu_cxx13new_allocatorIPNSt8__detail15_Hash_node_baseEEC2Ev = comdat any

$_ZN9__gnu_cxx13new_allocatorIPNSt8__detail15_Hash_node_baseEE10deallocateEPS3_m = comdat any

$_ZN9__gnu_cxx13new_allocatorIPNSt8__detail15_Hash_node_baseEED2Ev = comdat any

$_ZNSt8__detail21_Hashtable_ebo_helperILi0ESaINS_10_Hash_nodeISt4pairIKijELb0EEEELb1EED2Ev = comdat any

$_ZNSaINSt8__detail10_Hash_nodeISt4pairIKijELb0EEEED2Ev = comdat any

$_ZN9__gnu_cxx13new_allocatorINSt8__detail10_Hash_nodeISt4pairIKijELb0EEEED2Ev = comdat any

$_ZNSt7__cxx1112basic_stringIcSt11char_traitsIcESaIcEE12_M_constructIPKcEEvT_S8_ = comdat any

$_ZNSt11char_traitsIcE6lengthEPKc = comdat any

$_ZNSt7__cxx1112basic_stringIcSt11char_traitsIcESaIcEE16_M_construct_auxIPKcEEvT_S8_St12__false_type = comdat any

$_ZNSt7__cxx1112basic_stringIcSt11char_traitsIcESaIcEE12_M_constructIPKcEEvT_S8_St20forward_iterator_tag = comdat any

$_ZN9__gnu_cxx17__is_null_pointerIKcEEbPT_ = comdat any

$_ZSt8distanceIPKcENSt15iterator_traitsIT_E15difference_typeES3_S3_ = comdat any

$_ZSt10__distanceIPKcENSt15iterator_traitsIT_E15difference_typeES3_S3_St26random_access_iterator_tag = comdat any

$_ZSt19__iterator_categoryIPKcENSt15iterator_traitsIT_E17iterator_categoryERKS3_ = comdat any

$_ZN9__gnu_cxx11char_traitsIcE6lengthEPKc = comdat any

$_ZN9__gnu_cxx11char_traitsIcE2eqERKcS3_ = comdat any

$_ZNSt10_HashtableIiSt4pairIKijESaIS2_ENSt8__detail10_Select1stESt8equal_toIiESt4hashIiENS4_18_Mod_range_hashingENS4_20_Default_ranged_hashENS4_20_Prime_rehash_policyENS4_17_Hashtable_traitsILb0ELb0ELb1EEEE4findERS1_ = comdat any

$_ZNKSt8__detail15_Hash_code_baseIiSt4pairIKijENS_10_Select1stESt4hashIiENS_18_Mod_range_hashingENS_20_Default_ranged_hashELb0EE12_M_hash_codeERS2_ = comdat any

$_ZNKSt10_HashtableIiSt4pairIKijESaIS2_ENSt8__detail10_Select1stESt8equal_toIiESt4hashIiENS4_18_Mod_range_hashingENS4_20_Default_ranged_hashENS4_20_Prime_rehash_policyENS4_17_Hashtable_traitsILb0ELb0ELb1EEEE15_M_bucket_indexERS1_m = comdat any

$_ZNKSt10_HashtableIiSt4pairIKijESaIS2_ENSt8__detail10_Select1stESt8equal_toIiESt4hashIiENS4_18_Mod_range_hashingENS4_20_Default_ranged_hashENS4_20_Prime_rehash_policyENS4_17_Hashtable_traitsILb0ELb0ELb1EEEE12_M_find_nodeEmRS1_m = comdat any

$_ZNSt8__detail14_Node_iteratorISt4pairIKijELb0ELb0EEC2EPNS_10_Hash_nodeIS3_Lb0EEE = comdat any

$_ZNSt10_HashtableIiSt4pairIKijESaIS2_ENSt8__detail10_Select1stESt8equal_toIiESt4hashIiENS4_18_Mod_range_hashingENS4_20_Default_ranged_hashENS4_20_Prime_rehash_policyENS4_17_Hashtable_traitsILb0ELb0ELb1EEEE3endEv = comdat any

$_ZNKSt8__detail15_Hash_code_baseIiSt4pairIKijENS_10_Select1stESt4hashIiENS_18_Mod_range_hashingENS_20_Default_ranged_hashELb0EE5_M_h1Ev = comdat any

$_ZNKSt4hashIiEclEi = comdat any

$_ZNKSt8__detail21_Hashtable_ebo_helperILi1ESt4hashIiELb1EE7_M_cgetEv = comdat any

$_ZNKSt8__detail15_Hash_code_baseIiSt4pairIKijENS_10_Select1stESt4hashIiENS_18_Mod_range_hashingENS_20_Default_ranged_hashELb0EE15_M_bucket_indexERS2_mm = comdat any

$_ZNKSt8__detail15_Hash_code_baseIiSt4pairIKijENS_10_Select1stESt4hashIiENS_18_Mod_range_hashingENS_20_Default_ranged_hashELb0EE5_M_h2Ev = comdat any

$_ZNKSt8__detail18_Mod_range_hashingclEmm = comdat any

$_ZNKSt8__detail21_Hashtable_ebo_helperILi2ENS_18_Mod_range_hashingELb1EE7_M_cgetEv = comdat any

$_ZNKSt10_HashtableIiSt4pairIKijESaIS2_ENSt8__detail10_Select1stESt8equal_toIiESt4hashIiENS4_18_Mod_range_hashingENS4_20_Default_ranged_hashENS4_20_Prime_rehash_policyENS4_17_Hashtable_traitsILb0ELb0ELb1EEEE19_M_find_before_nodeEmRS1_m = comdat any

$_ZNKSt8__detail15_Hashtable_baseIiSt4pairIKijENS_10_Select1stESt8equal_toIiESt4hashIiENS_18_Mod_range_hashingENS_20_Default_ranged_hashENS_17_Hashtable_traitsILb0ELb0ELb1EEEE9_M_equalsERS2_mPNS_10_Hash_nodeIS3_Lb0EEE = comdat any

$_ZNKSt10_HashtableIiSt4pairIKijESaIS2_ENSt8__detail10_Select1stESt8equal_toIiESt4hashIiENS4_18_Mod_range_hashingENS4_20_Default_ranged_hashENS4_20_Prime_rehash_policyENS4_17_Hashtable_traitsILb0ELb0ELb1EEEE15_M_bucket_indexEPNS4_10_Hash_nodeIS2_Lb0EEE = comdat any

$_ZNSt8__detail15_Hashtable_baseIiSt4pairIKijENS_10_Select1stESt8equal_toIiESt4hashIiENS_18_Mod_range_hashingENS_20_Default_ranged_hashENS_17_Hashtable_traitsILb0ELb0ELb1EEEE16_Equal_hash_codeINS_10_Hash_nodeIS3_Lb0EEEE9_S_equalsEmRKSG_ = comdat any

$_ZNKSt8__detail15_Hashtable_baseIiSt4pairIKijENS_10_Select1stESt8equal_toIiESt4hashIiENS_18_Mod_range_hashingENS_20_Default_ranged_hashENS_17_Hashtable_traitsILb0ELb0ELb1EEEE5_M_eqEv = comdat any

$_ZNKSt8equal_toIiEclERKiS2_ = comdat any

$_ZNKSt8__detail15_Hash_code_baseIiSt4pairIKijENS_10_Select1stESt4hashIiENS_18_Mod_range_hashingENS_20_Default_ranged_hashELb0EE10_M_extractEv = comdat any

$_ZNKSt8__detail10_Select1stclIRSt4pairIKijEEEDTclsr3stdE3getIXLi0EEEclsr3stdE7forwardIT_Efp_EEEOS6_ = comdat any

$_ZNSt8__detail21_Hash_node_value_baseISt4pairIKijEE4_M_vEv = comdat any

$_ZNKSt8__detail21_Hashtable_ebo_helperILi0ESt8equal_toIiELb1EE7_M_cgetEv = comdat any

$_ZNKSt8__detail21_Hashtable_ebo_helperILi0ENS_10_Select1stELb1EE7_M_cgetEv = comdat any

$_ZSt3getILm0EKijERNSt13tuple_elementIXT_ESt4pairIT0_T1_EE4typeERS5_ = comdat any

$_ZSt7forwardIRSt4pairIKijEEOT_RNSt16remove_referenceIS4_E4typeE = comdat any

$_ZNSt10__pair_getILm0EE5__getIKijEERT_RSt4pairIS3_T0_E = comdat any

$_ZNKSt8__detail15_Hash_code_baseIiSt4pairIKijENS_10_Select1stESt4hashIiENS_18_Mod_range_hashingENS_20_Default_ranged_hashELb0EE15_M_bucket_indexEPKNS_10_Hash_nodeIS3_Lb0EEEm = comdat any

$_ZNKSt8__detail10_Select1stclIRKSt4pairIKijEEEDTclsr3stdE3getIXLi0EEEclsr3stdE7forwardIT_Efp_EEEOS7_ = comdat any

$_ZNKSt8__detail21_Hash_node_value_baseISt4pairIKijEE4_M_vEv = comdat any

$_ZSt3getILm0EKijERKNSt13tuple_elementIXT_ESt4pairIT0_T1_EE4typeERKS5_ = comdat any

$_ZSt7forwardIRKSt4pairIKijEEOT_RNSt16remove_referenceIS5_E4typeE = comdat any

$_ZNSt10__pair_getILm0EE11__const_getIKijEERKT_RKSt4pairIS3_T0_E = comdat any

$_ZNKSt8__detail21_Hash_node_value_baseISt4pairIKijEE9_M_valptrEv = comdat any

$_ZNK9__gnu_cxx16__aligned_bufferISt4pairIKijEE6_M_ptrEv = comdat any

$_ZNK9__gnu_cxx16__aligned_bufferISt4pairIKijEE7_M_addrEv = comdat any

$_ZNSt8__detail19_Node_iterator_baseISt4pairIKijELb0EEC2EPNS_10_Hash_nodeIS3_Lb0EEE = comdat any

$_ZSt3minIjERKT_S2_S2_ = comdat any

$_ZSt3maxIjERKT_S2_S2_ = comdat any

$_ZNSt8__detail9_Map_baseIiSt4pairIKijESaIS3_ENS_10_Select1stESt8equal_toIiESt4hashIiENS_18_Mod_range_hashingENS_20_Default_ranged_hashENS_20_Prime_rehash_policyENS_17_Hashtable_traitsILb0ELb0ELb1EEELb1EEixERS2_ = comdat any

$_ZNSt5tupleIJRKiEEC2ILb1ELb1EEES1_ = comdat any

$_ZNSt10_HashtableIiSt4pairIKijESaIS2_ENSt8__detail10_Select1stESt8equal_toIiESt4hashIiENS4_18_Mod_range_hashingENS4_20_Default_ranged_hashENS4_20_Prime_rehash_policyENS4_17_Hashtable_traitsILb0ELb0ELb1EEEE12_Scoped_nodeC2IJRKSt21piecewise_construct_tSt5tupleIJRS1_EESL_IJEEEEEPNS4_16_Hashtable_allocISaINS4_10_Hash_nodeIS2_Lb0EEEEEEDpOT_ = comdat any

$_ZNSt10_HashtableIiSt4pairIKijESaIS2_ENSt8__detail10_Select1stESt8equal_toIiESt4hashIiENS4_18_Mod_range_hashingENS4_20_Default_ranged_hashENS4_20_Prime_rehash_policyENS4_17_Hashtable_traitsILb0ELb0ELb1EEEE21_M_insert_unique_nodeERS1_mmPNS4_10_Hash_nodeIS2_Lb0EEEm = comdat any

$_ZNSt10_HashtableIiSt4pairIKijESaIS2_ENSt8__detail10_Select1stESt8equal_toIiESt4hashIiENS4_18_Mod_range_hashingENS4_20_Default_ranged_hashENS4_20_Prime_rehash_policyENS4_17_Hashtable_traitsILb0ELb0ELb1EEEE12_Scoped_nodeD2Ev = comdat any

$_ZNSt11_Tuple_implILm0EJRKiEEC2ES1_ = comdat any

$_ZNSt10_Head_baseILm0ERKiLb0EEC2ES1_ = comdat any

$_ZNSt8__detail16_Hashtable_allocISaINS_10_Hash_nodeISt4pairIKijELb0EEEEE16_M_allocate_nodeIJRKSt21piecewise_construct_tSt5tupleIJRS3_EESC_IJEEEEEPS5_DpOT_ = comdat any

$_ZSt7forwardIRKSt21piecewise_construct_tEOT_RNSt16remove_referenceIS3_E4typeE = comdat any

$_ZSt7forwardISt5tupleIJRKiEEEOT_RNSt16remove_referenceIS4_E4typeE = comdat any

$_ZSt7forwardISt5tupleIJEEEOT_RNSt16remove_referenceIS2_E4typeE = comdat any

$_ZNSt16allocator_traitsISaINSt8__detail10_Hash_nodeISt4pairIKijELb0EEEEE8allocateERS6_m = comdat any

$_ZSt12__to_addressINSt8__detail10_Hash_nodeISt4pairIKijELb0EEEEPT_S7_ = comdat any

$_ZNSt8__detail10_Hash_nodeISt4pairIKijELb0EEC2Ev = comdat any

$_ZNSt16allocator_traitsISaINSt8__detail10_Hash_nodeISt4pairIKijELb0EEEEE9constructIS4_JRKSt21piecewise_construct_tSt5tupleIJRS3_EESC_IJEEEEEvRS6_PT_DpOT0_ = comdat any

$_ZN9__gnu_cxx13new_allocatorINSt8__detail10_Hash_nodeISt4pairIKijELb0EEEE8allocateEmPKv = comdat any

$_ZNK9__gnu_cxx13new_allocatorINSt8__detail10_Hash_nodeISt4pairIKijELb0EEEE11_M_max_sizeEv = comdat any

$_ZNSt8__detail21_Hash_node_value_baseISt4pairIKijEEC2Ev = comdat any

$_ZN9__gnu_cxx13new_allocatorINSt8__detail10_Hash_nodeISt4pairIKijELb0EEEE9constructIS5_JRKSt21piecewise_construct_tSt5tupleIJRS4_EESC_IJEEEEEvPT_DpOT0_ = comdat any

$_ZNSt5tupleIJRKiEEC2EOS2_ = comdat any

$_ZNSt4pairIKijEC2IJRS0_EJEEESt21piecewise_construct_tSt5tupleIJDpT_EES5_IJDpT0_EE = comdat any

$_ZNSt11_Tuple_implILm0EJRKiEEC2EOS2_ = comdat any

$_ZSt7forwardIRKiEOT_RNSt16remove_referenceIS2_E4typeE = comdat any

$_ZNSt11_Tuple_implILm0EJRKiEE7_M_headERS2_ = comdat any

$_ZNSt10_Head_baseILm0ERKiLb0EE7_M_headERS2_ = comdat any

$_ZNSt4pairIKijEC2IJRS0_EJLm0EEJEJEEERSt5tupleIJDpT_EERS4_IJDpT1_EESt12_Index_tupleIJXspT0_EEESD_IJXspT2_EEE = comdat any

$_ZSt3getILm0EJRKiEERNSt13tuple_elementIXT_ESt5tupleIJDpT0_EEE4typeERS6_ = comdat any

$_ZSt12__get_helperILm0ERKiJEERT0_RSt11_Tuple_implIXT_EJS2_DpT1_EE = comdat any

$_ZNKSt8__detail20_Prime_rehash_policy8_M_stateEv = comdat any

$_ZNSt10_HashtableIiSt4pairIKijESaIS2_ENSt8__detail10_Select1stESt8equal_toIiESt4hashIiENS4_18_Mod_range_hashingENS4_20_Default_ranged_hashENS4_20_Prime_rehash_policyENS4_17_Hashtable_traitsILb0ELb0ELb1EEEE9_M_rehashEmRKm = comdat any

$_ZNKSt8__detail15_Hash_code_baseIiSt4pairIKijENS_10_Select1stESt4hashIiENS_18_Mod_range_hashingENS_20_Default_ranged_hashELb0EE13_M_store_codeEPNS_10_Hash_nodeIS3_Lb0EEEm = comdat any

$_ZNSt10_HashtableIiSt4pairIKijESaIS2_ENSt8__detail10_Select1stESt8equal_toIiESt4hashIiENS4_18_Mod_range_hashingENS4_20_Default_ranged_hashENS4_20_Prime_rehash_policyENS4_17_Hashtable_traitsILb0ELb0ELb1EEEE22_M_insert_bucket_beginEmPNS4_10_Hash_nodeIS2_Lb0EEE = comdat any

$_ZNSt10_HashtableIiSt4pairIKijESaIS2_ENSt8__detail10_Select1stESt8equal_toIiESt4hashIiENS4_18_Mod_range_hashingENS4_20_Default_ranged_hashENS4_20_Prime_rehash_policyENS4_17_Hashtable_traitsILb0ELb0ELb1EEEE13_M_rehash_auxEmSt17integral_constantIbLb1EE = comdat any

$_ZNSt8__detail20_Prime_rehash_policy8_M_resetEm = comdat any

$_ZNSt10_HashtableIiSt4pairIKijESaIS2_ENSt8__detail10_Select1stESt8equal_toIiESt4hashIiENS4_18_Mod_range_hashingENS4_20_Default_ranged_hashENS4_20_Prime_rehash_policyENS4_17_Hashtable_traitsILb0ELb0ELb1EEEE19_M_allocate_bucketsEm = comdat any

$_ZNSt8__detail16_Hashtable_allocISaINS_10_Hash_nodeISt4pairIKijELb0EEEEE19_M_allocate_bucketsEm = comdat any

$_ZNSt16allocator_traitsISaIPNSt8__detail15_Hash_node_baseEEE8allocateERS3_m = comdat any

$_ZSt12__to_addressIPNSt8__detail15_Hash_node_baseEEPT_S4_ = comdat any

$_ZN9__gnu_cxx13new_allocatorIPNSt8__detail15_Hash_node_baseEE8allocateEmPKv = comdat any

$_ZNK9__gnu_cxx13new_allocatorIPNSt8__detail15_Hash_node_baseEE11_M_max_sizeEv = comdat any

$_ZZNSt8__detail18__to_chars_10_implIjEEvPcjT_E8__digits = comdat any

$_ZSt19piecewise_construct = comdat any

@.str = private unnamed_addr constant [5 x i8] c"num_\00", align 1
@.str.1 = private unnamed_addr constant [5 x i8] c"_sym\00", align 1
@.str.2 = private unnamed_addr constant [7 x i8] c"denom_\00", align 1
@.str.3 = private unnamed_addr constant [13 x i8] c"setFraction_\00", align 1
@.str.4 = private unnamed_addr constant [6 x i8] c"x_sym\00", align 1
@.str.5 = private unnamed_addr constant [10 x i8] c"max = %d\0A\00", align 1
@.str.6 = private unnamed_addr constant [13 x i8] c"Hashes = %d\0A\00", align 1
@.str.7 = private unnamed_addr constant [11 x i8] c"Bits = %d\0A\00", align 1
@.str.8 = private unnamed_addr constant [13 x i8] c"bloom at %p\0A\00", align 1
@.str.9 = private unnamed_addr constant [17 x i8] c" ->entries = %d\0A\00", align 1
@.str.10 = private unnamed_addr constant [15 x i8] c" ->error = %f\0A\00", align 1
@.str.11 = private unnamed_addr constant [14 x i8] c" ->bits = %d\0A\00", align 1
@.str.12 = private unnamed_addr constant [23 x i8] c" ->bits per elem = %f\0A\00", align 1
@.str.13 = private unnamed_addr constant [15 x i8] c" ->bytes = %d\0A\00", align 1
@.str.14 = private unnamed_addr constant [24 x i8] c" ->hash functions = %d\0A\00", align 1
@.str.15 = private unnamed_addr constant [14 x i8] c"BLOOM_VERSION\00", align 1
@_ZZNSt8__detail18__to_chars_10_implIjEEvPcjT_E8__digits = linkonce_odr constant [201 x i8] c"00010203040506070809101112131415161718192021222324252627282930313233343536373839404142434445464748495051525354555657585960616263646566676869707172737475767778798081828384858687888990919293949596979899\00", comdat, align 16, !dbg !0
@.str.16 = private unnamed_addr constant [30 x i8] c"bloom at %p not initialized!\0A\00", align 1
@.str.17 = private unnamed_addr constant [42 x i8] c"basic_string::_M_construct null not valid\00", align 1
@_ZSt19piecewise_construct = linkonce_odr constant %"struct.std::piecewise_construct_t" undef, comdat, align 1, !dbg !1302

; Function Attrs: noinline uwtable
define void @_Z16setFractionValuePviii(i8* %0, i32 %1, i32 %2, i32 %3) #0 personality i8* bitcast (i32 (...)* @__gxx_personality_v0 to i8*) !dbg !2511 {
  %5 = alloca i8*, align 8
  %6 = alloca i32, align 4
  %7 = alloca i32, align 4
  %8 = alloca i32, align 4
  %9 = alloca i32, align 4
  %10 = alloca i32, align 4
  %11 = alloca %"class.std::__cxx11::basic_string", align 8
  %12 = alloca %"class.std::__cxx11::basic_string", align 8
  %13 = alloca %"class.std::allocator", align 1
  %14 = alloca i8*
  %15 = alloca i32
  %16 = alloca %"class.std::__cxx11::basic_string", align 8
  %17 = alloca %"class.std::allocator", align 1
  %18 = alloca %"class.std::__cxx11::basic_string", align 8
  %19 = alloca %"class.std::allocator", align 1
  store i8* %0, i8** %5, align 8
  call void @llvm.dbg.declare(metadata i8** %5, metadata !2515, metadata !DIExpression()), !dbg !2516
  store i32 %1, i32* %6, align 4
  call void @llvm.dbg.declare(metadata i32* %6, metadata !2517, metadata !DIExpression()), !dbg !2518
  store i32 %2, i32* %7, align 4
  call void @llvm.dbg.declare(metadata i32* %7, metadata !2519, metadata !DIExpression()), !dbg !2520
  store i32 %3, i32* %8, align 4
  call void @llvm.dbg.declare(metadata i32* %8, metadata !2521, metadata !DIExpression()), !dbg !2522
  call void @llvm.dbg.declare(metadata i32* %9, metadata !2523, metadata !DIExpression()), !dbg !2524
  call void @llvm.dbg.declare(metadata i32* %10, metadata !2525, metadata !DIExpression()), !dbg !2526
  call void @llvm.dbg.declare(metadata %"class.std::__cxx11::basic_string"* %11, metadata !2527, metadata !DIExpression()), !dbg !2530
  %20 = load i32, i32* %8, align 4, !dbg !2531
  call void @_ZNSt7__cxx119to_stringEi(%"class.std::__cxx11::basic_string"* sret %11, i32 %20), !dbg !2532
  call void @llvm.dbg.declare(metadata %"class.std::__cxx11::basic_string"* %12, metadata !2533, metadata !DIExpression()), !dbg !2534
  call void @_ZNSaIcEC1Ev(%"class.std::allocator"* %13) #9, !dbg !2534
  invoke void @_ZNSt7__cxx1112basic_stringIcSt11char_traitsIcESaIcEEC2IS3_EEPKcRKS3_(%"class.std::__cxx11::basic_string"* %12, i8* getelementptr inbounds ([5 x i8], [5 x i8]* @.str, i64 0, i64 0), %"class.std::allocator"* dereferenceable(1) %13)
          to label %21 unwind label %59, !dbg !2534

21:                                               ; preds = %4
  call void @_ZNSaIcED1Ev(%"class.std::allocator"* %13) #9, !dbg !2534
  %22 = invoke dereferenceable(32) %"class.std::__cxx11::basic_string"* @_ZNSt7__cxx1112basic_stringIcSt11char_traitsIcESaIcEEpLERKS4_(%"class.std::__cxx11::basic_string"* %12, %"class.std::__cxx11::basic_string"* dereferenceable(32) %11)
          to label %23 unwind label %63, !dbg !2535

23:                                               ; preds = %21
  %24 = invoke dereferenceable(32) %"class.std::__cxx11::basic_string"* @_ZNSt7__cxx1112basic_stringIcSt11char_traitsIcESaIcEEpLEPKc(%"class.std::__cxx11::basic_string"* %12, i8* getelementptr inbounds ([5 x i8], [5 x i8]* @.str.1, i64 0, i64 0))
          to label %25 unwind label %63, !dbg !2536

25:                                               ; preds = %23
  call void @llvm.dbg.declare(metadata %"class.std::__cxx11::basic_string"* %16, metadata !2537, metadata !DIExpression()), !dbg !2538
  call void @_ZNSaIcEC1Ev(%"class.std::allocator"* %17) #9, !dbg !2538
  invoke void @_ZNSt7__cxx1112basic_stringIcSt11char_traitsIcESaIcEEC2IS3_EEPKcRKS3_(%"class.std::__cxx11::basic_string"* %16, i8* getelementptr inbounds ([7 x i8], [7 x i8]* @.str.2, i64 0, i64 0), %"class.std::allocator"* dereferenceable(1) %17)
          to label %26 unwind label %67, !dbg !2538

26:                                               ; preds = %25
  call void @_ZNSaIcED1Ev(%"class.std::allocator"* %17) #9, !dbg !2538
  %27 = invoke dereferenceable(32) %"class.std::__cxx11::basic_string"* @_ZNSt7__cxx1112basic_stringIcSt11char_traitsIcESaIcEEpLERKS4_(%"class.std::__cxx11::basic_string"* %16, %"class.std::__cxx11::basic_string"* dereferenceable(32) %11)
          to label %28 unwind label %71, !dbg !2539

28:                                               ; preds = %26
  %29 = invoke dereferenceable(32) %"class.std::__cxx11::basic_string"* @_ZNSt7__cxx1112basic_stringIcSt11char_traitsIcESaIcEEpLEPKc(%"class.std::__cxx11::basic_string"* %16, i8* getelementptr inbounds ([5 x i8], [5 x i8]* @.str.1, i64 0, i64 0))
          to label %30 unwind label %71, !dbg !2540

30:                                               ; preds = %28
  call void @llvm.dbg.declare(metadata %"class.std::__cxx11::basic_string"* %18, metadata !2541, metadata !DIExpression()), !dbg !2542
  call void @_ZNSaIcEC1Ev(%"class.std::allocator"* %19) #9, !dbg !2542
  invoke void @_ZNSt7__cxx1112basic_stringIcSt11char_traitsIcESaIcEEC2IS3_EEPKcRKS3_(%"class.std::__cxx11::basic_string"* %18, i8* getelementptr inbounds ([13 x i8], [13 x i8]* @.str.3, i64 0, i64 0), %"class.std::allocator"* dereferenceable(1) %19)
          to label %31 unwind label %75, !dbg !2542

31:                                               ; preds = %30
  call void @_ZNSaIcED1Ev(%"class.std::allocator"* %19) #9, !dbg !2542
  %32 = invoke dereferenceable(32) %"class.std::__cxx11::basic_string"* @_ZNSt7__cxx1112basic_stringIcSt11char_traitsIcESaIcEEpLERKS4_(%"class.std::__cxx11::basic_string"* %18, %"class.std::__cxx11::basic_string"* dereferenceable(32) %11)
          to label %33 unwind label %79, !dbg !2543

33:                                               ; preds = %31
  %34 = bitcast i32* %9 to i8*, !dbg !2544
  %35 = call i8* @_ZNKSt7__cxx1112basic_stringIcSt11char_traitsIcESaIcEE5c_strEv(%"class.std::__cxx11::basic_string"* %12) #9, !dbg !2545
  invoke void @klee_make_symbolic(i8* %34, i64 4, i8* %35)
          to label %36 unwind label %79, !dbg !2546

36:                                               ; preds = %33
  %37 = bitcast i32* %10 to i8*, !dbg !2547
  %38 = call i8* @_ZNKSt7__cxx1112basic_stringIcSt11char_traitsIcESaIcEE5c_strEv(%"class.std::__cxx11::basic_string"* %16) #9, !dbg !2548
  invoke void @klee_make_symbolic(i8* %37, i64 4, i8* %38)
          to label %39 unwind label %79, !dbg !2549

39:                                               ; preds = %36
  %40 = load i32, i32* %6, align 4, !dbg !2550
  store i32 %40, i32* %9, align 4, !dbg !2551
  %41 = load i32, i32* %7, align 4, !dbg !2552
  store i32 %41, i32* %10, align 4, !dbg !2553
  %42 = load i32, i32* %9, align 4, !dbg !2554
  %43 = sitofp i32 %42 to double, !dbg !2554
  %44 = load i32, i32* %10, align 4, !dbg !2555
  %45 = sitofp i32 %44 to double, !dbg !2555
  %46 = fdiv double %43, %45, !dbg !2556
  %47 = load i8*, i8** %5, align 8, !dbg !2557
  %48 = bitcast i8* %47 to double*, !dbg !2558
  store double %46, double* %48, align 8, !dbg !2559
  %49 = bitcast i32* %9 to i8*, !dbg !2560
  %50 = call i8* @_ZNKSt7__cxx1112basic_stringIcSt11char_traitsIcESaIcEE5c_strEv(%"class.std::__cxx11::basic_string"* %12) #9, !dbg !2561
  invoke void @klee_dump_symbolic_details(i8* %49, i8* %50)
          to label %51 unwind label %79, !dbg !2562

51:                                               ; preds = %39
  %52 = bitcast i32* %10 to i8*, !dbg !2563
  %53 = call i8* @_ZNKSt7__cxx1112basic_stringIcSt11char_traitsIcESaIcEE5c_strEv(%"class.std::__cxx11::basic_string"* %16) #9, !dbg !2564
  invoke void @klee_dump_symbolic_details(i8* %52, i8* %53)
          to label %54 unwind label %79, !dbg !2565

54:                                               ; preds = %51
  %55 = load i8*, i8** %5, align 8, !dbg !2566
  %56 = call i8* @_ZNKSt7__cxx1112basic_stringIcSt11char_traitsIcESaIcEE5c_strEv(%"class.std::__cxx11::basic_string"* %18) #9, !dbg !2567
  invoke void @klee_dump_symbolic_details(i8* %55, i8* %56)
          to label %57 unwind label %79, !dbg !2568

57:                                               ; preds = %54
  invoke void @klee_dump_kquery_state()
          to label %58 unwind label %79, !dbg !2569

58:                                               ; preds = %57
  call void @_ZNSt7__cxx1112basic_stringIcSt11char_traitsIcESaIcEED1Ev(%"class.std::__cxx11::basic_string"* %18) #9, !dbg !2570
  call void @_ZNSt7__cxx1112basic_stringIcSt11char_traitsIcESaIcEED1Ev(%"class.std::__cxx11::basic_string"* %16) #9, !dbg !2570
  call void @_ZNSt7__cxx1112basic_stringIcSt11char_traitsIcESaIcEED1Ev(%"class.std::__cxx11::basic_string"* %12) #9, !dbg !2570
  call void @_ZNSt7__cxx1112basic_stringIcSt11char_traitsIcESaIcEED1Ev(%"class.std::__cxx11::basic_string"* %11) #9, !dbg !2570
  ret void, !dbg !2570

59:                                               ; preds = %4
  %60 = landingpad { i8*, i32 }
          cleanup, !dbg !2570
  %61 = extractvalue { i8*, i32 } %60, 0, !dbg !2570
  store i8* %61, i8** %14, align 8, !dbg !2570
  %62 = extractvalue { i8*, i32 } %60, 1, !dbg !2570
  store i32 %62, i32* %15, align 4, !dbg !2570
  call void @_ZNSaIcED1Ev(%"class.std::allocator"* %13) #9, !dbg !2534
  br label %85, !dbg !2534

63:                                               ; preds = %23, %21
  %64 = landingpad { i8*, i32 }
          cleanup, !dbg !2570
  %65 = extractvalue { i8*, i32 } %64, 0, !dbg !2570
  store i8* %65, i8** %14, align 8, !dbg !2570
  %66 = extractvalue { i8*, i32 } %64, 1, !dbg !2570
  store i32 %66, i32* %15, align 4, !dbg !2570
  br label %84, !dbg !2570

67:                                               ; preds = %25
  %68 = landingpad { i8*, i32 }
          cleanup, !dbg !2570
  %69 = extractvalue { i8*, i32 } %68, 0, !dbg !2570
  store i8* %69, i8** %14, align 8, !dbg !2570
  %70 = extractvalue { i8*, i32 } %68, 1, !dbg !2570
  store i32 %70, i32* %15, align 4, !dbg !2570
  call void @_ZNSaIcED1Ev(%"class.std::allocator"* %17) #9, !dbg !2538
  br label %84, !dbg !2538

71:                                               ; preds = %28, %26
  %72 = landingpad { i8*, i32 }
          cleanup, !dbg !2570
  %73 = extractvalue { i8*, i32 } %72, 0, !dbg !2570
  store i8* %73, i8** %14, align 8, !dbg !2570
  %74 = extractvalue { i8*, i32 } %72, 1, !dbg !2570
  store i32 %74, i32* %15, align 4, !dbg !2570
  br label %83, !dbg !2570

75:                                               ; preds = %30
  %76 = landingpad { i8*, i32 }
          cleanup, !dbg !2570
  %77 = extractvalue { i8*, i32 } %76, 0, !dbg !2570
  store i8* %77, i8** %14, align 8, !dbg !2570
  %78 = extractvalue { i8*, i32 } %76, 1, !dbg !2570
  store i32 %78, i32* %15, align 4, !dbg !2570
  call void @_ZNSaIcED1Ev(%"class.std::allocator"* %19) #9, !dbg !2542
  br label %83, !dbg !2542

79:                                               ; preds = %57, %54, %51, %39, %36, %33, %31
  %80 = landingpad { i8*, i32 }
          cleanup, !dbg !2570
  %81 = extractvalue { i8*, i32 } %80, 0, !dbg !2570
  store i8* %81, i8** %14, align 8, !dbg !2570
  %82 = extractvalue { i8*, i32 } %80, 1, !dbg !2570
  store i32 %82, i32* %15, align 4, !dbg !2570
  call void @_ZNSt7__cxx1112basic_stringIcSt11char_traitsIcESaIcEED1Ev(%"class.std::__cxx11::basic_string"* %18) #9, !dbg !2570
  br label %83, !dbg !2570

83:                                               ; preds = %79, %75, %71
  call void @_ZNSt7__cxx1112basic_stringIcSt11char_traitsIcESaIcEED1Ev(%"class.std::__cxx11::basic_string"* %16) #9, !dbg !2570
  br label %84, !dbg !2570

84:                                               ; preds = %83, %67, %63
  call void @_ZNSt7__cxx1112basic_stringIcSt11char_traitsIcESaIcEED1Ev(%"class.std::__cxx11::basic_string"* %12) #9, !dbg !2570
  br label %85, !dbg !2570

85:                                               ; preds = %84, %59
  call void @_ZNSt7__cxx1112basic_stringIcSt11char_traitsIcESaIcEED1Ev(%"class.std::__cxx11::basic_string"* %11) #9, !dbg !2570
  br label %86, !dbg !2570

86:                                               ; preds = %85
  %87 = load i8*, i8** %14, align 8, !dbg !2570
  %88 = load i32, i32* %15, align 4, !dbg !2570
  %89 = insertvalue { i8*, i32 } undef, i8* %87, 0, !dbg !2570
  %90 = insertvalue { i8*, i32 } %89, i32 %88, 1, !dbg !2570
  resume { i8*, i32 } %90, !dbg !2570
}

; Function Attrs: nounwind readnone speculatable willreturn
declare void @llvm.dbg.declare(metadata, metadata, metadata) #1

; Function Attrs: noinline uwtable
define linkonce_odr void @_ZNSt7__cxx119to_stringEi(%"class.std::__cxx11::basic_string"* noalias sret %0, i32 %1) #0 comdat personality i8* bitcast (i32 (...)* @__gxx_personality_v0 to i8*) !dbg !2571 {
  %3 = alloca i8*, align 8
  %4 = alloca i32, align 4
  %5 = alloca i8, align 1
  %6 = alloca i32, align 4
  %7 = alloca i32, align 4
  %8 = alloca i1, align 1
  %9 = alloca %"class.std::allocator", align 1
  %10 = alloca i8*
  %11 = alloca i32
  %12 = bitcast %"class.std::__cxx11::basic_string"* %0 to i8*
  store i8* %12, i8** %3, align 8
  store i32 %1, i32* %4, align 4
  call void @llvm.dbg.declare(metadata i32* %4, metadata !2574, metadata !DIExpression()), !dbg !2575
  call void @llvm.dbg.declare(metadata i8* %5, metadata !2576, metadata !DIExpression()), !dbg !2577
  %13 = load i32, i32* %4, align 4, !dbg !2578
  %14 = icmp slt i32 %13, 0, !dbg !2579
  %15 = zext i1 %14 to i8, !dbg !2577
  store i8 %15, i8* %5, align 1, !dbg !2577
  call void @llvm.dbg.declare(metadata i32* %6, metadata !2580, metadata !DIExpression()), !dbg !2582
  %16 = load i8, i8* %5, align 1, !dbg !2583
  %17 = trunc i8 %16 to i1, !dbg !2583
  br i1 %17, label %18, label %22, !dbg !2583

18:                                               ; preds = %2
  %19 = load i32, i32* %4, align 4, !dbg !2584
  %20 = xor i32 %19, -1, !dbg !2585
  %21 = add i32 %20, 1, !dbg !2586
  br label %24, !dbg !2583

22:                                               ; preds = %2
  %23 = load i32, i32* %4, align 4, !dbg !2587
  br label %24, !dbg !2583

24:                                               ; preds = %22, %18
  %25 = phi i32 [ %21, %18 ], [ %23, %22 ], !dbg !2583
  store i32 %25, i32* %6, align 4, !dbg !2582
  call void @llvm.dbg.declare(metadata i32* %7, metadata !2588, metadata !DIExpression()), !dbg !2589
  %26 = load i32, i32* %6, align 4, !dbg !2590
  %27 = call i32 @_ZNSt8__detail14__to_chars_lenIjEEjT_i(i32 %26, i32 10) #9, !dbg !2591
  store i32 %27, i32* %7, align 4, !dbg !2589
  store i1 false, i1* %8, align 1, !dbg !2592
  call void @llvm.dbg.declare(metadata i8** %3, metadata !2593, metadata !DIExpression(DW_OP_deref)), !dbg !2594
  %28 = load i8, i8* %5, align 1, !dbg !2595
  %29 = trunc i8 %28 to i1, !dbg !2595
  %30 = zext i1 %29 to i32, !dbg !2595
  %31 = load i32, i32* %7, align 4, !dbg !2596
  %32 = add i32 %30, %31, !dbg !2597
  %33 = zext i32 %32 to i64, !dbg !2595
  call void @_ZNSaIcEC1Ev(%"class.std::allocator"* %9) #9, !dbg !2594
  invoke void @_ZNSt7__cxx1112basic_stringIcSt11char_traitsIcESaIcEEC2IS3_EEmcRKS3_(%"class.std::__cxx11::basic_string"* %0, i64 %33, i8 signext 45, %"class.std::allocator"* dereferenceable(1) %9)
          to label %34 unwind label %43, !dbg !2594

34:                                               ; preds = %24
  call void @_ZNSaIcED1Ev(%"class.std::allocator"* %9) #9, !dbg !2594
  %35 = load i8, i8* %5, align 1, !dbg !2598
  %36 = trunc i8 %35 to i1, !dbg !2598
  %37 = zext i1 %36 to i64, !dbg !2598
  %38 = invoke dereferenceable(1) i8* @_ZNSt7__cxx1112basic_stringIcSt11char_traitsIcESaIcEEixEm(%"class.std::__cxx11::basic_string"* %0, i64 %37)
          to label %39 unwind label %47, !dbg !2599

39:                                               ; preds = %34
  %40 = load i32, i32* %7, align 4, !dbg !2600
  %41 = load i32, i32* %6, align 4, !dbg !2601
  call void @_ZNSt8__detail18__to_chars_10_implIjEEvPcjT_(i8* %38, i32 %40, i32 %41) #9, !dbg !2602
  store i1 true, i1* %8, align 1, !dbg !2603
  %42 = load i1, i1* %8, align 1, !dbg !2604
  br i1 %42, label %52, label %51, !dbg !2604

43:                                               ; preds = %24
  %44 = landingpad { i8*, i32 }
          cleanup, !dbg !2604
  %45 = extractvalue { i8*, i32 } %44, 0, !dbg !2604
  store i8* %45, i8** %10, align 8, !dbg !2604
  %46 = extractvalue { i8*, i32 } %44, 1, !dbg !2604
  store i32 %46, i32* %11, align 4, !dbg !2604
  call void @_ZNSaIcED1Ev(%"class.std::allocator"* %9) #9, !dbg !2594
  br label %53, !dbg !2594

47:                                               ; preds = %34
  %48 = landingpad { i8*, i32 }
          cleanup, !dbg !2604
  %49 = extractvalue { i8*, i32 } %48, 0, !dbg !2604
  store i8* %49, i8** %10, align 8, !dbg !2604
  %50 = extractvalue { i8*, i32 } %48, 1, !dbg !2604
  store i32 %50, i32* %11, align 4, !dbg !2604
  call void @_ZNSt7__cxx1112basic_stringIcSt11char_traitsIcESaIcEED1Ev(%"class.std::__cxx11::basic_string"* %0) #9, !dbg !2604
  br label %53, !dbg !2604

51:                                               ; preds = %39
  call void @_ZNSt7__cxx1112basic_stringIcSt11char_traitsIcESaIcEED1Ev(%"class.std::__cxx11::basic_string"* %0) #9, !dbg !2604
  br label %52, !dbg !2604

52:                                               ; preds = %51, %39
  ret void, !dbg !2604

53:                                               ; preds = %47, %43
  %54 = load i8*, i8** %10, align 8, !dbg !2594
  %55 = load i32, i32* %11, align 4, !dbg !2594
  %56 = insertvalue { i8*, i32 } undef, i8* %54, 0, !dbg !2594
  %57 = insertvalue { i8*, i32 } %56, i32 %55, 1, !dbg !2594
  resume { i8*, i32 } %57, !dbg !2594
}

; Function Attrs: nounwind
declare void @_ZNSaIcEC1Ev(%"class.std::allocator"*) unnamed_addr #2

; Function Attrs: noinline uwtable
define linkonce_odr void @_ZNSt7__cxx1112basic_stringIcSt11char_traitsIcESaIcEEC2IS3_EEPKcRKS3_(%"class.std::__cxx11::basic_string"* %0, i8* %1, %"class.std::allocator"* dereferenceable(1) %2) unnamed_addr #0 comdat align 2 personality i8* bitcast (i32 (...)* @__gxx_personality_v0 to i8*) !dbg !2605 {
  %4 = alloca %"class.std::__cxx11::basic_string"*, align 8
  %5 = alloca i8*, align 8
  %6 = alloca %"class.std::allocator"*, align 8
  %7 = alloca i8*
  %8 = alloca i32
  store %"class.std::__cxx11::basic_string"* %0, %"class.std::__cxx11::basic_string"** %4, align 8
  call void @llvm.dbg.declare(metadata %"class.std::__cxx11::basic_string"** %4, metadata !2612, metadata !DIExpression()), !dbg !2614
  store i8* %1, i8** %5, align 8
  call void @llvm.dbg.declare(metadata i8** %5, metadata !2615, metadata !DIExpression()), !dbg !2616
  store %"class.std::allocator"* %2, %"class.std::allocator"** %6, align 8
  call void @llvm.dbg.declare(metadata %"class.std::allocator"** %6, metadata !2617, metadata !DIExpression()), !dbg !2618
  %9 = load %"class.std::__cxx11::basic_string"*, %"class.std::__cxx11::basic_string"** %4, align 8
  %10 = getelementptr inbounds %"class.std::__cxx11::basic_string", %"class.std::__cxx11::basic_string"* %9, i32 0, i32 0, !dbg !2619
  %11 = call i8* @_ZNSt7__cxx1112basic_stringIcSt11char_traitsIcESaIcEE13_M_local_dataEv(%"class.std::__cxx11::basic_string"* %9), !dbg !2620
  %12 = load %"class.std::allocator"*, %"class.std::allocator"** %6, align 8, !dbg !2621
  call void @_ZNSt7__cxx1112basic_stringIcSt11char_traitsIcESaIcEE12_Alloc_hiderC1EPcRKS3_(%"struct.std::__cxx11::basic_string<char, std::char_traits<char>, std::allocator<char> >::_Alloc_hider"* %10, i8* %11, %"class.std::allocator"* dereferenceable(1) %12), !dbg !2619
  %13 = load i8*, i8** %5, align 8, !dbg !2622
  %14 = load i8*, i8** %5, align 8, !dbg !2624
  %15 = icmp ne i8* %14, null, !dbg !2624
  br i1 %15, label %16, label %22, !dbg !2624

16:                                               ; preds = %3
  %17 = load i8*, i8** %5, align 8, !dbg !2625
  %18 = load i8*, i8** %5, align 8, !dbg !2626
  %19 = invoke i64 @_ZNSt11char_traitsIcE6lengthEPKc(i8* %18)
          to label %20 unwind label %28, !dbg !2627

20:                                               ; preds = %16
  %21 = getelementptr inbounds i8, i8* %17, i64 %19, !dbg !2628
  br label %25, !dbg !2624

22:                                               ; preds = %3
  %23 = load i8*, i8** %5, align 8, !dbg !2629
  %24 = getelementptr inbounds i8, i8* %23, i64 -1, !dbg !2630
  br label %25, !dbg !2624

25:                                               ; preds = %22, %20
  %26 = phi i8* [ %21, %20 ], [ %24, %22 ], !dbg !2624
  invoke void @_ZNSt7__cxx1112basic_stringIcSt11char_traitsIcESaIcEE12_M_constructIPKcEEvT_S8_(%"class.std::__cxx11::basic_string"* %9, i8* %13, i8* %26)
          to label %27 unwind label %28, !dbg !2631

27:                                               ; preds = %25
  ret void, !dbg !2632

28:                                               ; preds = %25, %16
  %29 = landingpad { i8*, i32 }
          cleanup, !dbg !2633
  %30 = extractvalue { i8*, i32 } %29, 0, !dbg !2633
  store i8* %30, i8** %7, align 8, !dbg !2633
  %31 = extractvalue { i8*, i32 } %29, 1, !dbg !2633
  store i32 %31, i32* %8, align 4, !dbg !2633
  call void @_ZNSt7__cxx1112basic_stringIcSt11char_traitsIcESaIcEE12_Alloc_hiderD2Ev(%"struct.std::__cxx11::basic_string<char, std::char_traits<char>, std::allocator<char> >::_Alloc_hider"* %10) #9, !dbg !2633
  br label %32, !dbg !2633

32:                                               ; preds = %28
  %33 = load i8*, i8** %7, align 8, !dbg !2633
  %34 = load i32, i32* %8, align 4, !dbg !2633
  %35 = insertvalue { i8*, i32 } undef, i8* %33, 0, !dbg !2633
  %36 = insertvalue { i8*, i32 } %35, i32 %34, 1, !dbg !2633
  resume { i8*, i32 } %36, !dbg !2633
}

declare i32 @__gxx_personality_v0(...)

; Function Attrs: nounwind
declare void @_ZNSaIcED1Ev(%"class.std::allocator"*) unnamed_addr #2

declare dereferenceable(32) %"class.std::__cxx11::basic_string"* @_ZNSt7__cxx1112basic_stringIcSt11char_traitsIcESaIcEEpLERKS4_(%"class.std::__cxx11::basic_string"*, %"class.std::__cxx11::basic_string"* dereferenceable(32)) #3

declare dereferenceable(32) %"class.std::__cxx11::basic_string"* @_ZNSt7__cxx1112basic_stringIcSt11char_traitsIcESaIcEEpLEPKc(%"class.std::__cxx11::basic_string"*, i8*) #3

declare void @klee_make_symbolic(i8*, i64, i8*) #3

; Function Attrs: nounwind
declare i8* @_ZNKSt7__cxx1112basic_stringIcSt11char_traitsIcESaIcEE5c_strEv(%"class.std::__cxx11::basic_string"*) #2

declare void @klee_dump_symbolic_details(i8*, i8*) #3

declare void @klee_dump_kquery_state() #3

; Function Attrs: nounwind
declare void @_ZNSt7__cxx1112basic_stringIcSt11char_traitsIcESaIcEED1Ev(%"class.std::__cxx11::basic_string"*) unnamed_addr #2

; Function Attrs: noinline uwtable
define i32 @_Z4hashP9prob_hashij(%struct.prob_hash* %0, i32 %1, i32 %2) #0 !dbg !2634 {
  %4 = alloca i32, align 4
  %5 = alloca %struct.prob_hash*, align 8
  %6 = alloca i32, align 4
  %7 = alloca i32, align 4
  %8 = alloca %"struct.std::__detail::_Node_iterator", align 8
  %9 = alloca %"struct.std::__detail::_Node_iterator", align 8
  %10 = alloca i32, align 4
  %11 = alloca i32, align 4
  %12 = alloca i32, align 4
  store %struct.prob_hash* %0, %struct.prob_hash** %5, align 8
  call void @llvm.dbg.declare(metadata %struct.prob_hash** %5, metadata !2853, metadata !DIExpression()), !dbg !2854
  store i32 %1, i32* %6, align 4
  call void @llvm.dbg.declare(metadata i32* %6, metadata !2855, metadata !DIExpression()), !dbg !2856
  store i32 %2, i32* %7, align 4
  call void @llvm.dbg.declare(metadata i32* %7, metadata !2857, metadata !DIExpression()), !dbg !2858
  call void @llvm.dbg.declare(metadata %"struct.std::__detail::_Node_iterator"* %8, metadata !2859, metadata !DIExpression()), !dbg !2860
  %13 = load %struct.prob_hash*, %struct.prob_hash** %5, align 8, !dbg !2861
  %14 = getelementptr inbounds %struct.prob_hash, %struct.prob_hash* %13, i32 0, i32 0, !dbg !2862
  %15 = call %"struct.std::__detail::_Hash_node"* @_ZNSt13unordered_mapIijSt4hashIiESt8equal_toIiESaISt4pairIKijEEE4findERS5_(%"class.std::unordered_map"* %14, i32* dereferenceable(4) %6), !dbg !2863
  %16 = getelementptr inbounds %"struct.std::__detail::_Node_iterator", %"struct.std::__detail::_Node_iterator"* %8, i32 0, i32 0, !dbg !2863
  %17 = getelementptr inbounds %"struct.std::__detail::_Node_iterator_base", %"struct.std::__detail::_Node_iterator_base"* %16, i32 0, i32 0, !dbg !2863
  store %"struct.std::__detail::_Hash_node"* %15, %"struct.std::__detail::_Hash_node"** %17, align 8, !dbg !2863
  %18 = bitcast %"struct.std::__detail::_Node_iterator"* %8 to %"struct.std::__detail::_Node_iterator_base"*, !dbg !2864
  %19 = load %struct.prob_hash*, %struct.prob_hash** %5, align 8, !dbg !2866
  %20 = getelementptr inbounds %struct.prob_hash, %struct.prob_hash* %19, i32 0, i32 0, !dbg !2867
  %21 = call %"struct.std::__detail::_Hash_node"* @_ZNSt13unordered_mapIijSt4hashIiESt8equal_toIiESaISt4pairIKijEEE3endEv(%"class.std::unordered_map"* %20) #9, !dbg !2868
  %22 = getelementptr inbounds %"struct.std::__detail::_Node_iterator", %"struct.std::__detail::_Node_iterator"* %9, i32 0, i32 0, !dbg !2868
  %23 = getelementptr inbounds %"struct.std::__detail::_Node_iterator_base", %"struct.std::__detail::_Node_iterator_base"* %22, i32 0, i32 0, !dbg !2868
  store %"struct.std::__detail::_Hash_node"* %21, %"struct.std::__detail::_Hash_node"** %23, align 8, !dbg !2868
  %24 = bitcast %"struct.std::__detail::_Node_iterator"* %9 to %"struct.std::__detail::_Node_iterator_base"*, !dbg !2866
  %25 = call zeroext i1 @_ZNSt8__detaileqISt4pairIKijELb0EEEbRKNS_19_Node_iterator_baseIT_XT0_EEES8_(%"struct.std::__detail::_Node_iterator_base"* dereferenceable(8) %18, %"struct.std::__detail::_Node_iterator_base"* dereferenceable(8) %24) #9, !dbg !2869
  br i1 %25, label %26, label %36, !dbg !2870

26:                                               ; preds = %3
  call void @llvm.dbg.declare(metadata i32* %10, metadata !2871, metadata !DIExpression()), !dbg !2873
  %27 = bitcast i32* %10 to i8*, !dbg !2874
  store i32 0, i32* %11, align 4, !dbg !2875
  %28 = load i32, i32* %7, align 4, !dbg !2876
  store i32 %28, i32* %12, align 4, !dbg !2877
  call void @_Z17make_pse_symbolicIjEvPvmPKcOT_S4_(i8* %27, i64 4, i8* getelementptr inbounds ([6 x i8], [6 x i8]* @.str.4, i64 0, i64 0), i32* dereferenceable(4) %11, i32* dereferenceable(4) %12), !dbg !2878
  %29 = load i32, i32* %7, align 4, !dbg !2879
  %30 = call i32 (i8*, ...) @printf(i8* getelementptr inbounds ([10 x i8], [10 x i8]* @.str.5, i64 0, i64 0), i32 %29), !dbg !2880
  %31 = load i32, i32* %10, align 4, !dbg !2881
  %32 = load %struct.prob_hash*, %struct.prob_hash** %5, align 8, !dbg !2882
  %33 = getelementptr inbounds %struct.prob_hash, %struct.prob_hash* %32, i32 0, i32 0, !dbg !2883
  %34 = call dereferenceable(4) i32* @_ZNSt13unordered_mapIijSt4hashIiESt8equal_toIiESaISt4pairIKijEEEixERS5_(%"class.std::unordered_map"* %33, i32* dereferenceable(4) %6), !dbg !2882
  store i32 %31, i32* %34, align 4, !dbg !2884
  %35 = load i32, i32* %10, align 4, !dbg !2885
  store i32 %35, i32* %4, align 4, !dbg !2886
  br label %40, !dbg !2886

36:                                               ; preds = %3
  %37 = call %"struct.std::pair"* @_ZNKSt8__detail14_Node_iteratorISt4pairIKijELb0ELb0EEptEv(%"struct.std::__detail::_Node_iterator"* %8) #9, !dbg !2887
  %38 = getelementptr inbounds %"struct.std::pair", %"struct.std::pair"* %37, i32 0, i32 1, !dbg !2889
  %39 = load i32, i32* %38, align 4, !dbg !2889
  store i32 %39, i32* %4, align 4, !dbg !2890
  br label %40, !dbg !2890

40:                                               ; preds = %36, %26
  %41 = load i32, i32* %4, align 4, !dbg !2891
  ret i32 %41, !dbg !2891
}

; Function Attrs: noinline uwtable
define linkonce_odr %"struct.std::__detail::_Hash_node"* @_ZNSt13unordered_mapIijSt4hashIiESt8equal_toIiESaISt4pairIKijEEE4findERS5_(%"class.std::unordered_map"* %0, i32* dereferenceable(4) %1) #0 comdat align 2 !dbg !2892 {
  %3 = alloca %"struct.std::__detail::_Node_iterator", align 8
  %4 = alloca %"class.std::unordered_map"*, align 8
  %5 = alloca i32*, align 8
  store %"class.std::unordered_map"* %0, %"class.std::unordered_map"** %4, align 8
  call void @llvm.dbg.declare(metadata %"class.std::unordered_map"** %4, metadata !2893, metadata !DIExpression()), !dbg !2895
  store i32* %1, i32** %5, align 8
  call void @llvm.dbg.declare(metadata i32** %5, metadata !2896, metadata !DIExpression()), !dbg !2897
  %6 = load %"class.std::unordered_map"*, %"class.std::unordered_map"** %4, align 8
  %7 = getelementptr inbounds %"class.std::unordered_map", %"class.std::unordered_map"* %6, i32 0, i32 0, !dbg !2898
  %8 = load i32*, i32** %5, align 8, !dbg !2899
  %9 = call %"struct.std::__detail::_Hash_node"* @_ZNSt10_HashtableIiSt4pairIKijESaIS2_ENSt8__detail10_Select1stESt8equal_toIiESt4hashIiENS4_18_Mod_range_hashingENS4_20_Default_ranged_hashENS4_20_Prime_rehash_policyENS4_17_Hashtable_traitsILb0ELb0ELb1EEEE4findERS1_(%"class.std::_Hashtable"* %7, i32* dereferenceable(4) %8), !dbg !2900
  %10 = getelementptr inbounds %"struct.std::__detail::_Node_iterator", %"struct.std::__detail::_Node_iterator"* %3, i32 0, i32 0, !dbg !2900
  %11 = getelementptr inbounds %"struct.std::__detail::_Node_iterator_base", %"struct.std::__detail::_Node_iterator_base"* %10, i32 0, i32 0, !dbg !2900
  store %"struct.std::__detail::_Hash_node"* %9, %"struct.std::__detail::_Hash_node"** %11, align 8, !dbg !2900
  %12 = getelementptr inbounds %"struct.std::__detail::_Node_iterator", %"struct.std::__detail::_Node_iterator"* %3, i32 0, i32 0, !dbg !2901
  %13 = getelementptr inbounds %"struct.std::__detail::_Node_iterator_base", %"struct.std::__detail::_Node_iterator_base"* %12, i32 0, i32 0, !dbg !2901
  %14 = load %"struct.std::__detail::_Hash_node"*, %"struct.std::__detail::_Hash_node"** %13, align 8, !dbg !2901
  ret %"struct.std::__detail::_Hash_node"* %14, !dbg !2901
}

; Function Attrs: noinline nounwind uwtable
define linkonce_odr zeroext i1 @_ZNSt8__detaileqISt4pairIKijELb0EEEbRKNS_19_Node_iterator_baseIT_XT0_EEES8_(%"struct.std::__detail::_Node_iterator_base"* dereferenceable(8) %0, %"struct.std::__detail::_Node_iterator_base"* dereferenceable(8) %1) #4 comdat !dbg !2902 {
  %3 = alloca %"struct.std::__detail::_Node_iterator_base"*, align 8
  %4 = alloca %"struct.std::__detail::_Node_iterator_base"*, align 8
  store %"struct.std::__detail::_Node_iterator_base"* %0, %"struct.std::__detail::_Node_iterator_base"** %3, align 8
  call void @llvm.dbg.declare(metadata %"struct.std::__detail::_Node_iterator_base"** %3, metadata !2907, metadata !DIExpression()), !dbg !2908
  store %"struct.std::__detail::_Node_iterator_base"* %1, %"struct.std::__detail::_Node_iterator_base"** %4, align 8
  call void @llvm.dbg.declare(metadata %"struct.std::__detail::_Node_iterator_base"** %4, metadata !2909, metadata !DIExpression()), !dbg !2910
  %5 = load %"struct.std::__detail::_Node_iterator_base"*, %"struct.std::__detail::_Node_iterator_base"** %3, align 8, !dbg !2911
  %6 = getelementptr inbounds %"struct.std::__detail::_Node_iterator_base", %"struct.std::__detail::_Node_iterator_base"* %5, i32 0, i32 0, !dbg !2912
  %7 = load %"struct.std::__detail::_Hash_node"*, %"struct.std::__detail::_Hash_node"** %6, align 8, !dbg !2912
  %8 = load %"struct.std::__detail::_Node_iterator_base"*, %"struct.std::__detail::_Node_iterator_base"** %4, align 8, !dbg !2913
  %9 = getelementptr inbounds %"struct.std::__detail::_Node_iterator_base", %"struct.std::__detail::_Node_iterator_base"* %8, i32 0, i32 0, !dbg !2914
  %10 = load %"struct.std::__detail::_Hash_node"*, %"struct.std::__detail::_Hash_node"** %9, align 8, !dbg !2914
  %11 = icmp eq %"struct.std::__detail::_Hash_node"* %7, %10, !dbg !2915
  ret i1 %11, !dbg !2916
}

; Function Attrs: noinline nounwind uwtable
define linkonce_odr %"struct.std::__detail::_Hash_node"* @_ZNSt13unordered_mapIijSt4hashIiESt8equal_toIiESaISt4pairIKijEEE3endEv(%"class.std::unordered_map"* %0) #4 comdat align 2 !dbg !2917 {
  %2 = alloca %"struct.std::__detail::_Node_iterator", align 8
  %3 = alloca %"class.std::unordered_map"*, align 8
  store %"class.std::unordered_map"* %0, %"class.std::unordered_map"** %3, align 8
  call void @llvm.dbg.declare(metadata %"class.std::unordered_map"** %3, metadata !2918, metadata !DIExpression()), !dbg !2919
  %4 = load %"class.std::unordered_map"*, %"class.std::unordered_map"** %3, align 8
  %5 = getelementptr inbounds %"class.std::unordered_map", %"class.std::unordered_map"* %4, i32 0, i32 0, !dbg !2920
  %6 = call %"struct.std::__detail::_Hash_node"* @_ZNSt10_HashtableIiSt4pairIKijESaIS2_ENSt8__detail10_Select1stESt8equal_toIiESt4hashIiENS4_18_Mod_range_hashingENS4_20_Default_ranged_hashENS4_20_Prime_rehash_policyENS4_17_Hashtable_traitsILb0ELb0ELb1EEEE3endEv(%"class.std::_Hashtable"* %5) #9, !dbg !2921
  %7 = getelementptr inbounds %"struct.std::__detail::_Node_iterator", %"struct.std::__detail::_Node_iterator"* %2, i32 0, i32 0, !dbg !2921
  %8 = getelementptr inbounds %"struct.std::__detail::_Node_iterator_base", %"struct.std::__detail::_Node_iterator_base"* %7, i32 0, i32 0, !dbg !2921
  store %"struct.std::__detail::_Hash_node"* %6, %"struct.std::__detail::_Hash_node"** %8, align 8, !dbg !2921
  %9 = getelementptr inbounds %"struct.std::__detail::_Node_iterator", %"struct.std::__detail::_Node_iterator"* %2, i32 0, i32 0, !dbg !2922
  %10 = getelementptr inbounds %"struct.std::__detail::_Node_iterator_base", %"struct.std::__detail::_Node_iterator_base"* %9, i32 0, i32 0, !dbg !2922
  %11 = load %"struct.std::__detail::_Hash_node"*, %"struct.std::__detail::_Hash_node"** %10, align 8, !dbg !2922
  ret %"struct.std::__detail::_Hash_node"* %11, !dbg !2922
}

; Function Attrs: noinline uwtable
define linkonce_odr void @_Z17make_pse_symbolicIjEvPvmPKcOT_S4_(i8* %0, i64 %1, i8* %2, i32* dereferenceable(4) %3, i32* dereferenceable(4) %4) #0 comdat !dbg !2923 {
  %6 = alloca i8*, align 8
  %7 = alloca i64, align 8
  %8 = alloca i8*, align 8
  %9 = alloca i32*, align 8
  %10 = alloca i32*, align 8
  store i8* %0, i8** %6, align 8
  call void @llvm.dbg.declare(metadata i8** %6, metadata !2929, metadata !DIExpression()), !dbg !2930
  store i64 %1, i64* %7, align 8
  call void @llvm.dbg.declare(metadata i64* %7, metadata !2931, metadata !DIExpression()), !dbg !2932
  store i8* %2, i8** %8, align 8
  call void @llvm.dbg.declare(metadata i8** %8, metadata !2933, metadata !DIExpression()), !dbg !2934
  store i32* %3, i32** %9, align 8
  call void @llvm.dbg.declare(metadata i32** %9, metadata !2935, metadata !DIExpression()), !dbg !2936
  store i32* %4, i32** %10, align 8
  call void @llvm.dbg.declare(metadata i32** %10, metadata !2937, metadata !DIExpression()), !dbg !2938
  %11 = load i8*, i8** %6, align 8, !dbg !2939
  %12 = load i64, i64* %7, align 8, !dbg !2940
  %13 = mul i64 8, %12, !dbg !2941
  %14 = load i8*, i8** %8, align 8, !dbg !2942
  %15 = load i32*, i32** %9, align 8, !dbg !2943
  %16 = load i32*, i32** %10, align 8, !dbg !2944
  %17 = call dereferenceable(4) i32* @_ZSt3minIjERKT_S2_S2_(i32* dereferenceable(4) %15, i32* dereferenceable(4) %16), !dbg !2945
  %18 = load i32, i32* %17, align 4, !dbg !2945
  %19 = zext i32 %18 to i64, !dbg !2945
  %20 = load i32*, i32** %9, align 8, !dbg !2946
  %21 = load i32*, i32** %10, align 8, !dbg !2947
  %22 = call dereferenceable(4) i32* @_ZSt3maxIjERKT_S2_S2_(i32* dereferenceable(4) %20, i32* dereferenceable(4) %21), !dbg !2948
  %23 = load i32, i32* %22, align 4, !dbg !2948
  %24 = zext i32 %23 to i64, !dbg !2948
  call void @mark_pse_symbolic(i8* %11, i64 %13, i8* %14, i64 %19, i64 %24), !dbg !2949
  %25 = load i8*, i8** %6, align 8, !dbg !2950
  %26 = load i64, i64* %7, align 8, !dbg !2951
  %27 = load i8*, i8** %8, align 8, !dbg !2952
  call void @klee_make_symbolic(i8* %25, i64 %26, i8* %27), !dbg !2953
  %28 = load i8*, i8** %6, align 8, !dbg !2954
  %29 = bitcast i8* %28 to i32*, !dbg !2955
  %30 = load i32, i32* %29, align 4, !dbg !2956
  %31 = load i32*, i32** %9, align 8, !dbg !2957
  %32 = load i32*, i32** %10, align 8, !dbg !2958
  %33 = call dereferenceable(4) i32* @_ZSt3minIjERKT_S2_S2_(i32* dereferenceable(4) %31, i32* dereferenceable(4) %32), !dbg !2959
  %34 = load i32, i32* %33, align 4, !dbg !2959
  %35 = icmp uge i32 %30, %34, !dbg !2960
  %36 = zext i1 %35 to i64, !dbg !2956
  call void @klee_assume(i64 %36), !dbg !2961
  %37 = load i8*, i8** %6, align 8, !dbg !2962
  %38 = bitcast i8* %37 to i32*, !dbg !2963
  %39 = load i32, i32* %38, align 4, !dbg !2964
  %40 = load i32*, i32** %9, align 8, !dbg !2965
  %41 = load i32*, i32** %10, align 8, !dbg !2966
  %42 = call dereferenceable(4) i32* @_ZSt3maxIjERKT_S2_S2_(i32* dereferenceable(4) %40, i32* dereferenceable(4) %41), !dbg !2967
  %43 = load i32, i32* %42, align 4, !dbg !2967
  %44 = icmp ule i32 %39, %43, !dbg !2968
  %45 = zext i1 %44 to i64, !dbg !2964
  call void @klee_assume(i64 %45), !dbg !2969
  ret void, !dbg !2970
}

declare i32 @printf(i8*, ...) #3

; Function Attrs: noinline uwtable
define linkonce_odr dereferenceable(4) i32* @_ZNSt13unordered_mapIijSt4hashIiESt8equal_toIiESaISt4pairIKijEEEixERS5_(%"class.std::unordered_map"* %0, i32* dereferenceable(4) %1) #0 comdat align 2 !dbg !2971 {
  %3 = alloca %"class.std::unordered_map"*, align 8
  %4 = alloca i32*, align 8
  store %"class.std::unordered_map"* %0, %"class.std::unordered_map"** %3, align 8
  call void @llvm.dbg.declare(metadata %"class.std::unordered_map"** %3, metadata !2972, metadata !DIExpression()), !dbg !2973
  store i32* %1, i32** %4, align 8
  call void @llvm.dbg.declare(metadata i32** %4, metadata !2974, metadata !DIExpression()), !dbg !2975
  %5 = load %"class.std::unordered_map"*, %"class.std::unordered_map"** %3, align 8
  %6 = getelementptr inbounds %"class.std::unordered_map", %"class.std::unordered_map"* %5, i32 0, i32 0, !dbg !2976
  %7 = bitcast %"class.std::_Hashtable"* %6 to %"struct.std::__detail::_Map_base"*, !dbg !2976
  %8 = load i32*, i32** %4, align 8, !dbg !2977
  %9 = call dereferenceable(4) i32* @_ZNSt8__detail9_Map_baseIiSt4pairIKijESaIS3_ENS_10_Select1stESt8equal_toIiESt4hashIiENS_18_Mod_range_hashingENS_20_Default_ranged_hashENS_20_Prime_rehash_policyENS_17_Hashtable_traitsILb0ELb0ELb1EEELb1EEixERS2_(%"struct.std::__detail::_Map_base"* %7, i32* dereferenceable(4) %8), !dbg !2976
  ret i32* %9, !dbg !2978
}

; Function Attrs: noinline nounwind uwtable
define linkonce_odr %"struct.std::pair"* @_ZNKSt8__detail14_Node_iteratorISt4pairIKijELb0ELb0EEptEv(%"struct.std::__detail::_Node_iterator"* %0) #4 comdat align 2 !dbg !2979 {
  %2 = alloca %"struct.std::__detail::_Node_iterator"*, align 8
  store %"struct.std::__detail::_Node_iterator"* %0, %"struct.std::__detail::_Node_iterator"** %2, align 8
  call void @llvm.dbg.declare(metadata %"struct.std::__detail::_Node_iterator"** %2, metadata !2980, metadata !DIExpression()), !dbg !2982
  %3 = load %"struct.std::__detail::_Node_iterator"*, %"struct.std::__detail::_Node_iterator"** %2, align 8
  %4 = bitcast %"struct.std::__detail::_Node_iterator"* %3 to %"struct.std::__detail::_Node_iterator_base"*, !dbg !2983
  %5 = getelementptr inbounds %"struct.std::__detail::_Node_iterator_base", %"struct.std::__detail::_Node_iterator_base"* %4, i32 0, i32 0, !dbg !2983
  %6 = load %"struct.std::__detail::_Hash_node"*, %"struct.std::__detail::_Hash_node"** %5, align 8, !dbg !2983
  %7 = bitcast %"struct.std::__detail::_Hash_node"* %6 to %"struct.std::__detail::_Hash_node_value_base"*, !dbg !2984
  %8 = call %"struct.std::pair"* @_ZNSt8__detail21_Hash_node_value_baseISt4pairIKijEE9_M_valptrEv(%"struct.std::__detail::_Hash_node_value_base"* %7) #9, !dbg !2984
  ret %"struct.std::pair"* %8, !dbg !2985
}

; Function Attrs: noinline uwtable
define i32 @_Z15bloom_init_sizeP5bloomidj(%struct.bloom* %0, i32 %1, double %2, i32 %3) #0 !dbg !2986 {
  %5 = alloca %struct.bloom*, align 8
  %6 = alloca i32, align 4
  %7 = alloca double, align 8
  %8 = alloca i32, align 4
  store %struct.bloom* %0, %struct.bloom** %5, align 8
  call void @llvm.dbg.declare(metadata %struct.bloom** %5, metadata !3002, metadata !DIExpression()), !dbg !3003
  store i32 %1, i32* %6, align 4
  call void @llvm.dbg.declare(metadata i32* %6, metadata !3004, metadata !DIExpression()), !dbg !3005
  store double %2, double* %7, align 8
  call void @llvm.dbg.declare(metadata double* %7, metadata !3006, metadata !DIExpression()), !dbg !3007
  store i32 %3, i32* %8, align 4
  call void @llvm.dbg.declare(metadata i32* %8, metadata !3008, metadata !DIExpression()), !dbg !3009
  %9 = load %struct.bloom*, %struct.bloom** %5, align 8, !dbg !3010
  %10 = load i32, i32* %6, align 4, !dbg !3011
  %11 = load double, double* %7, align 8, !dbg !3012
  %12 = call i32 @_Z10bloom_initP5bloomid(%struct.bloom* %9, i32 %10, double %11), !dbg !3013
  ret i32 %12, !dbg !3014
}

; Function Attrs: noinline uwtable
define i32 @_Z10bloom_initP5bloomid(%struct.bloom* %0, i32 %1, double %2) #0 !dbg !3015 {
  %4 = alloca i32, align 4
  %5 = alloca %struct.bloom*, align 8
  %6 = alloca i32, align 4
  %7 = alloca double, align 8
  %8 = alloca double, align 8
  %9 = alloca double, align 8
  %10 = alloca double, align 8
  store %struct.bloom* %0, %struct.bloom** %5, align 8
  call void @llvm.dbg.declare(metadata %struct.bloom** %5, metadata !3018, metadata !DIExpression()), !dbg !3019
  store i32 %1, i32* %6, align 4
  call void @llvm.dbg.declare(metadata i32* %6, metadata !3020, metadata !DIExpression()), !dbg !3021
  store double %2, double* %7, align 8
  call void @llvm.dbg.declare(metadata double* %7, metadata !3022, metadata !DIExpression()), !dbg !3023
  %11 = load %struct.bloom*, %struct.bloom** %5, align 8, !dbg !3024
  %12 = getelementptr inbounds %struct.bloom, %struct.bloom* %11, i32 0, i32 8, !dbg !3025
  store i32 0, i32* %12, align 8, !dbg !3026
  %13 = load double, double* %7, align 8, !dbg !3027
  %14 = fcmp oeq double %13, 0.000000e+00, !dbg !3029
  br i1 %14, label %15, label %16, !dbg !3030

15:                                               ; preds = %3
  store i32 1, i32* %4, align 4, !dbg !3031
  br label %121, !dbg !3031

16:                                               ; preds = %3
  %17 = load i32, i32* %6, align 4, !dbg !3033
  %18 = load %struct.bloom*, %struct.bloom** %5, align 8, !dbg !3034
  %19 = getelementptr inbounds %struct.bloom, %struct.bloom* %18, i32 0, i32 0, !dbg !3035
  store i32 %17, i32* %19, align 8, !dbg !3036
  %20 = load double, double* %7, align 8, !dbg !3037
  %21 = load %struct.bloom*, %struct.bloom** %5, align 8, !dbg !3038
  %22 = getelementptr inbounds %struct.bloom, %struct.bloom* %21, i32 0, i32 1, !dbg !3039
  store double %20, double* %22, align 8, !dbg !3040
  call void @llvm.dbg.declare(metadata double* %8, metadata !3041, metadata !DIExpression()), !dbg !3042
  %23 = load %struct.bloom*, %struct.bloom** %5, align 8, !dbg !3043
  %24 = getelementptr inbounds %struct.bloom, %struct.bloom* %23, i32 0, i32 1, !dbg !3044
  %25 = load double, double* %24, align 8, !dbg !3044
  %26 = call double @log(double %25) #9, !dbg !3045
  store double %26, double* %8, align 8, !dbg !3042
  call void @llvm.dbg.declare(metadata double* %9, metadata !3046, metadata !DIExpression()), !dbg !3047
  store double 0x3FDEBFBDFF82C587, double* %9, align 8, !dbg !3047
  %27 = load double, double* %8, align 8, !dbg !3048
  %28 = load double, double* %9, align 8, !dbg !3049
  %29 = fdiv double %27, %28, !dbg !3050
  %30 = fneg double %29, !dbg !3051
  %31 = load %struct.bloom*, %struct.bloom** %5, align 8, !dbg !3052
  %32 = getelementptr inbounds %struct.bloom, %struct.bloom* %31, i32 0, i32 5, !dbg !3053
  store double %30, double* %32, align 8, !dbg !3054
  call void @llvm.dbg.declare(metadata double* %10, metadata !3055, metadata !DIExpression()), !dbg !3056
  %33 = load i32, i32* %6, align 4, !dbg !3057
  %34 = sitofp i32 %33 to double, !dbg !3057
  store double %34, double* %10, align 8, !dbg !3056
  %35 = load double, double* %10, align 8, !dbg !3058
  %36 = load %struct.bloom*, %struct.bloom** %5, align 8, !dbg !3059
  %37 = getelementptr inbounds %struct.bloom, %struct.bloom* %36, i32 0, i32 5, !dbg !3060
  %38 = load double, double* %37, align 8, !dbg !3060
  %39 = fmul double %35, %38, !dbg !3061
  %40 = fptosi double %39 to i32, !dbg !3062
  %41 = load %struct.bloom*, %struct.bloom** %5, align 8, !dbg !3063
  %42 = getelementptr inbounds %struct.bloom, %struct.bloom* %41, i32 0, i32 2, !dbg !3064
  store i32 %40, i32* %42, align 8, !dbg !3065
  %43 = load %struct.bloom*, %struct.bloom** %5, align 8, !dbg !3066
  %44 = getelementptr inbounds %struct.bloom, %struct.bloom* %43, i32 0, i32 2, !dbg !3068
  %45 = load i32, i32* %44, align 8, !dbg !3068
  %46 = srem i32 %45, 8, !dbg !3069
  %47 = icmp ne i32 %46, 0, !dbg !3066
  br i1 %47, label %48, label %56, !dbg !3070

48:                                               ; preds = %16
  %49 = load %struct.bloom*, %struct.bloom** %5, align 8, !dbg !3071
  %50 = getelementptr inbounds %struct.bloom, %struct.bloom* %49, i32 0, i32 2, !dbg !3073
  %51 = load i32, i32* %50, align 8, !dbg !3073
  %52 = sdiv i32 %51, 8, !dbg !3074
  %53 = add nsw i32 %52, 1, !dbg !3075
  %54 = load %struct.bloom*, %struct.bloom** %5, align 8, !dbg !3076
  %55 = getelementptr inbounds %struct.bloom, %struct.bloom* %54, i32 0, i32 3, !dbg !3077
  store i32 %53, i32* %55, align 4, !dbg !3078
  br label %63, !dbg !3079

56:                                               ; preds = %16
  %57 = load %struct.bloom*, %struct.bloom** %5, align 8, !dbg !3080
  %58 = getelementptr inbounds %struct.bloom, %struct.bloom* %57, i32 0, i32 2, !dbg !3082
  %59 = load i32, i32* %58, align 8, !dbg !3082
  %60 = sdiv i32 %59, 8, !dbg !3083
  %61 = load %struct.bloom*, %struct.bloom** %5, align 8, !dbg !3084
  %62 = getelementptr inbounds %struct.bloom, %struct.bloom* %61, i32 0, i32 3, !dbg !3085
  store i32 %60, i32* %62, align 4, !dbg !3086
  br label %63

63:                                               ; preds = %56, %48
  %64 = load %struct.bloom*, %struct.bloom** %5, align 8, !dbg !3087
  %65 = getelementptr inbounds %struct.bloom, %struct.bloom* %64, i32 0, i32 5, !dbg !3088
  %66 = load double, double* %65, align 8, !dbg !3088
  %67 = fmul double 0x3FE62E42FEFA39EC, %66, !dbg !3089
  %68 = call double @llvm.ceil.f64(double %67), !dbg !3090
  %69 = fptosi double %68 to i32, !dbg !3090
  %70 = load %struct.bloom*, %struct.bloom** %5, align 8, !dbg !3091
  %71 = getelementptr inbounds %struct.bloom, %struct.bloom* %70, i32 0, i32 4, !dbg !3092
  store i32 %69, i32* %71, align 8, !dbg !3093
  %72 = load %struct.bloom*, %struct.bloom** %5, align 8, !dbg !3094
  %73 = getelementptr inbounds %struct.bloom, %struct.bloom* %72, i32 0, i32 4, !dbg !3095
  %74 = load i32, i32* %73, align 8, !dbg !3095
  %75 = call i32 (i8*, ...) @printf(i8* getelementptr inbounds ([13 x i8], [13 x i8]* @.str.6, i64 0, i64 0), i32 %74), !dbg !3096
  %76 = load %struct.bloom*, %struct.bloom** %5, align 8, !dbg !3097
  %77 = getelementptr inbounds %struct.bloom, %struct.bloom* %76, i32 0, i32 2, !dbg !3098
  %78 = load i32, i32* %77, align 8, !dbg !3098
  %79 = call i32 (i8*, ...) @printf(i8* getelementptr inbounds ([11 x i8], [11 x i8]* @.str.7, i64 0, i64 0), i32 %78), !dbg !3099
  %80 = load %struct.bloom*, %struct.bloom** %5, align 8, !dbg !3100
  %81 = getelementptr inbounds %struct.bloom, %struct.bloom* %80, i32 0, i32 3, !dbg !3101
  %82 = load i32, i32* %81, align 4, !dbg !3101
  %83 = sext i32 %82 to i64, !dbg !3100
  %84 = call noalias i8* @calloc(i64 %83, i64 1) #9, !dbg !3102
  %85 = load %struct.bloom*, %struct.bloom** %5, align 8, !dbg !3103
  %86 = getelementptr inbounds %struct.bloom, %struct.bloom* %85, i32 0, i32 6, !dbg !3104
  store i8* %84, i8** %86, align 8, !dbg !3105
  %87 = load %struct.bloom*, %struct.bloom** %5, align 8, !dbg !3106
  %88 = getelementptr inbounds %struct.bloom, %struct.bloom* %87, i32 0, i32 6, !dbg !3108
  %89 = load i8*, i8** %88, align 8, !dbg !3108
  %90 = icmp eq i8* %89, null, !dbg !3109
  br i1 %90, label %91, label %92, !dbg !3110

91:                                               ; preds = %63
  store i32 1, i32* %4, align 4, !dbg !3111
  br label %121, !dbg !3111

92:                                               ; preds = %63
  %93 = load %struct.bloom*, %struct.bloom** %5, align 8, !dbg !3113
  %94 = getelementptr inbounds %struct.bloom, %struct.bloom* %93, i32 0, i32 4, !dbg !3114
  %95 = load i32, i32* %94, align 8, !dbg !3114
  %96 = sext i32 %95 to i64, !dbg !3113
  %97 = call { i64, i1 } @llvm.umul.with.overflow.i64(i64 %96, i64 56), !dbg !3115
  %98 = extractvalue { i64, i1 } %97, 1, !dbg !3115
  %99 = extractvalue { i64, i1 } %97, 0, !dbg !3115
  %100 = call { i64, i1 } @llvm.uadd.with.overflow.i64(i64 %99, i64 8), !dbg !3115
  %101 = extractvalue { i64, i1 } %100, 1, !dbg !3115
  %102 = or i1 %98, %101, !dbg !3115
  %103 = extractvalue { i64, i1 } %100, 0, !dbg !3115
  %104 = select i1 %102, i64 -1, i64 %103, !dbg !3115
  %105 = call i8* @_Znam(i64 %104) #13, !dbg !3115
  %106 = bitcast i8* %105 to i64*, !dbg !3115
  store i64 %96, i64* %106, align 16, !dbg !3115
  %107 = getelementptr inbounds i8, i8* %105, i64 8, !dbg !3115
  %108 = bitcast i8* %107 to %struct.prob_hash*, !dbg !3115
  %109 = icmp eq i64 %96, 0, !dbg !3115
  br i1 %109, label %116, label %110, !dbg !3115

110:                                              ; preds = %92
  %111 = getelementptr inbounds %struct.prob_hash, %struct.prob_hash* %108, i64 %96, !dbg !3115
  br label %112, !dbg !3115

112:                                              ; preds = %112, %110
  %113 = phi %struct.prob_hash* [ %108, %110 ], [ %114, %112 ], !dbg !3115
  call void @_ZN9prob_hashC2Ev(%struct.prob_hash* %113) #9, !dbg !3115
  %114 = getelementptr inbounds %struct.prob_hash, %struct.prob_hash* %113, i64 1, !dbg !3115
  %115 = icmp eq %struct.prob_hash* %114, %111, !dbg !3115
  br i1 %115, label %116, label %112, !dbg !3115

116:                                              ; preds = %92, %112
  %117 = load %struct.bloom*, %struct.bloom** %5, align 8, !dbg !3116
  %118 = getelementptr inbounds %struct.bloom, %struct.bloom* %117, i32 0, i32 7, !dbg !3117
  store %struct.prob_hash* %108, %struct.prob_hash** %118, align 8, !dbg !3118
  %119 = load %struct.bloom*, %struct.bloom** %5, align 8, !dbg !3119
  %120 = getelementptr inbounds %struct.bloom, %struct.bloom* %119, i32 0, i32 8, !dbg !3120
  store i32 1, i32* %120, align 8, !dbg !3121
  store i32 0, i32* %4, align 4, !dbg !3122
  br label %121, !dbg !3122

121:                                              ; preds = %116, %91, %15
  %122 = load i32, i32* %4, align 4, !dbg !3123
  ret i32 %122, !dbg !3123
}

; Function Attrs: nounwind
declare double @log(double) #2

; Function Attrs: nounwind readnone speculatable willreturn
declare double @llvm.ceil.f64(double) #1

; Function Attrs: nounwind
declare noalias i8* @calloc(i64, i64) #2

; Function Attrs: nounwind readnone speculatable willreturn
declare { i64, i1 } @llvm.umul.with.overflow.i64(i64, i64) #1

; Function Attrs: nounwind readnone speculatable willreturn
declare { i64, i1 } @llvm.uadd.with.overflow.i64(i64, i64) #1

; Function Attrs: nobuiltin
declare noalias i8* @_Znam(i64) #5

; Function Attrs: noinline nounwind uwtable
define linkonce_odr void @_ZN9prob_hashC2Ev(%struct.prob_hash* %0) unnamed_addr #4 comdat align 2 !dbg !3124 {
  %2 = alloca %struct.prob_hash*, align 8
  store %struct.prob_hash* %0, %struct.prob_hash** %2, align 8
  call void @llvm.dbg.declare(metadata %struct.prob_hash** %2, metadata !3129, metadata !DIExpression()), !dbg !3130
  %3 = load %struct.prob_hash*, %struct.prob_hash** %2, align 8
  %4 = getelementptr inbounds %struct.prob_hash, %struct.prob_hash* %3, i32 0, i32 0, !dbg !3131
  call void @_ZNSt13unordered_mapIijSt4hashIiESt8equal_toIiESaISt4pairIKijEEEC2Ev(%"class.std::unordered_map"* %4) #9, !dbg !3131
  ret void, !dbg !3131
}

; Function Attrs: noinline uwtable
define i32 @_Z11bloom_checkP5bloomi(%struct.bloom* %0, i32 %1) #0 !dbg !3132 {
  %3 = alloca %struct.bloom*, align 8
  %4 = alloca i32, align 4
  store %struct.bloom* %0, %struct.bloom** %3, align 8
  call void @llvm.dbg.declare(metadata %struct.bloom** %3, metadata !3135, metadata !DIExpression()), !dbg !3136
  store i32 %1, i32* %4, align 4
  call void @llvm.dbg.declare(metadata i32* %4, metadata !3137, metadata !DIExpression()), !dbg !3138
  %5 = load %struct.bloom*, %struct.bloom** %3, align 8, !dbg !3139
  %6 = load i32, i32* %4, align 4, !dbg !3140
  %7 = call i32 @_ZL15bloom_check_addP5bloomii(%struct.bloom* %5, i32 %6, i32 0), !dbg !3141
  ret i32 %7, !dbg !3142
}

; Function Attrs: noinline uwtable
define internal i32 @_ZL15bloom_check_addP5bloomii(%struct.bloom* %0, i32 %1, i32 %2) #0 !dbg !3143 {
  %4 = alloca i32, align 4
  %5 = alloca %struct.bloom*, align 8
  %6 = alloca i32, align 4
  %7 = alloca i32, align 4
  %8 = alloca i32, align 4
  %9 = alloca i32, align 4
  %10 = alloca i32, align 4
  store %struct.bloom* %0, %struct.bloom** %5, align 8
  call void @llvm.dbg.declare(metadata %struct.bloom** %5, metadata !3146, metadata !DIExpression()), !dbg !3147
  store i32 %1, i32* %6, align 4
  call void @llvm.dbg.declare(metadata i32* %6, metadata !3148, metadata !DIExpression()), !dbg !3149
  store i32 %2, i32* %7, align 4
  call void @llvm.dbg.declare(metadata i32* %7, metadata !3150, metadata !DIExpression()), !dbg !3151
  %11 = load %struct.bloom*, %struct.bloom** %5, align 8, !dbg !3152
  %12 = getelementptr inbounds %struct.bloom, %struct.bloom* %11, i32 0, i32 8, !dbg !3154
  %13 = load i32, i32* %12, align 8, !dbg !3154
  %14 = icmp eq i32 %13, 0, !dbg !3155
  br i1 %14, label %15, label %19, !dbg !3156

15:                                               ; preds = %3
  %16 = load %struct.bloom*, %struct.bloom** %5, align 8, !dbg !3157
  %17 = bitcast %struct.bloom* %16 to i8*, !dbg !3157
  %18 = call i32 (i8*, ...) @printf(i8* getelementptr inbounds ([30 x i8], [30 x i8]* @.str.16, i64 0, i64 0), i8* %17), !dbg !3159
  store i32 -1, i32* %4, align 4, !dbg !3160
  br label %66, !dbg !3160

19:                                               ; preds = %3
  call void @llvm.dbg.declare(metadata i32* %8, metadata !3161, metadata !DIExpression()), !dbg !3162
  store i32 0, i32* %8, align 4, !dbg !3162
  call void @llvm.dbg.declare(metadata i32* %9, metadata !3163, metadata !DIExpression()), !dbg !3164
  call void @llvm.dbg.declare(metadata i32* %10, metadata !3165, metadata !DIExpression()), !dbg !3166
  store i32 0, i32* %10, align 4, !dbg !3167
  br label %20, !dbg !3169

20:                                               ; preds = %55, %19
  %21 = load i32, i32* %10, align 4, !dbg !3170
  %22 = load %struct.bloom*, %struct.bloom** %5, align 8, !dbg !3172
  %23 = getelementptr inbounds %struct.bloom, %struct.bloom* %22, i32 0, i32 4, !dbg !3173
  %24 = load i32, i32* %23, align 8, !dbg !3173
  %25 = icmp ult i32 %21, %24, !dbg !3174
  br i1 %25, label %26, label %58, !dbg !3175

26:                                               ; preds = %20
  %27 = load %struct.bloom*, %struct.bloom** %5, align 8, !dbg !3176
  %28 = getelementptr inbounds %struct.bloom, %struct.bloom* %27, i32 0, i32 7, !dbg !3178
  %29 = load %struct.prob_hash*, %struct.prob_hash** %28, align 8, !dbg !3178
  %30 = load i32, i32* %10, align 4, !dbg !3179
  %31 = zext i32 %30 to i64, !dbg !3176
  %32 = getelementptr inbounds %struct.prob_hash, %struct.prob_hash* %29, i64 %31, !dbg !3176
  %33 = load i32, i32* %6, align 4, !dbg !3180
  %34 = load %struct.bloom*, %struct.bloom** %5, align 8, !dbg !3181
  %35 = getelementptr inbounds %struct.bloom, %struct.bloom* %34, i32 0, i32 2, !dbg !3182
  %36 = load i32, i32* %35, align 8, !dbg !3182
  %37 = sub nsw i32 %36, 1, !dbg !3183
  %38 = call i32 @_Z4hashP9prob_hashij(%struct.prob_hash* %32, i32 %33, i32 %37), !dbg !3184
  store i32 %38, i32* %9, align 4, !dbg !3185
  %39 = load %struct.bloom*, %struct.bloom** %5, align 8, !dbg !3186
  %40 = getelementptr inbounds %struct.bloom, %struct.bloom* %39, i32 0, i32 6, !dbg !3188
  %41 = load i8*, i8** %40, align 8, !dbg !3188
  %42 = load i32, i32* %9, align 4, !dbg !3189
  %43 = load i32, i32* %7, align 4, !dbg !3190
  %44 = call i32 @_ZL16test_bit_set_bitPhji(i8* %41, i32 %42, i32 %43), !dbg !3191
  %45 = icmp ne i32 %44, 0, !dbg !3191
  br i1 %45, label %46, label %49, !dbg !3192

46:                                               ; preds = %26
  %47 = load i32, i32* %8, align 4, !dbg !3193
  %48 = add nsw i32 %47, 1, !dbg !3193
  store i32 %48, i32* %8, align 4, !dbg !3193
  br label %54, !dbg !3195

49:                                               ; preds = %26
  %50 = load i32, i32* %7, align 4, !dbg !3196
  %51 = icmp ne i32 %50, 0, !dbg !3196
  br i1 %51, label %53, label %52, !dbg !3198

52:                                               ; preds = %49
  store i32 0, i32* %4, align 4, !dbg !3199
  br label %66, !dbg !3199

53:                                               ; preds = %49
  br label %54

54:                                               ; preds = %53, %46
  br label %55, !dbg !3201

55:                                               ; preds = %54
  %56 = load i32, i32* %10, align 4, !dbg !3202
  %57 = add i32 %56, 1, !dbg !3202
  store i32 %57, i32* %10, align 4, !dbg !3202
  br label %20, !dbg !3203, !llvm.loop !3204

58:                                               ; preds = %20
  %59 = load i32, i32* %8, align 4, !dbg !3206
  %60 = load %struct.bloom*, %struct.bloom** %5, align 8, !dbg !3208
  %61 = getelementptr inbounds %struct.bloom, %struct.bloom* %60, i32 0, i32 4, !dbg !3209
  %62 = load i32, i32* %61, align 8, !dbg !3209
  %63 = icmp eq i32 %59, %62, !dbg !3210
  br i1 %63, label %64, label %65, !dbg !3211

64:                                               ; preds = %58
  store i32 1, i32* %4, align 4, !dbg !3212
  br label %66, !dbg !3212

65:                                               ; preds = %58
  store i32 0, i32* %4, align 4, !dbg !3214
  br label %66, !dbg !3214

66:                                               ; preds = %65, %64, %52, %15
  %67 = load i32, i32* %4, align 4, !dbg !3215
  ret i32 %67, !dbg !3215
}

; Function Attrs: noinline uwtable
define i32 @_Z9bloom_addP5bloomi(%struct.bloom* %0, i32 %1) #0 !dbg !3216 {
  %3 = alloca %struct.bloom*, align 8
  %4 = alloca i32, align 4
  store %struct.bloom* %0, %struct.bloom** %3, align 8
  call void @llvm.dbg.declare(metadata %struct.bloom** %3, metadata !3217, metadata !DIExpression()), !dbg !3218
  store i32 %1, i32* %4, align 4
  call void @llvm.dbg.declare(metadata i32* %4, metadata !3219, metadata !DIExpression()), !dbg !3220
  %5 = load %struct.bloom*, %struct.bloom** %3, align 8, !dbg !3221
  %6 = load i32, i32* %4, align 4, !dbg !3222
  %7 = call i32 @_ZL15bloom_check_addP5bloomii(%struct.bloom* %5, i32 %6, i32 1), !dbg !3223
  ret i32 %7, !dbg !3224
}

; Function Attrs: noinline uwtable
define void @_Z11bloom_printP5bloom(%struct.bloom* %0) #0 !dbg !3225 {
  %2 = alloca %struct.bloom*, align 8
  store %struct.bloom* %0, %struct.bloom** %2, align 8
  call void @llvm.dbg.declare(metadata %struct.bloom** %2, metadata !3228, metadata !DIExpression()), !dbg !3229
  %3 = load %struct.bloom*, %struct.bloom** %2, align 8, !dbg !3230
  %4 = bitcast %struct.bloom* %3 to i8*, !dbg !3230
  %5 = call i32 (i8*, ...) @printf(i8* getelementptr inbounds ([13 x i8], [13 x i8]* @.str.8, i64 0, i64 0), i8* %4), !dbg !3231
  %6 = load %struct.bloom*, %struct.bloom** %2, align 8, !dbg !3232
  %7 = getelementptr inbounds %struct.bloom, %struct.bloom* %6, i32 0, i32 0, !dbg !3233
  %8 = load i32, i32* %7, align 8, !dbg !3233
  %9 = call i32 (i8*, ...) @printf(i8* getelementptr inbounds ([17 x i8], [17 x i8]* @.str.9, i64 0, i64 0), i32 %8), !dbg !3234
  %10 = load %struct.bloom*, %struct.bloom** %2, align 8, !dbg !3235
  %11 = getelementptr inbounds %struct.bloom, %struct.bloom* %10, i32 0, i32 1, !dbg !3236
  %12 = load double, double* %11, align 8, !dbg !3236
  %13 = call i32 (i8*, ...) @printf(i8* getelementptr inbounds ([15 x i8], [15 x i8]* @.str.10, i64 0, i64 0), double %12), !dbg !3237
  %14 = load %struct.bloom*, %struct.bloom** %2, align 8, !dbg !3238
  %15 = getelementptr inbounds %struct.bloom, %struct.bloom* %14, i32 0, i32 2, !dbg !3239
  %16 = load i32, i32* %15, align 8, !dbg !3239
  %17 = call i32 (i8*, ...) @printf(i8* getelementptr inbounds ([14 x i8], [14 x i8]* @.str.11, i64 0, i64 0), i32 %16), !dbg !3240
  %18 = load %struct.bloom*, %struct.bloom** %2, align 8, !dbg !3241
  %19 = getelementptr inbounds %struct.bloom, %struct.bloom* %18, i32 0, i32 5, !dbg !3242
  %20 = load double, double* %19, align 8, !dbg !3242
  %21 = call i32 (i8*, ...) @printf(i8* getelementptr inbounds ([23 x i8], [23 x i8]* @.str.12, i64 0, i64 0), double %20), !dbg !3243
  %22 = load %struct.bloom*, %struct.bloom** %2, align 8, !dbg !3244
  %23 = getelementptr inbounds %struct.bloom, %struct.bloom* %22, i32 0, i32 3, !dbg !3245
  %24 = load i32, i32* %23, align 4, !dbg !3245
  %25 = call i32 (i8*, ...) @printf(i8* getelementptr inbounds ([15 x i8], [15 x i8]* @.str.13, i64 0, i64 0), i32 %24), !dbg !3246
  %26 = load %struct.bloom*, %struct.bloom** %2, align 8, !dbg !3247
  %27 = getelementptr inbounds %struct.bloom, %struct.bloom* %26, i32 0, i32 4, !dbg !3248
  %28 = load i32, i32* %27, align 8, !dbg !3248
  %29 = call i32 (i8*, ...) @printf(i8* getelementptr inbounds ([24 x i8], [24 x i8]* @.str.14, i64 0, i64 0), i32 %28), !dbg !3249
  ret void, !dbg !3250
}

; Function Attrs: noinline nounwind uwtable
define void @_Z10bloom_freeP5bloom(%struct.bloom* %0) #4 !dbg !3251 {
  %2 = alloca %struct.bloom*, align 8
  store %struct.bloom* %0, %struct.bloom** %2, align 8
  call void @llvm.dbg.declare(metadata %struct.bloom** %2, metadata !3252, metadata !DIExpression()), !dbg !3253
  %3 = load %struct.bloom*, %struct.bloom** %2, align 8, !dbg !3254
  %4 = getelementptr inbounds %struct.bloom, %struct.bloom* %3, i32 0, i32 8, !dbg !3256
  %5 = load i32, i32* %4, align 8, !dbg !3256
  %6 = icmp ne i32 %5, 0, !dbg !3254
  br i1 %6, label %7, label %32, !dbg !3257

7:                                                ; preds = %1
  %8 = load %struct.bloom*, %struct.bloom** %2, align 8, !dbg !3258
  %9 = getelementptr inbounds %struct.bloom, %struct.bloom* %8, i32 0, i32 6, !dbg !3260
  %10 = load i8*, i8** %9, align 8, !dbg !3260
  call void @free(i8* %10) #9, !dbg !3261
  %11 = load %struct.bloom*, %struct.bloom** %2, align 8, !dbg !3262
  %12 = getelementptr inbounds %struct.bloom, %struct.bloom* %11, i32 0, i32 7, !dbg !3263
  %13 = load %struct.prob_hash*, %struct.prob_hash** %12, align 8, !dbg !3263
  %14 = icmp eq %struct.prob_hash* %13, null, !dbg !3264
  br i1 %14, label %27, label %15, !dbg !3264

15:                                               ; preds = %7
  %16 = bitcast %struct.prob_hash* %13 to i8*, !dbg !3264
  %17 = getelementptr inbounds i8, i8* %16, i64 -8, !dbg !3264
  %18 = bitcast i8* %17 to i64*, !dbg !3264
  %19 = load i64, i64* %18, align 8, !dbg !3264
  %20 = getelementptr inbounds %struct.prob_hash, %struct.prob_hash* %13, i64 %19, !dbg !3264
  %21 = icmp eq %struct.prob_hash* %13, %20, !dbg !3264
  br i1 %21, label %26, label %22, !dbg !3264

22:                                               ; preds = %22, %15
  %23 = phi %struct.prob_hash* [ %20, %15 ], [ %24, %22 ], !dbg !3264
  %24 = getelementptr inbounds %struct.prob_hash, %struct.prob_hash* %23, i64 -1, !dbg !3264
  call void @_ZN9prob_hashD2Ev(%struct.prob_hash* %24) #9, !dbg !3264
  %25 = icmp eq %struct.prob_hash* %24, %13, !dbg !3264
  br i1 %25, label %26, label %22, !dbg !3264

26:                                               ; preds = %22, %15
  call void @_ZdaPv(i8* %17) #14, !dbg !3264
  br label %27, !dbg !3264

27:                                               ; preds = %26, %7
  %28 = load %struct.bloom*, %struct.bloom** %2, align 8, !dbg !3265
  %29 = getelementptr inbounds %struct.bloom, %struct.bloom* %28, i32 0, i32 6, !dbg !3266
  store i8* null, i8** %29, align 8, !dbg !3267
  %30 = load %struct.bloom*, %struct.bloom** %2, align 8, !dbg !3268
  %31 = getelementptr inbounds %struct.bloom, %struct.bloom* %30, i32 0, i32 7, !dbg !3269
  store %struct.prob_hash* null, %struct.prob_hash** %31, align 8, !dbg !3270
  br label %32, !dbg !3271

32:                                               ; preds = %27, %1
  %33 = load %struct.bloom*, %struct.bloom** %2, align 8, !dbg !3272
  %34 = getelementptr inbounds %struct.bloom, %struct.bloom* %33, i32 0, i32 8, !dbg !3273
  store i32 0, i32* %34, align 8, !dbg !3274
  ret void, !dbg !3275
}

; Function Attrs: nounwind
declare void @free(i8*) #2

; Function Attrs: noinline nounwind uwtable
define linkonce_odr void @_ZN9prob_hashD2Ev(%struct.prob_hash* %0) unnamed_addr #4 comdat align 2 !dbg !3276 {
  %2 = alloca %struct.prob_hash*, align 8
  store %struct.prob_hash* %0, %struct.prob_hash** %2, align 8
  call void @llvm.dbg.declare(metadata %struct.prob_hash** %2, metadata !3278, metadata !DIExpression()), !dbg !3279
  %3 = load %struct.prob_hash*, %struct.prob_hash** %2, align 8
  %4 = getelementptr inbounds %struct.prob_hash, %struct.prob_hash* %3, i32 0, i32 0, !dbg !3280
  call void @_ZNSt13unordered_mapIijSt4hashIiESt8equal_toIiESaISt4pairIKijEEED2Ev(%"class.std::unordered_map"* %4) #9, !dbg !3280
  ret void, !dbg !3282
}

; Function Attrs: nobuiltin nounwind
declare void @_ZdaPv(i8*) #6

; Function Attrs: noinline nounwind uwtable
define i32 @_Z11bloom_resetP5bloom(%struct.bloom* %0) #4 !dbg !3283 {
  %2 = alloca i32, align 4
  %3 = alloca %struct.bloom*, align 8
  store %struct.bloom* %0, %struct.bloom** %3, align 8
  call void @llvm.dbg.declare(metadata %struct.bloom** %3, metadata !3286, metadata !DIExpression()), !dbg !3287
  %4 = load %struct.bloom*, %struct.bloom** %3, align 8, !dbg !3288
  %5 = getelementptr inbounds %struct.bloom, %struct.bloom* %4, i32 0, i32 8, !dbg !3290
  %6 = load i32, i32* %5, align 8, !dbg !3290
  %7 = icmp ne i32 %6, 0, !dbg !3288
  br i1 %7, label %9, label %8, !dbg !3291

8:                                                ; preds = %1
  store i32 1, i32* %2, align 4, !dbg !3292
  br label %17, !dbg !3292

9:                                                ; preds = %1
  %10 = load %struct.bloom*, %struct.bloom** %3, align 8, !dbg !3293
  %11 = getelementptr inbounds %struct.bloom, %struct.bloom* %10, i32 0, i32 6, !dbg !3294
  %12 = load i8*, i8** %11, align 8, !dbg !3294
  %13 = load %struct.bloom*, %struct.bloom** %3, align 8, !dbg !3295
  %14 = getelementptr inbounds %struct.bloom, %struct.bloom* %13, i32 0, i32 3, !dbg !3296
  %15 = load i32, i32* %14, align 4, !dbg !3296
  %16 = sext i32 %15 to i64, !dbg !3295
  call void @llvm.memset.p0i8.i64(i8* align 1 %12, i8 0, i64 %16, i1 false), !dbg !3297
  store i32 0, i32* %2, align 4, !dbg !3298
  br label %17, !dbg !3298

17:                                               ; preds = %9, %8
  %18 = load i32, i32* %2, align 4, !dbg !3299
  ret i32 %18, !dbg !3299
}

; Function Attrs: argmemonly nounwind willreturn
declare void @llvm.memset.p0i8.i64(i8* nocapture writeonly, i8, i64, i1 immarg) #7

; Function Attrs: noinline nounwind uwtable
define i8* @_Z13bloom_versionv() #4 !dbg !3300 {
  ret i8* getelementptr inbounds ([14 x i8], [14 x i8]* @.str.15, i64 0, i64 0), !dbg !3303
}

; Function Attrs: noinline norecurse uwtable
define i32 @main() #8 !dbg !3304 {
  %1 = alloca i32, align 4
  %2 = alloca %struct.bloom, align 8
  %3 = alloca i32, align 4
  %4 = alloca double, align 8
  %5 = alloca i32, align 4
  %6 = alloca i8*, align 8
  %7 = alloca i64, align 8
  %8 = alloca i32, align 4
  %9 = alloca i64, align 8
  %10 = alloca i64, align 8
  %11 = alloca i32, align 4
  store i32 0, i32* %1, align 4
  call void @llvm.dbg.declare(metadata %struct.bloom* %2, metadata !3305, metadata !DIExpression()), !dbg !3306
  call void @llvm.dbg.declare(metadata i32* %3, metadata !3307, metadata !DIExpression()), !dbg !3308
  store i32 3, i32* %3, align 4, !dbg !3308
  call void @llvm.dbg.declare(metadata double* %4, metadata !3309, metadata !DIExpression()), !dbg !3310
  store double 4.000000e-01, double* %4, align 8, !dbg !3310
  %12 = load i32, i32* %3, align 4, !dbg !3311
  %13 = load double, double* %4, align 8, !dbg !3312
  %14 = call i32 @_Z10bloom_initP5bloomid(%struct.bloom* %2, i32 %12, double %13), !dbg !3313
  call void @llvm.dbg.declare(metadata i32* %5, metadata !3314, metadata !DIExpression()), !dbg !3315
  store i32 0, i32* %5, align 4, !dbg !3315
  %15 = load i32, i32* %3, align 4, !dbg !3316
  %16 = add nsw i32 %15, 1, !dbg !3317
  %17 = zext i32 %16 to i64, !dbg !3318
  %18 = call i8* @llvm.stacksave(), !dbg !3318
  store i8* %18, i8** %6, align 8, !dbg !3318
  %19 = alloca i32, i64 %17, align 16, !dbg !3318
  store i64 %17, i64* %7, align 8, !dbg !3318
  call void @llvm.dbg.declare(metadata i64* %7, metadata !3319, metadata !DIExpression()), !dbg !3320
  call void @llvm.dbg.declare(metadata i32* %19, metadata !3321, metadata !DIExpression()), !dbg !3325
  call void @llvm.dbg.declare(metadata i32* %8, metadata !3326, metadata !DIExpression()), !dbg !3328
  store i32 0, i32* %8, align 4, !dbg !3328
  br label %20, !dbg !3329

20:                                               ; preds = %30, %0
  %21 = load i32, i32* %8, align 4, !dbg !3330
  %22 = load i32, i32* %3, align 4, !dbg !3332
  %23 = add nsw i32 %22, 1, !dbg !3333
  %24 = icmp slt i32 %21, %23, !dbg !3334
  br i1 %24, label %25, label %33, !dbg !3335

25:                                               ; preds = %20
  %26 = load i32, i32* %8, align 4, !dbg !3336
  %27 = load i32, i32* %8, align 4, !dbg !3338
  %28 = sext i32 %27 to i64, !dbg !3339
  %29 = getelementptr inbounds i32, i32* %19, i64 %28, !dbg !3339
  store i32 %26, i32* %29, align 4, !dbg !3340
  br label %30, !dbg !3341

30:                                               ; preds = %25
  %31 = load i32, i32* %8, align 4, !dbg !3342
  %32 = add nsw i32 %31, 1, !dbg !3342
  store i32 %32, i32* %8, align 4, !dbg !3342
  br label %20, !dbg !3343, !llvm.loop !3344

33:                                               ; preds = %20
  call void @llvm.dbg.declare(metadata i64* %9, metadata !3346, metadata !DIExpression()), !dbg !3348
  store i64 0, i64* %9, align 8, !dbg !3348
  br label %34, !dbg !3349

34:                                               ; preds = %65, %33
  %35 = load i64, i64* %9, align 8, !dbg !3350
  %36 = load i32, i32* %3, align 4, !dbg !3352
  %37 = sext i32 %36 to i64, !dbg !3352
  %38 = icmp ult i64 %35, %37, !dbg !3353
  br i1 %38, label %39, label %68, !dbg !3354

39:                                               ; preds = %34
  call void @llvm.dbg.declare(metadata i64* %10, metadata !3355, metadata !DIExpression()), !dbg !3358
  %40 = load i64, i64* %9, align 8, !dbg !3359
  %41 = add i64 %40, 1, !dbg !3360
  store i64 %41, i64* %10, align 8, !dbg !3358
  br label %42, !dbg !3361

42:                                               ; preds = %61, %39
  %43 = load i64, i64* %10, align 8, !dbg !3362
  %44 = load i32, i32* %3, align 4, !dbg !3364
  %45 = sext i32 %44 to i64, !dbg !3364
  %46 = icmp ult i64 %43, %45, !dbg !3365
  br i1 %46, label %47, label %64, !dbg !3366

47:                                               ; preds = %42
  %48 = load i64, i64* %10, align 8, !dbg !3367
  %49 = load i64, i64* %9, align 8, !dbg !3370
  %50 = icmp ugt i64 %48, %49, !dbg !3371
  br i1 %50, label %51, label %60, !dbg !3372

51:                                               ; preds = %47
  %52 = load i64, i64* %9, align 8, !dbg !3373
  %53 = getelementptr inbounds i32, i32* %19, i64 %52, !dbg !3374
  %54 = load i32, i32* %53, align 4, !dbg !3374
  %55 = load i64, i64* %10, align 8, !dbg !3375
  %56 = getelementptr inbounds i32, i32* %19, i64 %55, !dbg !3376
  %57 = load i32, i32* %56, align 4, !dbg !3376
  %58 = icmp ne i32 %54, %57, !dbg !3377
  %59 = zext i1 %58 to i64, !dbg !3374
  call void @klee_assume(i64 %59), !dbg !3378
  br label %60, !dbg !3378

60:                                               ; preds = %51, %47
  br label %61, !dbg !3379

61:                                               ; preds = %60
  %62 = load i64, i64* %10, align 8, !dbg !3380
  %63 = add i64 %62, 1, !dbg !3380
  store i64 %63, i64* %10, align 8, !dbg !3380
  br label %42, !dbg !3381, !llvm.loop !3382

64:                                               ; preds = %42
  br label %65, !dbg !3384

65:                                               ; preds = %64
  %66 = load i64, i64* %9, align 8, !dbg !3385
  %67 = add i64 %66, 1, !dbg !3385
  store i64 %67, i64* %9, align 8, !dbg !3385
  br label %34, !dbg !3386, !llvm.loop !3387

68:                                               ; preds = %34
  call void @llvm.dbg.declare(metadata i32* %11, metadata !3389, metadata !DIExpression()), !dbg !3391
  store i32 0, i32* %11, align 4, !dbg !3391
  br label %69, !dbg !3392

69:                                               ; preds = %79, %68
  %70 = load i32, i32* %11, align 4, !dbg !3393
  %71 = load i32, i32* %3, align 4, !dbg !3395
  %72 = icmp slt i32 %70, %71, !dbg !3396
  br i1 %72, label %73, label %82, !dbg !3397

73:                                               ; preds = %69
  %74 = load i32, i32* %11, align 4, !dbg !3398
  %75 = sext i32 %74 to i64, !dbg !3400
  %76 = getelementptr inbounds i32, i32* %19, i64 %75, !dbg !3400
  %77 = load i32, i32* %76, align 4, !dbg !3400
  %78 = call i32 @_Z9bloom_addP5bloomi(%struct.bloom* %2, i32 %77), !dbg !3401
  br label %79, !dbg !3402

79:                                               ; preds = %73
  %80 = load i32, i32* %11, align 4, !dbg !3403
  %81 = add nsw i32 %80, 1, !dbg !3403
  store i32 %81, i32* %11, align 4, !dbg !3403
  br label %69, !dbg !3404, !llvm.loop !3405

82:                                               ; preds = %69
  %83 = load i32, i32* %3, align 4, !dbg !3407
  %84 = sext i32 %83 to i64, !dbg !3408
  %85 = getelementptr inbounds i32, i32* %19, i64 %84, !dbg !3408
  %86 = load i32, i32* %85, align 4, !dbg !3408
  %87 = call i32 @_Z11bloom_checkP5bloomi(%struct.bloom* %2, i32 %86), !dbg !3409
  store i32 %87, i32* %5, align 4, !dbg !3410
  %88 = load i32, i32* %5, align 4, !dbg !3411
  %89 = icmp eq i32 %88, 1, !dbg !3413
  br i1 %89, label %90, label %91, !dbg !3414

90:                                               ; preds = %82
  call void @mark_state_winning(), !dbg !3415
  br label %91, !dbg !3417

91:                                               ; preds = %90, %82
  call void @_Z10bloom_freeP5bloom(%struct.bloom* %2), !dbg !3418
  store i32 0, i32* %1, align 4, !dbg !3419
  %92 = load i8*, i8** %6, align 8, !dbg !3420
  call void @llvm.stackrestore(i8* %92), !dbg !3420
  %93 = load i32, i32* %1, align 4, !dbg !3420
  ret i32 %93, !dbg !3420
}

; Function Attrs: nounwind
declare i8* @llvm.stacksave() #9

declare void @klee_assume(i64) #3

declare void @mark_state_winning() #3

; Function Attrs: nounwind
declare void @llvm.stackrestore(i8*) #9

; Function Attrs: noinline nounwind uwtable
define linkonce_odr i32 @_ZNSt8__detail14__to_chars_lenIjEEjT_i(i32 %0, i32 %1) #4 comdat !dbg !3421 {
  %3 = alloca i32, align 4
  %4 = alloca i32, align 4
  %5 = alloca i32, align 4
  %6 = alloca i32, align 4
  %7 = alloca i32, align 4
  %8 = alloca i32, align 4
  %9 = alloca i64, align 8
  store i32 %0, i32* %4, align 4
  call void @llvm.dbg.declare(metadata i32* %4, metadata !3424, metadata !DIExpression()), !dbg !3425
  store i32 %1, i32* %5, align 4
  call void @llvm.dbg.declare(metadata i32* %5, metadata !3426, metadata !DIExpression()), !dbg !3427
  call void @llvm.dbg.declare(metadata i32* %6, metadata !3428, metadata !DIExpression()), !dbg !3429
  store i32 1, i32* %6, align 4, !dbg !3429
  call void @llvm.dbg.declare(metadata i32* %7, metadata !3430, metadata !DIExpression()), !dbg !3431
  %10 = load i32, i32* %5, align 4, !dbg !3432
  %11 = load i32, i32* %5, align 4, !dbg !3433
  %12 = mul nsw i32 %10, %11, !dbg !3434
  store i32 %12, i32* %7, align 4, !dbg !3431
  call void @llvm.dbg.declare(metadata i32* %8, metadata !3435, metadata !DIExpression()), !dbg !3436
  %13 = load i32, i32* %7, align 4, !dbg !3437
  %14 = load i32, i32* %5, align 4, !dbg !3438
  %15 = mul i32 %13, %14, !dbg !3439
  store i32 %15, i32* %8, align 4, !dbg !3436
  call void @llvm.dbg.declare(metadata i64* %9, metadata !3440, metadata !DIExpression()), !dbg !3442
  %16 = load i32, i32* %8, align 4, !dbg !3443
  %17 = load i32, i32* %5, align 4, !dbg !3444
  %18 = mul i32 %16, %17, !dbg !3445
  %19 = zext i32 %18 to i64, !dbg !3443
  store i64 %19, i64* %9, align 8, !dbg !3442
  br label %20, !dbg !3446

20:                                               ; preds = %48, %2
  %21 = load i32, i32* %4, align 4, !dbg !3447
  %22 = load i32, i32* %5, align 4, !dbg !3452
  %23 = icmp ult i32 %21, %22, !dbg !3453
  br i1 %23, label %24, label %26, !dbg !3454

24:                                               ; preds = %20
  %25 = load i32, i32* %6, align 4, !dbg !3455
  store i32 %25, i32* %3, align 4, !dbg !3456
  br label %56, !dbg !3456

26:                                               ; preds = %20
  %27 = load i32, i32* %4, align 4, !dbg !3457
  %28 = load i32, i32* %7, align 4, !dbg !3459
  %29 = icmp ult i32 %27, %28, !dbg !3460
  br i1 %29, label %30, label %33, !dbg !3461

30:                                               ; preds = %26
  %31 = load i32, i32* %6, align 4, !dbg !3462
  %32 = add i32 %31, 1, !dbg !3463
  store i32 %32, i32* %3, align 4, !dbg !3464
  br label %56, !dbg !3464

33:                                               ; preds = %26
  %34 = load i32, i32* %4, align 4, !dbg !3465
  %35 = load i32, i32* %8, align 4, !dbg !3467
  %36 = icmp ult i32 %34, %35, !dbg !3468
  br i1 %36, label %37, label %40, !dbg !3469

37:                                               ; preds = %33
  %38 = load i32, i32* %6, align 4, !dbg !3470
  %39 = add i32 %38, 2, !dbg !3471
  store i32 %39, i32* %3, align 4, !dbg !3472
  br label %56, !dbg !3472

40:                                               ; preds = %33
  %41 = load i32, i32* %4, align 4, !dbg !3473
  %42 = zext i32 %41 to i64, !dbg !3473
  %43 = load i64, i64* %9, align 8, !dbg !3475
  %44 = icmp ult i64 %42, %43, !dbg !3476
  br i1 %44, label %45, label %48, !dbg !3477

45:                                               ; preds = %40
  %46 = load i32, i32* %6, align 4, !dbg !3478
  %47 = add i32 %46, 3, !dbg !3479
  store i32 %47, i32* %3, align 4, !dbg !3480
  br label %56, !dbg !3480

48:                                               ; preds = %40
  %49 = load i64, i64* %9, align 8, !dbg !3481
  %50 = load i32, i32* %4, align 4, !dbg !3482
  %51 = zext i32 %50 to i64, !dbg !3482
  %52 = udiv i64 %51, %49, !dbg !3482
  %53 = trunc i64 %52 to i32, !dbg !3482
  store i32 %53, i32* %4, align 4, !dbg !3482
  %54 = load i32, i32* %6, align 4, !dbg !3483
  %55 = add i32 %54, 4, !dbg !3483
  store i32 %55, i32* %6, align 4, !dbg !3483
  br label %20, !dbg !3484, !llvm.loop !3485

56:                                               ; preds = %45, %37, %30, %24
  %57 = load i32, i32* %3, align 4, !dbg !3488
  ret i32 %57, !dbg !3488
}

; Function Attrs: noinline uwtable
define linkonce_odr void @_ZNSt7__cxx1112basic_stringIcSt11char_traitsIcESaIcEEC2IS3_EEmcRKS3_(%"class.std::__cxx11::basic_string"* %0, i64 %1, i8 signext %2, %"class.std::allocator"* dereferenceable(1) %3) unnamed_addr #0 comdat align 2 personality i8* bitcast (i32 (...)* @__gxx_personality_v0 to i8*) !dbg !3489 {
  %5 = alloca %"class.std::__cxx11::basic_string"*, align 8
  %6 = alloca i64, align 8
  %7 = alloca i8, align 1
  %8 = alloca %"class.std::allocator"*, align 8
  %9 = alloca i8*
  %10 = alloca i32
  store %"class.std::__cxx11::basic_string"* %0, %"class.std::__cxx11::basic_string"** %5, align 8
  call void @llvm.dbg.declare(metadata %"class.std::__cxx11::basic_string"** %5, metadata !3493, metadata !DIExpression()), !dbg !3494
  store i64 %1, i64* %6, align 8
  call void @llvm.dbg.declare(metadata i64* %6, metadata !3495, metadata !DIExpression()), !dbg !3496
  store i8 %2, i8* %7, align 1
  call void @llvm.dbg.declare(metadata i8* %7, metadata !3497, metadata !DIExpression()), !dbg !3498
  store %"class.std::allocator"* %3, %"class.std::allocator"** %8, align 8
  call void @llvm.dbg.declare(metadata %"class.std::allocator"** %8, metadata !3499, metadata !DIExpression()), !dbg !3500
  %11 = load %"class.std::__cxx11::basic_string"*, %"class.std::__cxx11::basic_string"** %5, align 8
  %12 = getelementptr inbounds %"class.std::__cxx11::basic_string", %"class.std::__cxx11::basic_string"* %11, i32 0, i32 0, !dbg !3501
  %13 = call i8* @_ZNSt7__cxx1112basic_stringIcSt11char_traitsIcESaIcEE13_M_local_dataEv(%"class.std::__cxx11::basic_string"* %11), !dbg !3502
  %14 = load %"class.std::allocator"*, %"class.std::allocator"** %8, align 8, !dbg !3503
  call void @_ZNSt7__cxx1112basic_stringIcSt11char_traitsIcESaIcEE12_Alloc_hiderC1EPcRKS3_(%"struct.std::__cxx11::basic_string<char, std::char_traits<char>, std::allocator<char> >::_Alloc_hider"* %12, i8* %13, %"class.std::allocator"* dereferenceable(1) %14), !dbg !3501
  %15 = load i64, i64* %6, align 8, !dbg !3504
  %16 = load i8, i8* %7, align 1, !dbg !3506
  invoke void @_ZNSt7__cxx1112basic_stringIcSt11char_traitsIcESaIcEE12_M_constructEmc(%"class.std::__cxx11::basic_string"* %11, i64 %15, i8 signext %16)
          to label %17 unwind label %18, !dbg !3507

17:                                               ; preds = %4
  ret void, !dbg !3508

18:                                               ; preds = %4
  %19 = landingpad { i8*, i32 }
          cleanup, !dbg !3509
  %20 = extractvalue { i8*, i32 } %19, 0, !dbg !3509
  store i8* %20, i8** %9, align 8, !dbg !3509
  %21 = extractvalue { i8*, i32 } %19, 1, !dbg !3509
  store i32 %21, i32* %10, align 4, !dbg !3509
  call void @_ZNSt7__cxx1112basic_stringIcSt11char_traitsIcESaIcEE12_Alloc_hiderD2Ev(%"struct.std::__cxx11::basic_string<char, std::char_traits<char>, std::allocator<char> >::_Alloc_hider"* %12) #9, !dbg !3509
  br label %22, !dbg !3509

22:                                               ; preds = %18
  %23 = load i8*, i8** %9, align 8, !dbg !3509
  %24 = load i32, i32* %10, align 4, !dbg !3509
  %25 = insertvalue { i8*, i32 } undef, i8* %23, 0, !dbg !3509
  %26 = insertvalue { i8*, i32 } %25, i32 %24, 1, !dbg !3509
  resume { i8*, i32 } %26, !dbg !3509
}

; Function Attrs: noinline nounwind uwtable
define linkonce_odr void @_ZNSt8__detail18__to_chars_10_implIjEEvPcjT_(i8* %0, i32 %1, i32 %2) #4 comdat !dbg !2 {
  %4 = alloca i8*, align 8
  %5 = alloca i32, align 4
  %6 = alloca i32, align 4
  %7 = alloca i32, align 4
  %8 = alloca i32, align 4
  %9 = alloca i32, align 4
  store i8* %0, i8** %4, align 8
  call void @llvm.dbg.declare(metadata i8** %4, metadata !3510, metadata !DIExpression()), !dbg !3511
  store i32 %1, i32* %5, align 4
  call void @llvm.dbg.declare(metadata i32* %5, metadata !3512, metadata !DIExpression()), !dbg !3513
  store i32 %2, i32* %6, align 4
  call void @llvm.dbg.declare(metadata i32* %6, metadata !3514, metadata !DIExpression()), !dbg !3515
  call void @llvm.dbg.declare(metadata i32* %7, metadata !3516, metadata !DIExpression()), !dbg !3517
  %10 = load i32, i32* %5, align 4, !dbg !3518
  %11 = sub i32 %10, 1, !dbg !3519
  store i32 %11, i32* %7, align 4, !dbg !3517
  br label %12, !dbg !3520

12:                                               ; preds = %15, %3
  %13 = load i32, i32* %6, align 4, !dbg !3521
  %14 = icmp uge i32 %13, 100, !dbg !3522
  br i1 %14, label %15, label %41, !dbg !3520

15:                                               ; preds = %12
  call void @llvm.dbg.declare(metadata i32* %8, metadata !3523, metadata !DIExpression()), !dbg !3525
  %16 = load i32, i32* %6, align 4, !dbg !3526
  %17 = urem i32 %16, 100, !dbg !3527
  %18 = mul i32 %17, 2, !dbg !3528
  store i32 %18, i32* %8, align 4, !dbg !3525
  %19 = load i32, i32* %6, align 4, !dbg !3529
  %20 = udiv i32 %19, 100, !dbg !3529
  store i32 %20, i32* %6, align 4, !dbg !3529
  %21 = load i32, i32* %8, align 4, !dbg !3530
  %22 = add i32 %21, 1, !dbg !3531
  %23 = zext i32 %22 to i64, !dbg !3532
  %24 = getelementptr inbounds [201 x i8], [201 x i8]* @_ZZNSt8__detail18__to_chars_10_implIjEEvPcjT_E8__digits, i64 0, i64 %23, !dbg !3532
  %25 = load i8, i8* %24, align 1, !dbg !3532
  %26 = load i8*, i8** %4, align 8, !dbg !3533
  %27 = load i32, i32* %7, align 4, !dbg !3534
  %28 = zext i32 %27 to i64, !dbg !3533
  %29 = getelementptr inbounds i8, i8* %26, i64 %28, !dbg !3533
  store i8 %25, i8* %29, align 1, !dbg !3535
  %30 = load i32, i32* %8, align 4, !dbg !3536
  %31 = zext i32 %30 to i64, !dbg !3537
  %32 = getelementptr inbounds [201 x i8], [201 x i8]* @_ZZNSt8__detail18__to_chars_10_implIjEEvPcjT_E8__digits, i64 0, i64 %31, !dbg !3537
  %33 = load i8, i8* %32, align 1, !dbg !3537
  %34 = load i8*, i8** %4, align 8, !dbg !3538
  %35 = load i32, i32* %7, align 4, !dbg !3539
  %36 = sub i32 %35, 1, !dbg !3540
  %37 = zext i32 %36 to i64, !dbg !3538
  %38 = getelementptr inbounds i8, i8* %34, i64 %37, !dbg !3538
  store i8 %33, i8* %38, align 1, !dbg !3541
  %39 = load i32, i32* %7, align 4, !dbg !3542
  %40 = sub i32 %39, 2, !dbg !3542
  store i32 %40, i32* %7, align 4, !dbg !3542
  br label %12, !dbg !3520, !llvm.loop !3543

41:                                               ; preds = %12
  %42 = load i32, i32* %6, align 4, !dbg !3545
  %43 = icmp uge i32 %42, 10, !dbg !3547
  br i1 %43, label %44, label %60, !dbg !3548

44:                                               ; preds = %41
  call void @llvm.dbg.declare(metadata i32* %9, metadata !3549, metadata !DIExpression()), !dbg !3551
  %45 = load i32, i32* %6, align 4, !dbg !3552
  %46 = mul i32 %45, 2, !dbg !3553
  store i32 %46, i32* %9, align 4, !dbg !3551
  %47 = load i32, i32* %9, align 4, !dbg !3554
  %48 = add i32 %47, 1, !dbg !3555
  %49 = zext i32 %48 to i64, !dbg !3556
  %50 = getelementptr inbounds [201 x i8], [201 x i8]* @_ZZNSt8__detail18__to_chars_10_implIjEEvPcjT_E8__digits, i64 0, i64 %49, !dbg !3556
  %51 = load i8, i8* %50, align 1, !dbg !3556
  %52 = load i8*, i8** %4, align 8, !dbg !3557
  %53 = getelementptr inbounds i8, i8* %52, i64 1, !dbg !3557
  store i8 %51, i8* %53, align 1, !dbg !3558
  %54 = load i32, i32* %9, align 4, !dbg !3559
  %55 = zext i32 %54 to i64, !dbg !3560
  %56 = getelementptr inbounds [201 x i8], [201 x i8]* @_ZZNSt8__detail18__to_chars_10_implIjEEvPcjT_E8__digits, i64 0, i64 %55, !dbg !3560
  %57 = load i8, i8* %56, align 1, !dbg !3560
  %58 = load i8*, i8** %4, align 8, !dbg !3561
  %59 = getelementptr inbounds i8, i8* %58, i64 0, !dbg !3561
  store i8 %57, i8* %59, align 1, !dbg !3562
  br label %66, !dbg !3563

60:                                               ; preds = %41
  %61 = load i32, i32* %6, align 4, !dbg !3564
  %62 = add i32 48, %61, !dbg !3565
  %63 = trunc i32 %62 to i8, !dbg !3566
  %64 = load i8*, i8** %4, align 8, !dbg !3567
  %65 = getelementptr inbounds i8, i8* %64, i64 0, !dbg !3567
  store i8 %63, i8* %65, align 1, !dbg !3568
  br label %66

66:                                               ; preds = %60, %44
  ret void, !dbg !3569
}

declare dereferenceable(1) i8* @_ZNSt7__cxx1112basic_stringIcSt11char_traitsIcESaIcEEixEm(%"class.std::__cxx11::basic_string"*, i64) #3

declare i8* @_ZNSt7__cxx1112basic_stringIcSt11char_traitsIcESaIcEE13_M_local_dataEv(%"class.std::__cxx11::basic_string"*) #3

declare void @_ZNSt7__cxx1112basic_stringIcSt11char_traitsIcESaIcEE12_Alloc_hiderC1EPcRKS3_(%"struct.std::__cxx11::basic_string<char, std::char_traits<char>, std::allocator<char> >::_Alloc_hider"*, i8*, %"class.std::allocator"* dereferenceable(1)) unnamed_addr #3

declare void @_ZNSt7__cxx1112basic_stringIcSt11char_traitsIcESaIcEE12_M_constructEmc(%"class.std::__cxx11::basic_string"*, i64, i8 signext) #3

; Function Attrs: noinline nounwind uwtable
define linkonce_odr void @_ZNSt7__cxx1112basic_stringIcSt11char_traitsIcESaIcEE12_Alloc_hiderD2Ev(%"struct.std::__cxx11::basic_string<char, std::char_traits<char>, std::allocator<char> >::_Alloc_hider"* %0) unnamed_addr #4 comdat align 2 !dbg !3570 {
  %2 = alloca %"struct.std::__cxx11::basic_string<char, std::char_traits<char>, std::allocator<char> >::_Alloc_hider"*, align 8
  store %"struct.std::__cxx11::basic_string<char, std::char_traits<char>, std::allocator<char> >::_Alloc_hider"* %0, %"struct.std::__cxx11::basic_string<char, std::char_traits<char>, std::allocator<char> >::_Alloc_hider"** %2, align 8
  call void @llvm.dbg.declare(metadata %"struct.std::__cxx11::basic_string<char, std::char_traits<char>, std::allocator<char> >::_Alloc_hider"** %2, metadata !3595, metadata !DIExpression()), !dbg !3597
  %3 = load %"struct.std::__cxx11::basic_string<char, std::char_traits<char>, std::allocator<char> >::_Alloc_hider"*, %"struct.std::__cxx11::basic_string<char, std::char_traits<char>, std::allocator<char> >::_Alloc_hider"** %2, align 8
  %4 = bitcast %"struct.std::__cxx11::basic_string<char, std::char_traits<char>, std::allocator<char> >::_Alloc_hider"* %3 to %"class.std::allocator"*, !dbg !3598
  call void @_ZNSaIcED2Ev(%"class.std::allocator"* %4) #9, !dbg !3598
  ret void, !dbg !3600
}

; Function Attrs: nounwind
declare void @_ZNSaIcED2Ev(%"class.std::allocator"*) unnamed_addr #2

; Function Attrs: noinline nounwind uwtable
define linkonce_odr void @_ZNSt13unordered_mapIijSt4hashIiESt8equal_toIiESaISt4pairIKijEEEC2Ev(%"class.std::unordered_map"* %0) unnamed_addr #4 comdat align 2 !dbg !3601 {
  %2 = alloca %"class.std::unordered_map"*, align 8
  store %"class.std::unordered_map"* %0, %"class.std::unordered_map"** %2, align 8
  call void @llvm.dbg.declare(metadata %"class.std::unordered_map"** %2, metadata !3602, metadata !DIExpression()), !dbg !3603
  %3 = load %"class.std::unordered_map"*, %"class.std::unordered_map"** %2, align 8
  %4 = getelementptr inbounds %"class.std::unordered_map", %"class.std::unordered_map"* %3, i32 0, i32 0, !dbg !3604
  call void @_ZNSt10_HashtableIiSt4pairIKijESaIS2_ENSt8__detail10_Select1stESt8equal_toIiESt4hashIiENS4_18_Mod_range_hashingENS4_20_Default_ranged_hashENS4_20_Prime_rehash_policyENS4_17_Hashtable_traitsILb0ELb0ELb1EEEEC2Ev(%"class.std::_Hashtable"* %4) #9, !dbg !3604
  ret void, !dbg !3605
}

; Function Attrs: noinline nounwind uwtable
define linkonce_odr void @_ZNSt10_HashtableIiSt4pairIKijESaIS2_ENSt8__detail10_Select1stESt8equal_toIiESt4hashIiENS4_18_Mod_range_hashingENS4_20_Default_ranged_hashENS4_20_Prime_rehash_policyENS4_17_Hashtable_traitsILb0ELb0ELb1EEEEC2Ev(%"class.std::_Hashtable"* %0) unnamed_addr #4 comdat align 2 !dbg !3606 {
  %2 = alloca %"class.std::_Hashtable"*, align 8
  store %"class.std::_Hashtable"* %0, %"class.std::_Hashtable"** %2, align 8
  call void @llvm.dbg.declare(metadata %"class.std::_Hashtable"** %2, metadata !3607, metadata !DIExpression()), !dbg !3609
  %3 = load %"class.std::_Hashtable"*, %"class.std::_Hashtable"** %2, align 8
  %4 = bitcast %"class.std::_Hashtable"* %3 to %"struct.std::__detail::_Hashtable_base"*, !dbg !3610
  %5 = bitcast %"class.std::_Hashtable"* %3 to %"struct.std::__detail::_Map_base"*, !dbg !3610
  %6 = bitcast %"class.std::_Hashtable"* %3 to %"struct.std::__detail::_Insert"*, !dbg !3610
  %7 = bitcast %"class.std::_Hashtable"* %3 to %"struct.std::__detail::_Rehash_base"*, !dbg !3610
  %8 = bitcast %"class.std::_Hashtable"* %3 to %"struct.std::__detail::_Equality"*, !dbg !3610
  %9 = bitcast %"class.std::_Hashtable"* %3 to %"struct.std::__detail::_Hashtable_alloc"*, !dbg !3610
  call void @_ZNSt8__detail16_Hashtable_allocISaINS_10_Hash_nodeISt4pairIKijELb0EEEEEC2Ev(%"struct.std::__detail::_Hashtable_alloc"* %9) #9, !dbg !3611
  %10 = getelementptr inbounds %"class.std::_Hashtable", %"class.std::_Hashtable"* %3, i32 0, i32 0, !dbg !3612
  %11 = getelementptr inbounds %"class.std::_Hashtable", %"class.std::_Hashtable"* %3, i32 0, i32 5, !dbg !3613
  store %"struct.std::__detail::_Hash_node_base"** %11, %"struct.std::__detail::_Hash_node_base"*** %10, align 8, !dbg !3612
  %12 = getelementptr inbounds %"class.std::_Hashtable", %"class.std::_Hashtable"* %3, i32 0, i32 1, !dbg !3614
  store i64 1, i64* %12, align 8, !dbg !3614
  %13 = getelementptr inbounds %"class.std::_Hashtable", %"class.std::_Hashtable"* %3, i32 0, i32 2, !dbg !3611
  call void @_ZNSt8__detail15_Hash_node_baseC2Ev(%"struct.std::__detail::_Hash_node_base"* %13) #9, !dbg !3611
  %14 = getelementptr inbounds %"class.std::_Hashtable", %"class.std::_Hashtable"* %3, i32 0, i32 3, !dbg !3615
  store i64 0, i64* %14, align 8, !dbg !3615
  %15 = getelementptr inbounds %"class.std::_Hashtable", %"class.std::_Hashtable"* %3, i32 0, i32 4, !dbg !3611
  call void @_ZNSt8__detail20_Prime_rehash_policyC2Ef(%"struct.std::__detail::_Prime_rehash_policy"* %15, float 1.000000e+00) #9, !dbg !3611
  %16 = getelementptr inbounds %"class.std::_Hashtable", %"class.std::_Hashtable"* %3, i32 0, i32 5, !dbg !3616
  store %"struct.std::__detail::_Hash_node_base"* null, %"struct.std::__detail::_Hash_node_base"** %16, align 8, !dbg !3616
  ret void, !dbg !3610
}

; Function Attrs: noinline nounwind uwtable
define linkonce_odr void @_ZNSt8__detail16_Hashtable_allocISaINS_10_Hash_nodeISt4pairIKijELb0EEEEEC2Ev(%"struct.std::__detail::_Hashtable_alloc"* %0) unnamed_addr #4 comdat align 2 !dbg !3617 {
  %2 = alloca %"struct.std::__detail::_Hashtable_alloc"*, align 8
  store %"struct.std::__detail::_Hashtable_alloc"* %0, %"struct.std::__detail::_Hashtable_alloc"** %2, align 8
  call void @llvm.dbg.declare(metadata %"struct.std::__detail::_Hashtable_alloc"** %2, metadata !3618, metadata !DIExpression()), !dbg !3620
  %3 = load %"struct.std::__detail::_Hashtable_alloc"*, %"struct.std::__detail::_Hashtable_alloc"** %2, align 8
  %4 = bitcast %"struct.std::__detail::_Hashtable_alloc"* %3 to %"struct.std::__detail::_Hashtable_ebo_helper.3"*, !dbg !3621
  call void @_ZNSt8__detail21_Hashtable_ebo_helperILi0ESaINS_10_Hash_nodeISt4pairIKijELb0EEEELb1EEC2Ev(%"struct.std::__detail::_Hashtable_ebo_helper.3"* %4) #9, !dbg !3622
  ret void, !dbg !3621
}

; Function Attrs: noinline nounwind uwtable
define linkonce_odr void @_ZNSt8__detail15_Hash_node_baseC2Ev(%"struct.std::__detail::_Hash_node_base"* %0) unnamed_addr #4 comdat align 2 !dbg !3623 {
  %2 = alloca %"struct.std::__detail::_Hash_node_base"*, align 8
  store %"struct.std::__detail::_Hash_node_base"* %0, %"struct.std::__detail::_Hash_node_base"** %2, align 8
  call void @llvm.dbg.declare(metadata %"struct.std::__detail::_Hash_node_base"** %2, metadata !3624, metadata !DIExpression()), !dbg !3625
  %3 = load %"struct.std::__detail::_Hash_node_base"*, %"struct.std::__detail::_Hash_node_base"** %2, align 8
  %4 = getelementptr inbounds %"struct.std::__detail::_Hash_node_base", %"struct.std::__detail::_Hash_node_base"* %3, i32 0, i32 0, !dbg !3626
  store %"struct.std::__detail::_Hash_node_base"* null, %"struct.std::__detail::_Hash_node_base"** %4, align 8, !dbg !3626
  ret void, !dbg !3627
}

; Function Attrs: noinline nounwind uwtable
define linkonce_odr void @_ZNSt8__detail20_Prime_rehash_policyC2Ef(%"struct.std::__detail::_Prime_rehash_policy"* %0, float %1) unnamed_addr #4 comdat align 2 !dbg !3628 {
  %3 = alloca %"struct.std::__detail::_Prime_rehash_policy"*, align 8
  %4 = alloca float, align 4
  store %"struct.std::__detail::_Prime_rehash_policy"* %0, %"struct.std::__detail::_Prime_rehash_policy"** %3, align 8
  call void @llvm.dbg.declare(metadata %"struct.std::__detail::_Prime_rehash_policy"** %3, metadata !3629, metadata !DIExpression()), !dbg !3631
  store float %1, float* %4, align 4
  call void @llvm.dbg.declare(metadata float* %4, metadata !3632, metadata !DIExpression()), !dbg !3633
  %5 = load %"struct.std::__detail::_Prime_rehash_policy"*, %"struct.std::__detail::_Prime_rehash_policy"** %3, align 8
  %6 = getelementptr inbounds %"struct.std::__detail::_Prime_rehash_policy", %"struct.std::__detail::_Prime_rehash_policy"* %5, i32 0, i32 0, !dbg !3634
  %7 = load float, float* %4, align 4, !dbg !3635
  store float %7, float* %6, align 8, !dbg !3634
  %8 = getelementptr inbounds %"struct.std::__detail::_Prime_rehash_policy", %"struct.std::__detail::_Prime_rehash_policy"* %5, i32 0, i32 1, !dbg !3636
  store i64 0, i64* %8, align 8, !dbg !3636
  ret void, !dbg !3637
}

; Function Attrs: noinline nounwind uwtable
define linkonce_odr void @_ZNSt8__detail21_Hashtable_ebo_helperILi0ESaINS_10_Hash_nodeISt4pairIKijELb0EEEELb1EEC2Ev(%"struct.std::__detail::_Hashtable_ebo_helper.3"* %0) unnamed_addr #4 comdat align 2 !dbg !3638 {
  %2 = alloca %"struct.std::__detail::_Hashtable_ebo_helper.3"*, align 8
  store %"struct.std::__detail::_Hashtable_ebo_helper.3"* %0, %"struct.std::__detail::_Hashtable_ebo_helper.3"** %2, align 8
  call void @llvm.dbg.declare(metadata %"struct.std::__detail::_Hashtable_ebo_helper.3"** %2, metadata !3639, metadata !DIExpression()), !dbg !3641
  %3 = load %"struct.std::__detail::_Hashtable_ebo_helper.3"*, %"struct.std::__detail::_Hashtable_ebo_helper.3"** %2, align 8
  %4 = bitcast %"struct.std::__detail::_Hashtable_ebo_helper.3"* %3 to %"class.std::allocator.4"*, !dbg !3642
  call void @_ZNSaINSt8__detail10_Hash_nodeISt4pairIKijELb0EEEEC2Ev(%"class.std::allocator.4"* %4) #9, !dbg !3643
  ret void, !dbg !3642
}

; Function Attrs: noinline nounwind uwtable
define linkonce_odr void @_ZNSaINSt8__detail10_Hash_nodeISt4pairIKijELb0EEEEC2Ev(%"class.std::allocator.4"* %0) unnamed_addr #4 comdat align 2 !dbg !3644 {
  %2 = alloca %"class.std::allocator.4"*, align 8
  store %"class.std::allocator.4"* %0, %"class.std::allocator.4"** %2, align 8
  call void @llvm.dbg.declare(metadata %"class.std::allocator.4"** %2, metadata !3645, metadata !DIExpression()), !dbg !3647
  %3 = load %"class.std::allocator.4"*, %"class.std::allocator.4"** %2, align 8
  %4 = bitcast %"class.std::allocator.4"* %3 to %"class.__gnu_cxx::new_allocator.5"*, !dbg !3648
  call void @_ZN9__gnu_cxx13new_allocatorINSt8__detail10_Hash_nodeISt4pairIKijELb0EEEEC2Ev(%"class.__gnu_cxx::new_allocator.5"* %4) #9, !dbg !3649
  ret void, !dbg !3650
}

; Function Attrs: noinline nounwind uwtable
define linkonce_odr void @_ZN9__gnu_cxx13new_allocatorINSt8__detail10_Hash_nodeISt4pairIKijELb0EEEEC2Ev(%"class.__gnu_cxx::new_allocator.5"* %0) unnamed_addr #4 comdat align 2 !dbg !3651 {
  %2 = alloca %"class.__gnu_cxx::new_allocator.5"*, align 8
  store %"class.__gnu_cxx::new_allocator.5"* %0, %"class.__gnu_cxx::new_allocator.5"** %2, align 8
  call void @llvm.dbg.declare(metadata %"class.__gnu_cxx::new_allocator.5"** %2, metadata !3652, metadata !DIExpression()), !dbg !3654
  %3 = load %"class.__gnu_cxx::new_allocator.5"*, %"class.__gnu_cxx::new_allocator.5"** %2, align 8
  ret void, !dbg !3655
}

; Function Attrs: noinline nounwind uwtable
define internal i32 @_ZL16test_bit_set_bitPhji(i8* %0, i32 %1, i32 %2) #4 !dbg !3656 {
  %4 = alloca i32, align 4
  %5 = alloca i8*, align 8
  %6 = alloca i32, align 4
  %7 = alloca i32, align 4
  %8 = alloca i32, align 4
  %9 = alloca i8, align 1
  %10 = alloca i32, align 4
  store i8* %0, i8** %5, align 8
  call void @llvm.dbg.declare(metadata i8** %5, metadata !3659, metadata !DIExpression()), !dbg !3660
  store i32 %1, i32* %6, align 4
  call void @llvm.dbg.declare(metadata i32* %6, metadata !3661, metadata !DIExpression()), !dbg !3662
  store i32 %2, i32* %7, align 4
  call void @llvm.dbg.declare(metadata i32* %7, metadata !3663, metadata !DIExpression()), !dbg !3664
  call void @llvm.dbg.declare(metadata i32* %8, metadata !3665, metadata !DIExpression()), !dbg !3666
  %11 = load i32, i32* %6, align 4, !dbg !3667
  %12 = lshr i32 %11, 3, !dbg !3668
  store i32 %12, i32* %8, align 4, !dbg !3666
  call void @llvm.dbg.declare(metadata i8* %9, metadata !3669, metadata !DIExpression()), !dbg !3670
  %13 = load i8*, i8** %5, align 8, !dbg !3671
  %14 = load i32, i32* %8, align 4, !dbg !3672
  %15 = zext i32 %14 to i64, !dbg !3671
  %16 = getelementptr inbounds i8, i8* %13, i64 %15, !dbg !3671
  %17 = load i8, i8* %16, align 1, !dbg !3671
  store i8 %17, i8* %9, align 1, !dbg !3670
  call void @llvm.dbg.declare(metadata i32* %10, metadata !3673, metadata !DIExpression()), !dbg !3674
  %18 = load i32, i32* %6, align 4, !dbg !3675
  %19 = urem i32 %18, 8, !dbg !3676
  %20 = shl i32 1, %19, !dbg !3677
  store i32 %20, i32* %10, align 4, !dbg !3674
  %21 = load i8, i8* %9, align 1, !dbg !3678
  %22 = zext i8 %21 to i32, !dbg !3678
  %23 = load i32, i32* %10, align 4, !dbg !3680
  %24 = and i32 %22, %23, !dbg !3681
  %25 = icmp ne i32 %24, 0, !dbg !3678
  br i1 %25, label %26, label %27, !dbg !3682

26:                                               ; preds = %3
  store i32 1, i32* %4, align 4, !dbg !3683
  br label %41, !dbg !3683

27:                                               ; preds = %3
  %28 = load i32, i32* %7, align 4, !dbg !3685
  %29 = icmp ne i32 %28, 0, !dbg !3685
  br i1 %29, label %30, label %40, !dbg !3688

30:                                               ; preds = %27
  %31 = load i8, i8* %9, align 1, !dbg !3689
  %32 = zext i8 %31 to i32, !dbg !3689
  %33 = load i32, i32* %10, align 4, !dbg !3691
  %34 = or i32 %32, %33, !dbg !3692
  %35 = trunc i32 %34 to i8, !dbg !3689
  %36 = load i8*, i8** %5, align 8, !dbg !3693
  %37 = load i32, i32* %8, align 4, !dbg !3694
  %38 = zext i32 %37 to i64, !dbg !3693
  %39 = getelementptr inbounds i8, i8* %36, i64 %38, !dbg !3693
  store i8 %35, i8* %39, align 1, !dbg !3695
  br label %40, !dbg !3696

40:                                               ; preds = %30, %27
  store i32 0, i32* %4, align 4, !dbg !3697
  br label %41, !dbg !3697

41:                                               ; preds = %40, %26
  %42 = load i32, i32* %4, align 4, !dbg !3698
  ret i32 %42, !dbg !3698
}

; Function Attrs: noinline nounwind uwtable
define linkonce_odr void @_ZNSt13unordered_mapIijSt4hashIiESt8equal_toIiESaISt4pairIKijEEED2Ev(%"class.std::unordered_map"* %0) unnamed_addr #4 comdat align 2 !dbg !3699 {
  %2 = alloca %"class.std::unordered_map"*, align 8
  store %"class.std::unordered_map"* %0, %"class.std::unordered_map"** %2, align 8
  call void @llvm.dbg.declare(metadata %"class.std::unordered_map"** %2, metadata !3701, metadata !DIExpression()), !dbg !3702
  %3 = load %"class.std::unordered_map"*, %"class.std::unordered_map"** %2, align 8
  %4 = getelementptr inbounds %"class.std::unordered_map", %"class.std::unordered_map"* %3, i32 0, i32 0, !dbg !3703
  call void @_ZNSt10_HashtableIiSt4pairIKijESaIS2_ENSt8__detail10_Select1stESt8equal_toIiESt4hashIiENS4_18_Mod_range_hashingENS4_20_Default_ranged_hashENS4_20_Prime_rehash_policyENS4_17_Hashtable_traitsILb0ELb0ELb1EEEED2Ev(%"class.std::_Hashtable"* %4) #9, !dbg !3703
  ret void, !dbg !3705
}

; Function Attrs: noinline nounwind uwtable
define linkonce_odr void @_ZNSt10_HashtableIiSt4pairIKijESaIS2_ENSt8__detail10_Select1stESt8equal_toIiESt4hashIiENS4_18_Mod_range_hashingENS4_20_Default_ranged_hashENS4_20_Prime_rehash_policyENS4_17_Hashtable_traitsILb0ELb0ELb1EEEED2Ev(%"class.std::_Hashtable"* %0) unnamed_addr #4 comdat align 2 personality i8* bitcast (i32 (...)* @__gxx_personality_v0 to i8*) !dbg !3706 {
  %2 = alloca %"class.std::_Hashtable"*, align 8
  %3 = alloca i8*
  %4 = alloca i32
  store %"class.std::_Hashtable"* %0, %"class.std::_Hashtable"** %2, align 8
  call void @llvm.dbg.declare(metadata %"class.std::_Hashtable"** %2, metadata !3707, metadata !DIExpression()), !dbg !3708
  %5 = load %"class.std::_Hashtable"*, %"class.std::_Hashtable"** %2, align 8
  call void @_ZNSt10_HashtableIiSt4pairIKijESaIS2_ENSt8__detail10_Select1stESt8equal_toIiESt4hashIiENS4_18_Mod_range_hashingENS4_20_Default_ranged_hashENS4_20_Prime_rehash_policyENS4_17_Hashtable_traitsILb0ELb0ELb1EEEE5clearEv(%"class.std::_Hashtable"* %5) #9, !dbg !3709
  invoke void @_ZNSt10_HashtableIiSt4pairIKijESaIS2_ENSt8__detail10_Select1stESt8equal_toIiESt4hashIiENS4_18_Mod_range_hashingENS4_20_Default_ranged_hashENS4_20_Prime_rehash_policyENS4_17_Hashtable_traitsILb0ELb0ELb1EEEE21_M_deallocate_bucketsEv(%"class.std::_Hashtable"* %5)
          to label %6 unwind label %8, !dbg !3711

6:                                                ; preds = %1
  %7 = bitcast %"class.std::_Hashtable"* %5 to %"struct.std::__detail::_Hashtable_alloc"*, !dbg !3712
  call void @_ZNSt8__detail16_Hashtable_allocISaINS_10_Hash_nodeISt4pairIKijELb0EEEEED2Ev(%"struct.std::__detail::_Hashtable_alloc"* %7) #9, !dbg !3712
  ret void, !dbg !3713

8:                                                ; preds = %1
  %9 = landingpad { i8*, i32 }
          catch i8* null, !dbg !3712
  %10 = extractvalue { i8*, i32 } %9, 0, !dbg !3712
  store i8* %10, i8** %3, align 8, !dbg !3712
  %11 = extractvalue { i8*, i32 } %9, 1, !dbg !3712
  store i32 %11, i32* %4, align 4, !dbg !3712
  %12 = bitcast %"class.std::_Hashtable"* %5 to %"struct.std::__detail::_Hashtable_alloc"*, !dbg !3712
  call void @_ZNSt8__detail16_Hashtable_allocISaINS_10_Hash_nodeISt4pairIKijELb0EEEEED2Ev(%"struct.std::__detail::_Hashtable_alloc"* %12) #9, !dbg !3712
  br label %13, !dbg !3712

13:                                               ; preds = %8
  %14 = load i8*, i8** %3, align 8, !dbg !3712
  call void @__clang_call_terminate(i8* %14) #15, !dbg !3712
  unreachable, !dbg !3712
}

; Function Attrs: noinline nounwind uwtable
define linkonce_odr void @_ZNSt10_HashtableIiSt4pairIKijESaIS2_ENSt8__detail10_Select1stESt8equal_toIiESt4hashIiENS4_18_Mod_range_hashingENS4_20_Default_ranged_hashENS4_20_Prime_rehash_policyENS4_17_Hashtable_traitsILb0ELb0ELb1EEEE5clearEv(%"class.std::_Hashtable"* %0) #4 comdat align 2 personality i8* bitcast (i32 (...)* @__gxx_personality_v0 to i8*) !dbg !3714 {
  %2 = alloca %"class.std::_Hashtable"*, align 8
  store %"class.std::_Hashtable"* %0, %"class.std::_Hashtable"** %2, align 8
  call void @llvm.dbg.declare(metadata %"class.std::_Hashtable"** %2, metadata !3715, metadata !DIExpression()), !dbg !3716
  %3 = load %"class.std::_Hashtable"*, %"class.std::_Hashtable"** %2, align 8
  %4 = bitcast %"class.std::_Hashtable"* %3 to %"struct.std::__detail::_Hashtable_alloc"*, !dbg !3717
  %5 = invoke %"struct.std::__detail::_Hash_node"* @_ZNKSt10_HashtableIiSt4pairIKijESaIS2_ENSt8__detail10_Select1stESt8equal_toIiESt4hashIiENS4_18_Mod_range_hashingENS4_20_Default_ranged_hashENS4_20_Prime_rehash_policyENS4_17_Hashtable_traitsILb0ELb0ELb1EEEE8_M_beginEv(%"class.std::_Hashtable"* %3)
          to label %6 unwind label %17, !dbg !3718

6:                                                ; preds = %1
  invoke void @_ZNSt8__detail16_Hashtable_allocISaINS_10_Hash_nodeISt4pairIKijELb0EEEEE19_M_deallocate_nodesEPS5_(%"struct.std::__detail::_Hashtable_alloc"* %4, %"struct.std::__detail::_Hash_node"* %5)
          to label %7 unwind label %17, !dbg !3717

7:                                                ; preds = %6
  %8 = getelementptr inbounds %"class.std::_Hashtable", %"class.std::_Hashtable"* %3, i32 0, i32 0, !dbg !3719
  %9 = load %"struct.std::__detail::_Hash_node_base"**, %"struct.std::__detail::_Hash_node_base"*** %8, align 8, !dbg !3719
  %10 = bitcast %"struct.std::__detail::_Hash_node_base"** %9 to i8*, !dbg !3720
  %11 = getelementptr inbounds %"class.std::_Hashtable", %"class.std::_Hashtable"* %3, i32 0, i32 1, !dbg !3721
  %12 = load i64, i64* %11, align 8, !dbg !3721
  %13 = mul i64 %12, 8, !dbg !3722
  call void @llvm.memset.p0i8.i64(i8* align 8 %10, i8 0, i64 %13, i1 false), !dbg !3720
  %14 = getelementptr inbounds %"class.std::_Hashtable", %"class.std::_Hashtable"* %3, i32 0, i32 3, !dbg !3723
  store i64 0, i64* %14, align 8, !dbg !3724
  %15 = getelementptr inbounds %"class.std::_Hashtable", %"class.std::_Hashtable"* %3, i32 0, i32 2, !dbg !3725
  %16 = getelementptr inbounds %"struct.std::__detail::_Hash_node_base", %"struct.std::__detail::_Hash_node_base"* %15, i32 0, i32 0, !dbg !3726
  store %"struct.std::__detail::_Hash_node_base"* null, %"struct.std::__detail::_Hash_node_base"** %16, align 8, !dbg !3727
  ret void, !dbg !3728

17:                                               ; preds = %6, %1
  %18 = landingpad { i8*, i32 }
          catch i8* null, !dbg !3718
  %19 = extractvalue { i8*, i32 } %18, 0, !dbg !3718
  call void @__clang_call_terminate(i8* %19) #15, !dbg !3718
  unreachable, !dbg !3718
}

; Function Attrs: noinline uwtable
define linkonce_odr void @_ZNSt10_HashtableIiSt4pairIKijESaIS2_ENSt8__detail10_Select1stESt8equal_toIiESt4hashIiENS4_18_Mod_range_hashingENS4_20_Default_ranged_hashENS4_20_Prime_rehash_policyENS4_17_Hashtable_traitsILb0ELb0ELb1EEEE21_M_deallocate_bucketsEv(%"class.std::_Hashtable"* %0) #0 comdat align 2 !dbg !3729 {
  %2 = alloca %"class.std::_Hashtable"*, align 8
  store %"class.std::_Hashtable"* %0, %"class.std::_Hashtable"** %2, align 8
  call void @llvm.dbg.declare(metadata %"class.std::_Hashtable"** %2, metadata !3730, metadata !DIExpression()), !dbg !3731
  %3 = load %"class.std::_Hashtable"*, %"class.std::_Hashtable"** %2, align 8
  %4 = getelementptr inbounds %"class.std::_Hashtable", %"class.std::_Hashtable"* %3, i32 0, i32 0, !dbg !3732
  %5 = load %"struct.std::__detail::_Hash_node_base"**, %"struct.std::__detail::_Hash_node_base"*** %4, align 8, !dbg !3732
  %6 = getelementptr inbounds %"class.std::_Hashtable", %"class.std::_Hashtable"* %3, i32 0, i32 1, !dbg !3733
  %7 = load i64, i64* %6, align 8, !dbg !3733
  call void @_ZNSt10_HashtableIiSt4pairIKijESaIS2_ENSt8__detail10_Select1stESt8equal_toIiESt4hashIiENS4_18_Mod_range_hashingENS4_20_Default_ranged_hashENS4_20_Prime_rehash_policyENS4_17_Hashtable_traitsILb0ELb0ELb1EEEE21_M_deallocate_bucketsEPPNS4_15_Hash_node_baseEm(%"class.std::_Hashtable"* %3, %"struct.std::__detail::_Hash_node_base"** %5, i64 %7), !dbg !3734
  ret void, !dbg !3735
}

; Function Attrs: noinline nounwind uwtable
define linkonce_odr void @_ZNSt8__detail16_Hashtable_allocISaINS_10_Hash_nodeISt4pairIKijELb0EEEEED2Ev(%"struct.std::__detail::_Hashtable_alloc"* %0) unnamed_addr #4 comdat align 2 !dbg !3736 {
  %2 = alloca %"struct.std::__detail::_Hashtable_alloc"*, align 8
  store %"struct.std::__detail::_Hashtable_alloc"* %0, %"struct.std::__detail::_Hashtable_alloc"** %2, align 8
  call void @llvm.dbg.declare(metadata %"struct.std::__detail::_Hashtable_alloc"** %2, metadata !3738, metadata !DIExpression()), !dbg !3739
  %3 = load %"struct.std::__detail::_Hashtable_alloc"*, %"struct.std::__detail::_Hashtable_alloc"** %2, align 8
  %4 = bitcast %"struct.std::__detail::_Hashtable_alloc"* %3 to %"struct.std::__detail::_Hashtable_ebo_helper.3"*, !dbg !3740
  call void @_ZNSt8__detail21_Hashtable_ebo_helperILi0ESaINS_10_Hash_nodeISt4pairIKijELb0EEEELb1EED2Ev(%"struct.std::__detail::_Hashtable_ebo_helper.3"* %4) #9, !dbg !3740
  ret void, !dbg !3742
}

; Function Attrs: noinline noreturn nounwind
define linkonce_odr hidden void @__clang_call_terminate(i8* %0) #10 comdat {
  %2 = call i8* @__cxa_begin_catch(i8* %0) #9
  call void @_ZSt9terminatev() #15
  unreachable
}

declare i8* @__cxa_begin_catch(i8*)

declare void @_ZSt9terminatev()

; Function Attrs: noinline uwtable
define linkonce_odr void @_ZNSt8__detail16_Hashtable_allocISaINS_10_Hash_nodeISt4pairIKijELb0EEEEE19_M_deallocate_nodesEPS5_(%"struct.std::__detail::_Hashtable_alloc"* %0, %"struct.std::__detail::_Hash_node"* %1) #0 comdat align 2 !dbg !3743 {
  %3 = alloca %"struct.std::__detail::_Hashtable_alloc"*, align 8
  %4 = alloca %"struct.std::__detail::_Hash_node"*, align 8
  %5 = alloca %"struct.std::__detail::_Hash_node"*, align 8
  store %"struct.std::__detail::_Hashtable_alloc"* %0, %"struct.std::__detail::_Hashtable_alloc"** %3, align 8
  call void @llvm.dbg.declare(metadata %"struct.std::__detail::_Hashtable_alloc"** %3, metadata !3744, metadata !DIExpression()), !dbg !3745
  store %"struct.std::__detail::_Hash_node"* %1, %"struct.std::__detail::_Hash_node"** %4, align 8
  call void @llvm.dbg.declare(metadata %"struct.std::__detail::_Hash_node"** %4, metadata !3746, metadata !DIExpression()), !dbg !3747
  %6 = load %"struct.std::__detail::_Hashtable_alloc"*, %"struct.std::__detail::_Hashtable_alloc"** %3, align 8
  br label %7, !dbg !3748

7:                                                ; preds = %10, %2
  %8 = load %"struct.std::__detail::_Hash_node"*, %"struct.std::__detail::_Hash_node"** %4, align 8, !dbg !3749
  %9 = icmp ne %"struct.std::__detail::_Hash_node"* %8, null, !dbg !3749
  br i1 %9, label %10, label %15, !dbg !3748

10:                                               ; preds = %7
  call void @llvm.dbg.declare(metadata %"struct.std::__detail::_Hash_node"** %5, metadata !3750, metadata !DIExpression()), !dbg !3752
  %11 = load %"struct.std::__detail::_Hash_node"*, %"struct.std::__detail::_Hash_node"** %4, align 8, !dbg !3753
  store %"struct.std::__detail::_Hash_node"* %11, %"struct.std::__detail::_Hash_node"** %5, align 8, !dbg !3752
  %12 = load %"struct.std::__detail::_Hash_node"*, %"struct.std::__detail::_Hash_node"** %4, align 8, !dbg !3754
  %13 = call %"struct.std::__detail::_Hash_node"* @_ZNKSt8__detail10_Hash_nodeISt4pairIKijELb0EE7_M_nextEv(%"struct.std::__detail::_Hash_node"* %12) #9, !dbg !3755
  store %"struct.std::__detail::_Hash_node"* %13, %"struct.std::__detail::_Hash_node"** %4, align 8, !dbg !3756
  %14 = load %"struct.std::__detail::_Hash_node"*, %"struct.std::__detail::_Hash_node"** %5, align 8, !dbg !3757
  call void @_ZNSt8__detail16_Hashtable_allocISaINS_10_Hash_nodeISt4pairIKijELb0EEEEE18_M_deallocate_nodeEPS5_(%"struct.std::__detail::_Hashtable_alloc"* %6, %"struct.std::__detail::_Hash_node"* %14), !dbg !3758
  br label %7, !dbg !3748, !llvm.loop !3759

15:                                               ; preds = %7
  ret void, !dbg !3761
}

; Function Attrs: noinline nounwind uwtable
define linkonce_odr %"struct.std::__detail::_Hash_node"* @_ZNKSt10_HashtableIiSt4pairIKijESaIS2_ENSt8__detail10_Select1stESt8equal_toIiESt4hashIiENS4_18_Mod_range_hashingENS4_20_Default_ranged_hashENS4_20_Prime_rehash_policyENS4_17_Hashtable_traitsILb0ELb0ELb1EEEE8_M_beginEv(%"class.std::_Hashtable"* %0) #4 comdat align 2 !dbg !3762 {
  %2 = alloca %"class.std::_Hashtable"*, align 8
  store %"class.std::_Hashtable"* %0, %"class.std::_Hashtable"** %2, align 8
  call void @llvm.dbg.declare(metadata %"class.std::_Hashtable"** %2, metadata !3763, metadata !DIExpression()), !dbg !3765
  %3 = load %"class.std::_Hashtable"*, %"class.std::_Hashtable"** %2, align 8
  %4 = getelementptr inbounds %"class.std::_Hashtable", %"class.std::_Hashtable"* %3, i32 0, i32 2, !dbg !3766
  %5 = getelementptr inbounds %"struct.std::__detail::_Hash_node_base", %"struct.std::__detail::_Hash_node_base"* %4, i32 0, i32 0, !dbg !3767
  %6 = load %"struct.std::__detail::_Hash_node_base"*, %"struct.std::__detail::_Hash_node_base"** %5, align 8, !dbg !3767
  %7 = bitcast %"struct.std::__detail::_Hash_node_base"* %6 to %"struct.std::__detail::_Hash_node"*, !dbg !3768
  ret %"struct.std::__detail::_Hash_node"* %7, !dbg !3769
}

; Function Attrs: noinline nounwind uwtable
define linkonce_odr %"struct.std::__detail::_Hash_node"* @_ZNKSt8__detail10_Hash_nodeISt4pairIKijELb0EE7_M_nextEv(%"struct.std::__detail::_Hash_node"* %0) #4 comdat align 2 !dbg !3770 {
  %2 = alloca %"struct.std::__detail::_Hash_node"*, align 8
  store %"struct.std::__detail::_Hash_node"* %0, %"struct.std::__detail::_Hash_node"** %2, align 8
  call void @llvm.dbg.declare(metadata %"struct.std::__detail::_Hash_node"** %2, metadata !3771, metadata !DIExpression()), !dbg !3772
  %3 = load %"struct.std::__detail::_Hash_node"*, %"struct.std::__detail::_Hash_node"** %2, align 8
  %4 = bitcast %"struct.std::__detail::_Hash_node"* %3 to %"struct.std::__detail::_Hash_node_base"*, !dbg !3773
  %5 = getelementptr inbounds %"struct.std::__detail::_Hash_node_base", %"struct.std::__detail::_Hash_node_base"* %4, i32 0, i32 0, !dbg !3773
  %6 = load %"struct.std::__detail::_Hash_node_base"*, %"struct.std::__detail::_Hash_node_base"** %5, align 8, !dbg !3773
  %7 = bitcast %"struct.std::__detail::_Hash_node_base"* %6 to %"struct.std::__detail::_Hash_node"*, !dbg !3774
  ret %"struct.std::__detail::_Hash_node"* %7, !dbg !3775
}

; Function Attrs: noinline uwtable
define linkonce_odr void @_ZNSt8__detail16_Hashtable_allocISaINS_10_Hash_nodeISt4pairIKijELb0EEEEE18_M_deallocate_nodeEPS5_(%"struct.std::__detail::_Hashtable_alloc"* %0, %"struct.std::__detail::_Hash_node"* %1) #0 comdat align 2 !dbg !3776 {
  %3 = alloca %"struct.std::__detail::_Hashtable_alloc"*, align 8
  %4 = alloca %"struct.std::__detail::_Hash_node"*, align 8
  store %"struct.std::__detail::_Hashtable_alloc"* %0, %"struct.std::__detail::_Hashtable_alloc"** %3, align 8
  call void @llvm.dbg.declare(metadata %"struct.std::__detail::_Hashtable_alloc"** %3, metadata !3777, metadata !DIExpression()), !dbg !3778
  store %"struct.std::__detail::_Hash_node"* %1, %"struct.std::__detail::_Hash_node"** %4, align 8
  call void @llvm.dbg.declare(metadata %"struct.std::__detail::_Hash_node"** %4, metadata !3779, metadata !DIExpression()), !dbg !3780
  %5 = load %"struct.std::__detail::_Hashtable_alloc"*, %"struct.std::__detail::_Hashtable_alloc"** %3, align 8
  %6 = call dereferenceable(1) %"class.std::allocator.4"* @_ZNSt8__detail16_Hashtable_allocISaINS_10_Hash_nodeISt4pairIKijELb0EEEEE17_M_node_allocatorEv(%"struct.std::__detail::_Hashtable_alloc"* %5), !dbg !3781
  %7 = load %"struct.std::__detail::_Hash_node"*, %"struct.std::__detail::_Hash_node"** %4, align 8, !dbg !3782
  %8 = bitcast %"struct.std::__detail::_Hash_node"* %7 to %"struct.std::__detail::_Hash_node_value_base"*, !dbg !3783
  %9 = call %"struct.std::pair"* @_ZNSt8__detail21_Hash_node_value_baseISt4pairIKijEE9_M_valptrEv(%"struct.std::__detail::_Hash_node_value_base"* %8) #9, !dbg !3783
  call void @_ZNSt16allocator_traitsISaINSt8__detail10_Hash_nodeISt4pairIKijELb0EEEEE7destroyIS4_EEvRS6_PT_(%"class.std::allocator.4"* dereferenceable(1) %6, %"struct.std::pair"* %9) #9, !dbg !3784
  %10 = load %"struct.std::__detail::_Hash_node"*, %"struct.std::__detail::_Hash_node"** %4, align 8, !dbg !3785
  call void @_ZNSt8__detail16_Hashtable_allocISaINS_10_Hash_nodeISt4pairIKijELb0EEEEE22_M_deallocate_node_ptrEPS5_(%"struct.std::__detail::_Hashtable_alloc"* %5, %"struct.std::__detail::_Hash_node"* %10), !dbg !3786
  ret void, !dbg !3787
}

; Function Attrs: noinline nounwind uwtable
define linkonce_odr void @_ZNSt16allocator_traitsISaINSt8__detail10_Hash_nodeISt4pairIKijELb0EEEEE7destroyIS4_EEvRS6_PT_(%"class.std::allocator.4"* dereferenceable(1) %0, %"struct.std::pair"* %1) #4 comdat align 2 !dbg !3788 {
  %3 = alloca %"class.std::allocator.4"*, align 8
  %4 = alloca %"struct.std::pair"*, align 8
  store %"class.std::allocator.4"* %0, %"class.std::allocator.4"** %3, align 8
  call void @llvm.dbg.declare(metadata %"class.std::allocator.4"** %3, metadata !3819, metadata !DIExpression()), !dbg !3820
  store %"struct.std::pair"* %1, %"struct.std::pair"** %4, align 8
  call void @llvm.dbg.declare(metadata %"struct.std::pair"** %4, metadata !3821, metadata !DIExpression()), !dbg !3822
  %5 = load %"class.std::allocator.4"*, %"class.std::allocator.4"** %3, align 8, !dbg !3823
  %6 = bitcast %"class.std::allocator.4"* %5 to %"class.__gnu_cxx::new_allocator.5"*, !dbg !3823
  %7 = load %"struct.std::pair"*, %"struct.std::pair"** %4, align 8, !dbg !3824
  call void @_ZN9__gnu_cxx13new_allocatorINSt8__detail10_Hash_nodeISt4pairIKijELb0EEEE7destroyIS5_EEvPT_(%"class.__gnu_cxx::new_allocator.5"* %6, %"struct.std::pair"* %7) #9, !dbg !3825
  ret void, !dbg !3826
}

; Function Attrs: noinline uwtable
define linkonce_odr dereferenceable(1) %"class.std::allocator.4"* @_ZNSt8__detail16_Hashtable_allocISaINS_10_Hash_nodeISt4pairIKijELb0EEEEE17_M_node_allocatorEv(%"struct.std::__detail::_Hashtable_alloc"* %0) #0 comdat align 2 !dbg !3827 {
  %2 = alloca %"struct.std::__detail::_Hashtable_alloc"*, align 8
  store %"struct.std::__detail::_Hashtable_alloc"* %0, %"struct.std::__detail::_Hashtable_alloc"** %2, align 8
  call void @llvm.dbg.declare(metadata %"struct.std::__detail::_Hashtable_alloc"** %2, metadata !3828, metadata !DIExpression()), !dbg !3829
  %3 = load %"struct.std::__detail::_Hashtable_alloc"*, %"struct.std::__detail::_Hashtable_alloc"** %2, align 8
  %4 = bitcast %"struct.std::__detail::_Hashtable_alloc"* %3 to %"struct.std::__detail::_Hashtable_ebo_helper.3"*, !dbg !3830
  %5 = call dereferenceable(1) %"class.std::allocator.4"* @_ZNSt8__detail21_Hashtable_ebo_helperILi0ESaINS_10_Hash_nodeISt4pairIKijELb0EEEELb1EE6_M_getEv(%"struct.std::__detail::_Hashtable_ebo_helper.3"* %4), !dbg !3830
  ret %"class.std::allocator.4"* %5, !dbg !3831
}

; Function Attrs: noinline nounwind uwtable
define linkonce_odr %"struct.std::pair"* @_ZNSt8__detail21_Hash_node_value_baseISt4pairIKijEE9_M_valptrEv(%"struct.std::__detail::_Hash_node_value_base"* %0) #4 comdat align 2 !dbg !3832 {
  %2 = alloca %"struct.std::__detail::_Hash_node_value_base"*, align 8
  store %"struct.std::__detail::_Hash_node_value_base"* %0, %"struct.std::__detail::_Hash_node_value_base"** %2, align 8
  call void @llvm.dbg.declare(metadata %"struct.std::__detail::_Hash_node_value_base"** %2, metadata !3833, metadata !DIExpression()), !dbg !3835
  %3 = load %"struct.std::__detail::_Hash_node_value_base"*, %"struct.std::__detail::_Hash_node_value_base"** %2, align 8
  %4 = getelementptr inbounds %"struct.std::__detail::_Hash_node_value_base", %"struct.std::__detail::_Hash_node_value_base"* %3, i32 0, i32 1, !dbg !3836
  %5 = call %"struct.std::pair"* @_ZN9__gnu_cxx16__aligned_bufferISt4pairIKijEE6_M_ptrEv(%"struct.__gnu_cxx::__aligned_buffer"* %4) #9, !dbg !3837
  ret %"struct.std::pair"* %5, !dbg !3838
}

; Function Attrs: noinline uwtable
define linkonce_odr void @_ZNSt8__detail16_Hashtable_allocISaINS_10_Hash_nodeISt4pairIKijELb0EEEEE22_M_deallocate_node_ptrEPS5_(%"struct.std::__detail::_Hashtable_alloc"* %0, %"struct.std::__detail::_Hash_node"* %1) #0 comdat align 2 !dbg !3839 {
  %3 = alloca %"struct.std::__detail::_Hashtable_alloc"*, align 8
  %4 = alloca %"struct.std::__detail::_Hash_node"*, align 8
  %5 = alloca %"struct.std::__detail::_Hash_node"*, align 8
  store %"struct.std::__detail::_Hashtable_alloc"* %0, %"struct.std::__detail::_Hashtable_alloc"** %3, align 8
  call void @llvm.dbg.declare(metadata %"struct.std::__detail::_Hashtable_alloc"** %3, metadata !3840, metadata !DIExpression()), !dbg !3841
  store %"struct.std::__detail::_Hash_node"* %1, %"struct.std::__detail::_Hash_node"** %4, align 8
  call void @llvm.dbg.declare(metadata %"struct.std::__detail::_Hash_node"** %4, metadata !3842, metadata !DIExpression()), !dbg !3843
  %6 = load %"struct.std::__detail::_Hashtable_alloc"*, %"struct.std::__detail::_Hashtable_alloc"** %3, align 8
  call void @llvm.dbg.declare(metadata %"struct.std::__detail::_Hash_node"** %5, metadata !3844, metadata !DIExpression()), !dbg !3845
  %7 = load %"struct.std::__detail::_Hash_node"*, %"struct.std::__detail::_Hash_node"** %4, align 8, !dbg !3846
  %8 = call %"struct.std::__detail::_Hash_node"* @_ZNSt14pointer_traitsIPNSt8__detail10_Hash_nodeISt4pairIKijELb0EEEE10pointer_toERS5_(%"struct.std::__detail::_Hash_node"* dereferenceable(16) %7) #9, !dbg !3847
  store %"struct.std::__detail::_Hash_node"* %8, %"struct.std::__detail::_Hash_node"** %5, align 8, !dbg !3845
  %9 = load %"struct.std::__detail::_Hash_node"*, %"struct.std::__detail::_Hash_node"** %4, align 8, !dbg !3848
  %10 = call dereferenceable(1) %"class.std::allocator.4"* @_ZNSt8__detail16_Hashtable_allocISaINS_10_Hash_nodeISt4pairIKijELb0EEEEE17_M_node_allocatorEv(%"struct.std::__detail::_Hashtable_alloc"* %6), !dbg !3849
  %11 = load %"struct.std::__detail::_Hash_node"*, %"struct.std::__detail::_Hash_node"** %5, align 8, !dbg !3850
  call void @_ZNSt16allocator_traitsISaINSt8__detail10_Hash_nodeISt4pairIKijELb0EEEEE10deallocateERS6_PS5_m(%"class.std::allocator.4"* dereferenceable(1) %10, %"struct.std::__detail::_Hash_node"* %11, i64 1), !dbg !3851
  ret void, !dbg !3852
}

; Function Attrs: noinline nounwind uwtable
define linkonce_odr void @_ZN9__gnu_cxx13new_allocatorINSt8__detail10_Hash_nodeISt4pairIKijELb0EEEE7destroyIS5_EEvPT_(%"class.__gnu_cxx::new_allocator.5"* %0, %"struct.std::pair"* %1) #4 comdat align 2 !dbg !3853 {
  %3 = alloca %"class.__gnu_cxx::new_allocator.5"*, align 8
  %4 = alloca %"struct.std::pair"*, align 8
  store %"class.__gnu_cxx::new_allocator.5"* %0, %"class.__gnu_cxx::new_allocator.5"** %3, align 8
  call void @llvm.dbg.declare(metadata %"class.__gnu_cxx::new_allocator.5"** %3, metadata !3857, metadata !DIExpression()), !dbg !3858
  store %"struct.std::pair"* %1, %"struct.std::pair"** %4, align 8
  call void @llvm.dbg.declare(metadata %"struct.std::pair"** %4, metadata !3859, metadata !DIExpression()), !dbg !3860
  %5 = load %"class.__gnu_cxx::new_allocator.5"*, %"class.__gnu_cxx::new_allocator.5"** %3, align 8
  %6 = load %"struct.std::pair"*, %"struct.std::pair"** %4, align 8, !dbg !3861
  ret void, !dbg !3862
}

; Function Attrs: noinline nounwind uwtable
define linkonce_odr dereferenceable(1) %"class.std::allocator.4"* @_ZNSt8__detail21_Hashtable_ebo_helperILi0ESaINS_10_Hash_nodeISt4pairIKijELb0EEEELb1EE6_M_getEv(%"struct.std::__detail::_Hashtable_ebo_helper.3"* %0) #4 comdat align 2 !dbg !3863 {
  %2 = alloca %"struct.std::__detail::_Hashtable_ebo_helper.3"*, align 8
  store %"struct.std::__detail::_Hashtable_ebo_helper.3"* %0, %"struct.std::__detail::_Hashtable_ebo_helper.3"** %2, align 8
  call void @llvm.dbg.declare(metadata %"struct.std::__detail::_Hashtable_ebo_helper.3"** %2, metadata !3864, metadata !DIExpression()), !dbg !3865
  %3 = load %"struct.std::__detail::_Hashtable_ebo_helper.3"*, %"struct.std::__detail::_Hashtable_ebo_helper.3"** %2, align 8
  %4 = bitcast %"struct.std::__detail::_Hashtable_ebo_helper.3"* %3 to %"class.std::allocator.4"*, !dbg !3866
  ret %"class.std::allocator.4"* %4, !dbg !3867
}

; Function Attrs: noinline nounwind uwtable
define linkonce_odr %"struct.std::pair"* @_ZN9__gnu_cxx16__aligned_bufferISt4pairIKijEE6_M_ptrEv(%"struct.__gnu_cxx::__aligned_buffer"* %0) #4 comdat align 2 !dbg !3868 {
  %2 = alloca %"struct.__gnu_cxx::__aligned_buffer"*, align 8
  store %"struct.__gnu_cxx::__aligned_buffer"* %0, %"struct.__gnu_cxx::__aligned_buffer"** %2, align 8
  call void @llvm.dbg.declare(metadata %"struct.__gnu_cxx::__aligned_buffer"** %2, metadata !3869, metadata !DIExpression()), !dbg !3871
  %3 = load %"struct.__gnu_cxx::__aligned_buffer"*, %"struct.__gnu_cxx::__aligned_buffer"** %2, align 8
  %4 = call i8* @_ZN9__gnu_cxx16__aligned_bufferISt4pairIKijEE7_M_addrEv(%"struct.__gnu_cxx::__aligned_buffer"* %3) #9, !dbg !3872
  %5 = bitcast i8* %4 to %"struct.std::pair"*, !dbg !3873
  ret %"struct.std::pair"* %5, !dbg !3874
}

; Function Attrs: noinline nounwind uwtable
define linkonce_odr i8* @_ZN9__gnu_cxx16__aligned_bufferISt4pairIKijEE7_M_addrEv(%"struct.__gnu_cxx::__aligned_buffer"* %0) #4 comdat align 2 !dbg !3875 {
  %2 = alloca %"struct.__gnu_cxx::__aligned_buffer"*, align 8
  store %"struct.__gnu_cxx::__aligned_buffer"* %0, %"struct.__gnu_cxx::__aligned_buffer"** %2, align 8
  call void @llvm.dbg.declare(metadata %"struct.__gnu_cxx::__aligned_buffer"** %2, metadata !3876, metadata !DIExpression()), !dbg !3877
  %3 = load %"struct.__gnu_cxx::__aligned_buffer"*, %"struct.__gnu_cxx::__aligned_buffer"** %2, align 8
  %4 = getelementptr inbounds %"struct.__gnu_cxx::__aligned_buffer", %"struct.__gnu_cxx::__aligned_buffer"* %3, i32 0, i32 0, !dbg !3878
  %5 = bitcast %"union.std::aligned_storage<8, 4>::type"* %4 to i8*, !dbg !3879
  ret i8* %5, !dbg !3880
}

; Function Attrs: noinline nounwind uwtable
define linkonce_odr %"struct.std::__detail::_Hash_node"* @_ZNSt14pointer_traitsIPNSt8__detail10_Hash_nodeISt4pairIKijELb0EEEE10pointer_toERS5_(%"struct.std::__detail::_Hash_node"* dereferenceable(16) %0) #4 comdat align 2 !dbg !3881 {
  %2 = alloca %"struct.std::__detail::_Hash_node"*, align 8
  store %"struct.std::__detail::_Hash_node"* %0, %"struct.std::__detail::_Hash_node"** %2, align 8
  call void @llvm.dbg.declare(metadata %"struct.std::__detail::_Hash_node"** %2, metadata !3899, metadata !DIExpression()), !dbg !3900
  %3 = load %"struct.std::__detail::_Hash_node"*, %"struct.std::__detail::_Hash_node"** %2, align 8, !dbg !3901
  %4 = call %"struct.std::__detail::_Hash_node"* @_ZSt9addressofINSt8__detail10_Hash_nodeISt4pairIKijELb0EEEEPT_RS6_(%"struct.std::__detail::_Hash_node"* dereferenceable(16) %3) #9, !dbg !3902
  ret %"struct.std::__detail::_Hash_node"* %4, !dbg !3903
}

; Function Attrs: noinline uwtable
define linkonce_odr void @_ZNSt16allocator_traitsISaINSt8__detail10_Hash_nodeISt4pairIKijELb0EEEEE10deallocateERS6_PS5_m(%"class.std::allocator.4"* dereferenceable(1) %0, %"struct.std::__detail::_Hash_node"* %1, i64 %2) #0 comdat align 2 !dbg !3904 {
  %4 = alloca %"class.std::allocator.4"*, align 8
  %5 = alloca %"struct.std::__detail::_Hash_node"*, align 8
  %6 = alloca i64, align 8
  store %"class.std::allocator.4"* %0, %"class.std::allocator.4"** %4, align 8
  call void @llvm.dbg.declare(metadata %"class.std::allocator.4"** %4, metadata !3905, metadata !DIExpression()), !dbg !3906
  store %"struct.std::__detail::_Hash_node"* %1, %"struct.std::__detail::_Hash_node"** %5, align 8
  call void @llvm.dbg.declare(metadata %"struct.std::__detail::_Hash_node"** %5, metadata !3907, metadata !DIExpression()), !dbg !3908
  store i64 %2, i64* %6, align 8
  call void @llvm.dbg.declare(metadata i64* %6, metadata !3909, metadata !DIExpression()), !dbg !3910
  %7 = load %"class.std::allocator.4"*, %"class.std::allocator.4"** %4, align 8, !dbg !3911
  %8 = bitcast %"class.std::allocator.4"* %7 to %"class.__gnu_cxx::new_allocator.5"*, !dbg !3911
  %9 = load %"struct.std::__detail::_Hash_node"*, %"struct.std::__detail::_Hash_node"** %5, align 8, !dbg !3912
  %10 = load i64, i64* %6, align 8, !dbg !3913
  call void @_ZN9__gnu_cxx13new_allocatorINSt8__detail10_Hash_nodeISt4pairIKijELb0EEEE10deallocateEPS6_m(%"class.__gnu_cxx::new_allocator.5"* %8, %"struct.std::__detail::_Hash_node"* %9, i64 %10), !dbg !3914
  ret void, !dbg !3915
}

; Function Attrs: noinline nounwind uwtable
define linkonce_odr %"struct.std::__detail::_Hash_node"* @_ZSt9addressofINSt8__detail10_Hash_nodeISt4pairIKijELb0EEEEPT_RS6_(%"struct.std::__detail::_Hash_node"* dereferenceable(16) %0) #4 comdat !dbg !3916 {
  %2 = alloca %"struct.std::__detail::_Hash_node"*, align 8
  store %"struct.std::__detail::_Hash_node"* %0, %"struct.std::__detail::_Hash_node"** %2, align 8
  call void @llvm.dbg.declare(metadata %"struct.std::__detail::_Hash_node"** %2, metadata !3920, metadata !DIExpression()), !dbg !3921
  %3 = load %"struct.std::__detail::_Hash_node"*, %"struct.std::__detail::_Hash_node"** %2, align 8, !dbg !3922
  %4 = call %"struct.std::__detail::_Hash_node"* @_ZSt11__addressofINSt8__detail10_Hash_nodeISt4pairIKijELb0EEEEPT_RS6_(%"struct.std::__detail::_Hash_node"* dereferenceable(16) %3) #9, !dbg !3923
  ret %"struct.std::__detail::_Hash_node"* %4, !dbg !3924
}

; Function Attrs: noinline nounwind uwtable
define linkonce_odr %"struct.std::__detail::_Hash_node"* @_ZSt11__addressofINSt8__detail10_Hash_nodeISt4pairIKijELb0EEEEPT_RS6_(%"struct.std::__detail::_Hash_node"* dereferenceable(16) %0) #4 comdat !dbg !3925 {
  %2 = alloca %"struct.std::__detail::_Hash_node"*, align 8
  store %"struct.std::__detail::_Hash_node"* %0, %"struct.std::__detail::_Hash_node"** %2, align 8
  call void @llvm.dbg.declare(metadata %"struct.std::__detail::_Hash_node"** %2, metadata !3926, metadata !DIExpression()), !dbg !3927
  %3 = load %"struct.std::__detail::_Hash_node"*, %"struct.std::__detail::_Hash_node"** %2, align 8, !dbg !3928
  ret %"struct.std::__detail::_Hash_node"* %3, !dbg !3929
}

; Function Attrs: noinline nounwind uwtable
define linkonce_odr void @_ZN9__gnu_cxx13new_allocatorINSt8__detail10_Hash_nodeISt4pairIKijELb0EEEE10deallocateEPS6_m(%"class.__gnu_cxx::new_allocator.5"* %0, %"struct.std::__detail::_Hash_node"* %1, i64 %2) #4 comdat align 2 !dbg !3930 {
  %4 = alloca %"class.__gnu_cxx::new_allocator.5"*, align 8
  %5 = alloca %"struct.std::__detail::_Hash_node"*, align 8
  %6 = alloca i64, align 8
  store %"class.__gnu_cxx::new_allocator.5"* %0, %"class.__gnu_cxx::new_allocator.5"** %4, align 8
  call void @llvm.dbg.declare(metadata %"class.__gnu_cxx::new_allocator.5"** %4, metadata !3931, metadata !DIExpression()), !dbg !3932
  store %"struct.std::__detail::_Hash_node"* %1, %"struct.std::__detail::_Hash_node"** %5, align 8
  call void @llvm.dbg.declare(metadata %"struct.std::__detail::_Hash_node"** %5, metadata !3933, metadata !DIExpression()), !dbg !3934
  store i64 %2, i64* %6, align 8
  call void @llvm.dbg.declare(metadata i64* %6, metadata !3935, metadata !DIExpression()), !dbg !3936
  %7 = load %"class.__gnu_cxx::new_allocator.5"*, %"class.__gnu_cxx::new_allocator.5"** %4, align 8
  %8 = load %"struct.std::__detail::_Hash_node"*, %"struct.std::__detail::_Hash_node"** %5, align 8, !dbg !3937
  %9 = bitcast %"struct.std::__detail::_Hash_node"* %8 to i8*, !dbg !3937
  call void @_ZdlPv(i8* %9) #9, !dbg !3938
  ret void, !dbg !3939
}

; Function Attrs: nobuiltin nounwind
declare void @_ZdlPv(i8*) #6

; Function Attrs: noinline uwtable
define linkonce_odr void @_ZNSt10_HashtableIiSt4pairIKijESaIS2_ENSt8__detail10_Select1stESt8equal_toIiESt4hashIiENS4_18_Mod_range_hashingENS4_20_Default_ranged_hashENS4_20_Prime_rehash_policyENS4_17_Hashtable_traitsILb0ELb0ELb1EEEE21_M_deallocate_bucketsEPPNS4_15_Hash_node_baseEm(%"class.std::_Hashtable"* %0, %"struct.std::__detail::_Hash_node_base"** %1, i64 %2) #0 comdat align 2 !dbg !3940 {
  %4 = alloca %"class.std::_Hashtable"*, align 8
  %5 = alloca %"struct.std::__detail::_Hash_node_base"**, align 8
  %6 = alloca i64, align 8
  store %"class.std::_Hashtable"* %0, %"class.std::_Hashtable"** %4, align 8
  call void @llvm.dbg.declare(metadata %"class.std::_Hashtable"** %4, metadata !3941, metadata !DIExpression()), !dbg !3942
  store %"struct.std::__detail::_Hash_node_base"** %1, %"struct.std::__detail::_Hash_node_base"*** %5, align 8
  call void @llvm.dbg.declare(metadata %"struct.std::__detail::_Hash_node_base"*** %5, metadata !3943, metadata !DIExpression()), !dbg !3944
  store i64 %2, i64* %6, align 8
  call void @llvm.dbg.declare(metadata i64* %6, metadata !3945, metadata !DIExpression()), !dbg !3946
  %7 = load %"class.std::_Hashtable"*, %"class.std::_Hashtable"** %4, align 8
  %8 = load %"struct.std::__detail::_Hash_node_base"**, %"struct.std::__detail::_Hash_node_base"*** %5, align 8, !dbg !3947
  %9 = call zeroext i1 @_ZNKSt10_HashtableIiSt4pairIKijESaIS2_ENSt8__detail10_Select1stESt8equal_toIiESt4hashIiENS4_18_Mod_range_hashingENS4_20_Default_ranged_hashENS4_20_Prime_rehash_policyENS4_17_Hashtable_traitsILb0ELb0ELb1EEEE21_M_uses_single_bucketEPPNS4_15_Hash_node_baseE(%"class.std::_Hashtable"* %7, %"struct.std::__detail::_Hash_node_base"** %8), !dbg !3949
  br i1 %9, label %10, label %11, !dbg !3950

10:                                               ; preds = %3
  br label %15, !dbg !3951

11:                                               ; preds = %3
  %12 = bitcast %"class.std::_Hashtable"* %7 to %"struct.std::__detail::_Hashtable_alloc"*, !dbg !3952
  %13 = load %"struct.std::__detail::_Hash_node_base"**, %"struct.std::__detail::_Hash_node_base"*** %5, align 8, !dbg !3953
  %14 = load i64, i64* %6, align 8, !dbg !3954
  call void @_ZNSt8__detail16_Hashtable_allocISaINS_10_Hash_nodeISt4pairIKijELb0EEEEE21_M_deallocate_bucketsEPPNS_15_Hash_node_baseEm(%"struct.std::__detail::_Hashtable_alloc"* %12, %"struct.std::__detail::_Hash_node_base"** %13, i64 %14), !dbg !3952
  br label %15, !dbg !3955

15:                                               ; preds = %11, %10
  ret void, !dbg !3955
}

; Function Attrs: noinline nounwind uwtable
define linkonce_odr zeroext i1 @_ZNKSt10_HashtableIiSt4pairIKijESaIS2_ENSt8__detail10_Select1stESt8equal_toIiESt4hashIiENS4_18_Mod_range_hashingENS4_20_Default_ranged_hashENS4_20_Prime_rehash_policyENS4_17_Hashtable_traitsILb0ELb0ELb1EEEE21_M_uses_single_bucketEPPNS4_15_Hash_node_baseE(%"class.std::_Hashtable"* %0, %"struct.std::__detail::_Hash_node_base"** %1) #4 comdat align 2 !dbg !3956 {
  %3 = alloca %"class.std::_Hashtable"*, align 8
  %4 = alloca %"struct.std::__detail::_Hash_node_base"**, align 8
  store %"class.std::_Hashtable"* %0, %"class.std::_Hashtable"** %3, align 8
  call void @llvm.dbg.declare(metadata %"class.std::_Hashtable"** %3, metadata !3957, metadata !DIExpression()), !dbg !3958
  store %"struct.std::__detail::_Hash_node_base"** %1, %"struct.std::__detail::_Hash_node_base"*** %4, align 8
  call void @llvm.dbg.declare(metadata %"struct.std::__detail::_Hash_node_base"*** %4, metadata !3959, metadata !DIExpression()), !dbg !3960
  %5 = load %"class.std::_Hashtable"*, %"class.std::_Hashtable"** %3, align 8
  %6 = load %"struct.std::__detail::_Hash_node_base"**, %"struct.std::__detail::_Hash_node_base"*** %4, align 8, !dbg !3961
  %7 = getelementptr inbounds %"class.std::_Hashtable", %"class.std::_Hashtable"* %5, i32 0, i32 5, !dbg !3962
  %8 = icmp eq %"struct.std::__detail::_Hash_node_base"** %6, %7, !dbg !3963
  ret i1 %8, !dbg !3964
}

; Function Attrs: noinline uwtable
define linkonce_odr void @_ZNSt8__detail16_Hashtable_allocISaINS_10_Hash_nodeISt4pairIKijELb0EEEEE21_M_deallocate_bucketsEPPNS_15_Hash_node_baseEm(%"struct.std::__detail::_Hashtable_alloc"* %0, %"struct.std::__detail::_Hash_node_base"** %1, i64 %2) #0 comdat align 2 personality i8* bitcast (i32 (...)* @__gxx_personality_v0 to i8*) !dbg !3965 {
  %4 = alloca %"struct.std::__detail::_Hashtable_alloc"*, align 8
  %5 = alloca %"struct.std::__detail::_Hash_node_base"**, align 8
  %6 = alloca i64, align 8
  %7 = alloca %"struct.std::__detail::_Hash_node_base"**, align 8
  %8 = alloca %"class.std::allocator.7", align 1
  %9 = alloca i8*
  %10 = alloca i32
  store %"struct.std::__detail::_Hashtable_alloc"* %0, %"struct.std::__detail::_Hashtable_alloc"** %4, align 8
  call void @llvm.dbg.declare(metadata %"struct.std::__detail::_Hashtable_alloc"** %4, metadata !3966, metadata !DIExpression()), !dbg !3967
  store %"struct.std::__detail::_Hash_node_base"** %1, %"struct.std::__detail::_Hash_node_base"*** %5, align 8
  call void @llvm.dbg.declare(metadata %"struct.std::__detail::_Hash_node_base"*** %5, metadata !3968, metadata !DIExpression()), !dbg !3969
  store i64 %2, i64* %6, align 8
  call void @llvm.dbg.declare(metadata i64* %6, metadata !3970, metadata !DIExpression()), !dbg !3971
  %11 = load %"struct.std::__detail::_Hashtable_alloc"*, %"struct.std::__detail::_Hashtable_alloc"** %4, align 8
  call void @llvm.dbg.declare(metadata %"struct.std::__detail::_Hash_node_base"*** %7, metadata !3972, metadata !DIExpression()), !dbg !3973
  %12 = load %"struct.std::__detail::_Hash_node_base"**, %"struct.std::__detail::_Hash_node_base"*** %5, align 8, !dbg !3974
  %13 = call %"struct.std::__detail::_Hash_node_base"** @_ZNSt14pointer_traitsIPPNSt8__detail15_Hash_node_baseEE10pointer_toERS2_(%"struct.std::__detail::_Hash_node_base"** dereferenceable(8) %12) #9, !dbg !3975
  store %"struct.std::__detail::_Hash_node_base"** %13, %"struct.std::__detail::_Hash_node_base"*** %7, align 8, !dbg !3973
  call void @llvm.dbg.declare(metadata %"class.std::allocator.7"* %8, metadata !3976, metadata !DIExpression()), !dbg !4046
  %14 = call dereferenceable(1) %"class.std::allocator.4"* @_ZNSt8__detail16_Hashtable_allocISaINS_10_Hash_nodeISt4pairIKijELb0EEEEE17_M_node_allocatorEv(%"struct.std::__detail::_Hashtable_alloc"* %11), !dbg !4047
  call void @_ZNSaIPNSt8__detail15_Hash_node_baseEEC2INS_10_Hash_nodeISt4pairIKijELb0EEEEERKSaIT_E(%"class.std::allocator.7"* %8, %"class.std::allocator.4"* dereferenceable(1) %14) #9, !dbg !4046
  %15 = load %"struct.std::__detail::_Hash_node_base"**, %"struct.std::__detail::_Hash_node_base"*** %7, align 8, !dbg !4048
  %16 = load i64, i64* %6, align 8, !dbg !4049
  invoke void @_ZNSt16allocator_traitsISaIPNSt8__detail15_Hash_node_baseEEE10deallocateERS3_PS2_m(%"class.std::allocator.7"* dereferenceable(1) %8, %"struct.std::__detail::_Hash_node_base"** %15, i64 %16)
          to label %17 unwind label %18, !dbg !4050

17:                                               ; preds = %3
  call void @_ZNSaIPNSt8__detail15_Hash_node_baseEED2Ev(%"class.std::allocator.7"* %8) #9, !dbg !4051
  ret void, !dbg !4051

18:                                               ; preds = %3
  %19 = landingpad { i8*, i32 }
          cleanup, !dbg !4051
  %20 = extractvalue { i8*, i32 } %19, 0, !dbg !4051
  store i8* %20, i8** %9, align 8, !dbg !4051
  %21 = extractvalue { i8*, i32 } %19, 1, !dbg !4051
  store i32 %21, i32* %10, align 4, !dbg !4051
  call void @_ZNSaIPNSt8__detail15_Hash_node_baseEED2Ev(%"class.std::allocator.7"* %8) #9, !dbg !4051
  br label %22, !dbg !4051

22:                                               ; preds = %18
  %23 = load i8*, i8** %9, align 8, !dbg !4051
  %24 = load i32, i32* %10, align 4, !dbg !4051
  %25 = insertvalue { i8*, i32 } undef, i8* %23, 0, !dbg !4051
  %26 = insertvalue { i8*, i32 } %25, i32 %24, 1, !dbg !4051
  resume { i8*, i32 } %26, !dbg !4051
}

; Function Attrs: noinline nounwind uwtable
define linkonce_odr %"struct.std::__detail::_Hash_node_base"** @_ZNSt14pointer_traitsIPPNSt8__detail15_Hash_node_baseEE10pointer_toERS2_(%"struct.std::__detail::_Hash_node_base"** dereferenceable(8) %0) #4 comdat align 2 !dbg !4052 {
  %2 = alloca %"struct.std::__detail::_Hash_node_base"**, align 8
  store %"struct.std::__detail::_Hash_node_base"** %0, %"struct.std::__detail::_Hash_node_base"*** %2, align 8
  call void @llvm.dbg.declare(metadata %"struct.std::__detail::_Hash_node_base"*** %2, metadata !4067, metadata !DIExpression()), !dbg !4068
  %3 = load %"struct.std::__detail::_Hash_node_base"**, %"struct.std::__detail::_Hash_node_base"*** %2, align 8, !dbg !4069
  %4 = call %"struct.std::__detail::_Hash_node_base"** @_ZSt9addressofIPNSt8__detail15_Hash_node_baseEEPT_RS3_(%"struct.std::__detail::_Hash_node_base"** dereferenceable(8) %3) #9, !dbg !4070
  ret %"struct.std::__detail::_Hash_node_base"** %4, !dbg !4071
}

; Function Attrs: noinline nounwind uwtable
define linkonce_odr void @_ZNSaIPNSt8__detail15_Hash_node_baseEEC2INS_10_Hash_nodeISt4pairIKijELb0EEEEERKSaIT_E(%"class.std::allocator.7"* %0, %"class.std::allocator.4"* dereferenceable(1) %1) unnamed_addr #4 comdat align 2 !dbg !4072 {
  %3 = alloca %"class.std::allocator.7"*, align 8
  %4 = alloca %"class.std::allocator.4"*, align 8
  store %"class.std::allocator.7"* %0, %"class.std::allocator.7"** %3, align 8
  call void @llvm.dbg.declare(metadata %"class.std::allocator.7"** %3, metadata !4078, metadata !DIExpression()), !dbg !4080
  store %"class.std::allocator.4"* %1, %"class.std::allocator.4"** %4, align 8
  call void @llvm.dbg.declare(metadata %"class.std::allocator.4"** %4, metadata !4081, metadata !DIExpression()), !dbg !4082
  %5 = load %"class.std::allocator.7"*, %"class.std::allocator.7"** %3, align 8
  %6 = bitcast %"class.std::allocator.7"* %5 to %"class.__gnu_cxx::new_allocator.8"*, !dbg !4083
  call void @_ZN9__gnu_cxx13new_allocatorIPNSt8__detail15_Hash_node_baseEEC2Ev(%"class.__gnu_cxx::new_allocator.8"* %6) #9, !dbg !4084
  ret void, !dbg !4085
}

; Function Attrs: noinline uwtable
define linkonce_odr void @_ZNSt16allocator_traitsISaIPNSt8__detail15_Hash_node_baseEEE10deallocateERS3_PS2_m(%"class.std::allocator.7"* dereferenceable(1) %0, %"struct.std::__detail::_Hash_node_base"** %1, i64 %2) #0 comdat align 2 !dbg !4086 {
  %4 = alloca %"class.std::allocator.7"*, align 8
  %5 = alloca %"struct.std::__detail::_Hash_node_base"**, align 8
  %6 = alloca i64, align 8
  store %"class.std::allocator.7"* %0, %"class.std::allocator.7"** %4, align 8
  call void @llvm.dbg.declare(metadata %"class.std::allocator.7"** %4, metadata !4112, metadata !DIExpression()), !dbg !4113
  store %"struct.std::__detail::_Hash_node_base"** %1, %"struct.std::__detail::_Hash_node_base"*** %5, align 8
  call void @llvm.dbg.declare(metadata %"struct.std::__detail::_Hash_node_base"*** %5, metadata !4114, metadata !DIExpression()), !dbg !4115
  store i64 %2, i64* %6, align 8
  call void @llvm.dbg.declare(metadata i64* %6, metadata !4116, metadata !DIExpression()), !dbg !4117
  %7 = load %"class.std::allocator.7"*, %"class.std::allocator.7"** %4, align 8, !dbg !4118
  %8 = bitcast %"class.std::allocator.7"* %7 to %"class.__gnu_cxx::new_allocator.8"*, !dbg !4118
  %9 = load %"struct.std::__detail::_Hash_node_base"**, %"struct.std::__detail::_Hash_node_base"*** %5, align 8, !dbg !4119
  %10 = load i64, i64* %6, align 8, !dbg !4120
  call void @_ZN9__gnu_cxx13new_allocatorIPNSt8__detail15_Hash_node_baseEE10deallocateEPS3_m(%"class.__gnu_cxx::new_allocator.8"* %8, %"struct.std::__detail::_Hash_node_base"** %9, i64 %10), !dbg !4121
  ret void, !dbg !4122
}

; Function Attrs: noinline nounwind uwtable
define linkonce_odr void @_ZNSaIPNSt8__detail15_Hash_node_baseEED2Ev(%"class.std::allocator.7"* %0) unnamed_addr #4 comdat align 2 !dbg !4123 {
  %2 = alloca %"class.std::allocator.7"*, align 8
  store %"class.std::allocator.7"* %0, %"class.std::allocator.7"** %2, align 8
  call void @llvm.dbg.declare(metadata %"class.std::allocator.7"** %2, metadata !4124, metadata !DIExpression()), !dbg !4125
  %3 = load %"class.std::allocator.7"*, %"class.std::allocator.7"** %2, align 8
  %4 = bitcast %"class.std::allocator.7"* %3 to %"class.__gnu_cxx::new_allocator.8"*, !dbg !4126
  call void @_ZN9__gnu_cxx13new_allocatorIPNSt8__detail15_Hash_node_baseEED2Ev(%"class.__gnu_cxx::new_allocator.8"* %4) #9, !dbg !4126
  ret void, !dbg !4128
}

; Function Attrs: noinline nounwind uwtable
define linkonce_odr %"struct.std::__detail::_Hash_node_base"** @_ZSt9addressofIPNSt8__detail15_Hash_node_baseEEPT_RS3_(%"struct.std::__detail::_Hash_node_base"** dereferenceable(8) %0) #4 comdat !dbg !4129 {
  %2 = alloca %"struct.std::__detail::_Hash_node_base"**, align 8
  store %"struct.std::__detail::_Hash_node_base"** %0, %"struct.std::__detail::_Hash_node_base"*** %2, align 8
  call void @llvm.dbg.declare(metadata %"struct.std::__detail::_Hash_node_base"*** %2, metadata !4132, metadata !DIExpression()), !dbg !4133
  %3 = load %"struct.std::__detail::_Hash_node_base"**, %"struct.std::__detail::_Hash_node_base"*** %2, align 8, !dbg !4134
  %4 = call %"struct.std::__detail::_Hash_node_base"** @_ZSt11__addressofIPNSt8__detail15_Hash_node_baseEEPT_RS3_(%"struct.std::__detail::_Hash_node_base"** dereferenceable(8) %3) #9, !dbg !4135
  ret %"struct.std::__detail::_Hash_node_base"** %4, !dbg !4136
}

; Function Attrs: noinline nounwind uwtable
define linkonce_odr %"struct.std::__detail::_Hash_node_base"** @_ZSt11__addressofIPNSt8__detail15_Hash_node_baseEEPT_RS3_(%"struct.std::__detail::_Hash_node_base"** dereferenceable(8) %0) #4 comdat !dbg !4137 {
  %2 = alloca %"struct.std::__detail::_Hash_node_base"**, align 8
  store %"struct.std::__detail::_Hash_node_base"** %0, %"struct.std::__detail::_Hash_node_base"*** %2, align 8
  call void @llvm.dbg.declare(metadata %"struct.std::__detail::_Hash_node_base"*** %2, metadata !4138, metadata !DIExpression()), !dbg !4139
  %3 = load %"struct.std::__detail::_Hash_node_base"**, %"struct.std::__detail::_Hash_node_base"*** %2, align 8, !dbg !4140
  ret %"struct.std::__detail::_Hash_node_base"** %3, !dbg !4141
}

; Function Attrs: noinline nounwind uwtable
define linkonce_odr void @_ZN9__gnu_cxx13new_allocatorIPNSt8__detail15_Hash_node_baseEEC2Ev(%"class.__gnu_cxx::new_allocator.8"* %0) unnamed_addr #4 comdat align 2 !dbg !4142 {
  %2 = alloca %"class.__gnu_cxx::new_allocator.8"*, align 8
  store %"class.__gnu_cxx::new_allocator.8"* %0, %"class.__gnu_cxx::new_allocator.8"** %2, align 8
  call void @llvm.dbg.declare(metadata %"class.__gnu_cxx::new_allocator.8"** %2, metadata !4143, metadata !DIExpression()), !dbg !4145
  %3 = load %"class.__gnu_cxx::new_allocator.8"*, %"class.__gnu_cxx::new_allocator.8"** %2, align 8
  ret void, !dbg !4146
}

; Function Attrs: noinline nounwind uwtable
define linkonce_odr void @_ZN9__gnu_cxx13new_allocatorIPNSt8__detail15_Hash_node_baseEE10deallocateEPS3_m(%"class.__gnu_cxx::new_allocator.8"* %0, %"struct.std::__detail::_Hash_node_base"** %1, i64 %2) #4 comdat align 2 !dbg !4147 {
  %4 = alloca %"class.__gnu_cxx::new_allocator.8"*, align 8
  %5 = alloca %"struct.std::__detail::_Hash_node_base"**, align 8
  %6 = alloca i64, align 8
  store %"class.__gnu_cxx::new_allocator.8"* %0, %"class.__gnu_cxx::new_allocator.8"** %4, align 8
  call void @llvm.dbg.declare(metadata %"class.__gnu_cxx::new_allocator.8"** %4, metadata !4148, metadata !DIExpression()), !dbg !4149
  store %"struct.std::__detail::_Hash_node_base"** %1, %"struct.std::__detail::_Hash_node_base"*** %5, align 8
  call void @llvm.dbg.declare(metadata %"struct.std::__detail::_Hash_node_base"*** %5, metadata !4150, metadata !DIExpression()), !dbg !4151
  store i64 %2, i64* %6, align 8
  call void @llvm.dbg.declare(metadata i64* %6, metadata !4152, metadata !DIExpression()), !dbg !4153
  %7 = load %"class.__gnu_cxx::new_allocator.8"*, %"class.__gnu_cxx::new_allocator.8"** %4, align 8
  %8 = load %"struct.std::__detail::_Hash_node_base"**, %"struct.std::__detail::_Hash_node_base"*** %5, align 8, !dbg !4154
  %9 = bitcast %"struct.std::__detail::_Hash_node_base"** %8 to i8*, !dbg !4154
  call void @_ZdlPv(i8* %9) #9, !dbg !4155
  ret void, !dbg !4156
}

; Function Attrs: noinline nounwind uwtable
define linkonce_odr void @_ZN9__gnu_cxx13new_allocatorIPNSt8__detail15_Hash_node_baseEED2Ev(%"class.__gnu_cxx::new_allocator.8"* %0) unnamed_addr #4 comdat align 2 !dbg !4157 {
  %2 = alloca %"class.__gnu_cxx::new_allocator.8"*, align 8
  store %"class.__gnu_cxx::new_allocator.8"* %0, %"class.__gnu_cxx::new_allocator.8"** %2, align 8
  call void @llvm.dbg.declare(metadata %"class.__gnu_cxx::new_allocator.8"** %2, metadata !4158, metadata !DIExpression()), !dbg !4159
  %3 = load %"class.__gnu_cxx::new_allocator.8"*, %"class.__gnu_cxx::new_allocator.8"** %2, align 8
  ret void, !dbg !4160
}

; Function Attrs: noinline nounwind uwtable
define linkonce_odr void @_ZNSt8__detail21_Hashtable_ebo_helperILi0ESaINS_10_Hash_nodeISt4pairIKijELb0EEEELb1EED2Ev(%"struct.std::__detail::_Hashtable_ebo_helper.3"* %0) unnamed_addr #4 comdat align 2 !dbg !4161 {
  %2 = alloca %"struct.std::__detail::_Hashtable_ebo_helper.3"*, align 8
  store %"struct.std::__detail::_Hashtable_ebo_helper.3"* %0, %"struct.std::__detail::_Hashtable_ebo_helper.3"** %2, align 8
  call void @llvm.dbg.declare(metadata %"struct.std::__detail::_Hashtable_ebo_helper.3"** %2, metadata !4163, metadata !DIExpression()), !dbg !4164
  %3 = load %"struct.std::__detail::_Hashtable_ebo_helper.3"*, %"struct.std::__detail::_Hashtable_ebo_helper.3"** %2, align 8
  %4 = bitcast %"struct.std::__detail::_Hashtable_ebo_helper.3"* %3 to %"class.std::allocator.4"*, !dbg !4165
  call void @_ZNSaINSt8__detail10_Hash_nodeISt4pairIKijELb0EEEED2Ev(%"class.std::allocator.4"* %4) #9, !dbg !4165
  ret void, !dbg !4167
}

; Function Attrs: noinline nounwind uwtable
define linkonce_odr void @_ZNSaINSt8__detail10_Hash_nodeISt4pairIKijELb0EEEED2Ev(%"class.std::allocator.4"* %0) unnamed_addr #4 comdat align 2 !dbg !4168 {
  %2 = alloca %"class.std::allocator.4"*, align 8
  store %"class.std::allocator.4"* %0, %"class.std::allocator.4"** %2, align 8
  call void @llvm.dbg.declare(metadata %"class.std::allocator.4"** %2, metadata !4169, metadata !DIExpression()), !dbg !4170
  %3 = load %"class.std::allocator.4"*, %"class.std::allocator.4"** %2, align 8
  %4 = bitcast %"class.std::allocator.4"* %3 to %"class.__gnu_cxx::new_allocator.5"*, !dbg !4171
  call void @_ZN9__gnu_cxx13new_allocatorINSt8__detail10_Hash_nodeISt4pairIKijELb0EEEED2Ev(%"class.__gnu_cxx::new_allocator.5"* %4) #9, !dbg !4171
  ret void, !dbg !4173
}

; Function Attrs: noinline nounwind uwtable
define linkonce_odr void @_ZN9__gnu_cxx13new_allocatorINSt8__detail10_Hash_nodeISt4pairIKijELb0EEEED2Ev(%"class.__gnu_cxx::new_allocator.5"* %0) unnamed_addr #4 comdat align 2 !dbg !4174 {
  %2 = alloca %"class.__gnu_cxx::new_allocator.5"*, align 8
  store %"class.__gnu_cxx::new_allocator.5"* %0, %"class.__gnu_cxx::new_allocator.5"** %2, align 8
  call void @llvm.dbg.declare(metadata %"class.__gnu_cxx::new_allocator.5"** %2, metadata !4175, metadata !DIExpression()), !dbg !4176
  %3 = load %"class.__gnu_cxx::new_allocator.5"*, %"class.__gnu_cxx::new_allocator.5"** %2, align 8
  ret void, !dbg !4177
}

; Function Attrs: noinline uwtable
define linkonce_odr void @_ZNSt7__cxx1112basic_stringIcSt11char_traitsIcESaIcEE12_M_constructIPKcEEvT_S8_(%"class.std::__cxx11::basic_string"* %0, i8* %1, i8* %2) #0 comdat align 2 !dbg !4178 {
  %4 = alloca %"class.std::__cxx11::basic_string"*, align 8
  %5 = alloca i8*, align 8
  %6 = alloca i8*, align 8
  %7 = alloca %"struct.std::__false_type", align 1
  store %"class.std::__cxx11::basic_string"* %0, %"class.std::__cxx11::basic_string"** %4, align 8
  call void @llvm.dbg.declare(metadata %"class.std::__cxx11::basic_string"** %4, metadata !4184, metadata !DIExpression()), !dbg !4185
  store i8* %1, i8** %5, align 8
  call void @llvm.dbg.declare(metadata i8** %5, metadata !4186, metadata !DIExpression()), !dbg !4187
  store i8* %2, i8** %6, align 8
  call void @llvm.dbg.declare(metadata i8** %6, metadata !4188, metadata !DIExpression()), !dbg !4189
  %8 = load %"class.std::__cxx11::basic_string"*, %"class.std::__cxx11::basic_string"** %4, align 8
  %9 = load i8*, i8** %5, align 8, !dbg !4190
  %10 = load i8*, i8** %6, align 8, !dbg !4191
  call void @_ZNSt7__cxx1112basic_stringIcSt11char_traitsIcESaIcEE16_M_construct_auxIPKcEEvT_S8_St12__false_type(%"class.std::__cxx11::basic_string"* %8, i8* %9, i8* %10), !dbg !4192
  ret void, !dbg !4193
}

; Function Attrs: noinline uwtable
define linkonce_odr i64 @_ZNSt11char_traitsIcE6lengthEPKc(i8* %0) #0 comdat align 2 !dbg !4194 {
  %2 = alloca i8*, align 8
  call void @llvm.dbg.declare(metadata i8** %2, metadata !4247, metadata !DIExpression()), !dbg !4251
  %3 = alloca i64, align 8
  %4 = alloca i8*, align 8
  store i8* %0, i8** %4, align 8
  call void @llvm.dbg.declare(metadata i8** %4, metadata !4254, metadata !DIExpression()), !dbg !4255
  %5 = load i8*, i8** %4, align 8, !dbg !4256
  store i8* %5, i8** %2, align 8
  br i1 false, label %6, label %9, !dbg !4257

6:                                                ; preds = %1
  %7 = load i8*, i8** %4, align 8, !dbg !4258
  %8 = call i64 @_ZN9__gnu_cxx11char_traitsIcE6lengthEPKc(i8* %7), !dbg !4259
  store i64 %8, i64* %3, align 8, !dbg !4260
  br label %12, !dbg !4260

9:                                                ; preds = %1
  %10 = load i8*, i8** %4, align 8, !dbg !4261
  %11 = call i64 @strlen(i8* %10) #9, !dbg !4262
  store i64 %11, i64* %3, align 8, !dbg !4263
  br label %12, !dbg !4263

12:                                               ; preds = %9, %6
  %13 = load i64, i64* %3, align 8, !dbg !4264
  ret i64 %13, !dbg !4264
}

; Function Attrs: noinline uwtable
define linkonce_odr void @_ZNSt7__cxx1112basic_stringIcSt11char_traitsIcESaIcEE16_M_construct_auxIPKcEEvT_S8_St12__false_type(%"class.std::__cxx11::basic_string"* %0, i8* %1, i8* %2) #0 comdat align 2 !dbg !4265 {
  %4 = alloca %"struct.std::__false_type", align 1
  %5 = alloca %"class.std::__cxx11::basic_string"*, align 8
  %6 = alloca i8*, align 8
  %7 = alloca i8*, align 8
  %8 = alloca %"struct.std::forward_iterator_tag", align 1
  %9 = alloca %"struct.std::random_access_iterator_tag", align 1
  store %"class.std::__cxx11::basic_string"* %0, %"class.std::__cxx11::basic_string"** %5, align 8
  call void @llvm.dbg.declare(metadata %"class.std::__cxx11::basic_string"** %5, metadata !4271, metadata !DIExpression()), !dbg !4272
  store i8* %1, i8** %6, align 8
  call void @llvm.dbg.declare(metadata i8** %6, metadata !4273, metadata !DIExpression()), !dbg !4274
  store i8* %2, i8** %7, align 8
  call void @llvm.dbg.declare(metadata i8** %7, metadata !4275, metadata !DIExpression()), !dbg !4276
  call void @llvm.dbg.declare(metadata %"struct.std::__false_type"* %4, metadata !4277, metadata !DIExpression()), !dbg !4278
  %10 = load %"class.std::__cxx11::basic_string"*, %"class.std::__cxx11::basic_string"** %5, align 8
  %11 = load i8*, i8** %6, align 8, !dbg !4279
  %12 = load i8*, i8** %7, align 8, !dbg !4280
  %13 = bitcast %"struct.std::random_access_iterator_tag"* %9 to %"struct.std::forward_iterator_tag"*, !dbg !4281
  call void @_ZNSt7__cxx1112basic_stringIcSt11char_traitsIcESaIcEE12_M_constructIPKcEEvT_S8_St20forward_iterator_tag(%"class.std::__cxx11::basic_string"* %10, i8* %11, i8* %12), !dbg !4282
  ret void, !dbg !4283
}

; Function Attrs: noinline uwtable
define linkonce_odr void @_ZNSt7__cxx1112basic_stringIcSt11char_traitsIcESaIcEE12_M_constructIPKcEEvT_S8_St20forward_iterator_tag(%"class.std::__cxx11::basic_string"* %0, i8* %1, i8* %2) #0 comdat align 2 personality i8* bitcast (i32 (...)* @__gxx_personality_v0 to i8*) !dbg !4284 {
  %4 = alloca %"struct.std::forward_iterator_tag", align 1
  %5 = alloca %"class.std::__cxx11::basic_string"*, align 8
  %6 = alloca i8*, align 8
  %7 = alloca i8*, align 8
  %8 = alloca i64, align 8
  %9 = alloca i8*
  %10 = alloca i32
  store %"class.std::__cxx11::basic_string"* %0, %"class.std::__cxx11::basic_string"** %5, align 8
  call void @llvm.dbg.declare(metadata %"class.std::__cxx11::basic_string"** %5, metadata !4295, metadata !DIExpression()), !dbg !4296
  store i8* %1, i8** %6, align 8
  call void @llvm.dbg.declare(metadata i8** %6, metadata !4297, metadata !DIExpression()), !dbg !4298
  store i8* %2, i8** %7, align 8
  call void @llvm.dbg.declare(metadata i8** %7, metadata !4299, metadata !DIExpression()), !dbg !4300
  call void @llvm.dbg.declare(metadata %"struct.std::forward_iterator_tag"* %4, metadata !4301, metadata !DIExpression()), !dbg !4302
  %11 = load %"class.std::__cxx11::basic_string"*, %"class.std::__cxx11::basic_string"** %5, align 8
  %12 = load i8*, i8** %6, align 8, !dbg !4303
  %13 = call zeroext i1 @_ZN9__gnu_cxx17__is_null_pointerIKcEEbPT_(i8* %12), !dbg !4305
  br i1 %13, label %14, label %19, !dbg !4306

14:                                               ; preds = %3
  %15 = load i8*, i8** %6, align 8, !dbg !4307
  %16 = load i8*, i8** %7, align 8, !dbg !4308
  %17 = icmp ne i8* %15, %16, !dbg !4309
  br i1 %17, label %18, label %19, !dbg !4310

18:                                               ; preds = %14
  call void @_ZSt19__throw_logic_errorPKc(i8* getelementptr inbounds ([42 x i8], [42 x i8]* @.str.17, i64 0, i64 0)) #16, !dbg !4311
  unreachable, !dbg !4311

19:                                               ; preds = %14, %3
  call void @llvm.dbg.declare(metadata i64* %8, metadata !4312, metadata !DIExpression()), !dbg !4313
  %20 = load i8*, i8** %6, align 8, !dbg !4314
  %21 = load i8*, i8** %7, align 8, !dbg !4315
  %22 = call i64 @_ZSt8distanceIPKcENSt15iterator_traitsIT_E15difference_typeES3_S3_(i8* %20, i8* %21), !dbg !4316
  store i64 %22, i64* %8, align 8, !dbg !4313
  %23 = load i64, i64* %8, align 8, !dbg !4317
  %24 = icmp ugt i64 %23, 15, !dbg !4319
  br i1 %24, label %25, label %28, !dbg !4320

25:                                               ; preds = %19
  %26 = call i8* @_ZNSt7__cxx1112basic_stringIcSt11char_traitsIcESaIcEE9_M_createERmm(%"class.std::__cxx11::basic_string"* %11, i64* dereferenceable(8) %8, i64 0), !dbg !4321
  call void @_ZNSt7__cxx1112basic_stringIcSt11char_traitsIcESaIcEE7_M_dataEPc(%"class.std::__cxx11::basic_string"* %11, i8* %26), !dbg !4323
  %27 = load i64, i64* %8, align 8, !dbg !4324
  call void @_ZNSt7__cxx1112basic_stringIcSt11char_traitsIcESaIcEE11_M_capacityEm(%"class.std::__cxx11::basic_string"* %11, i64 %27), !dbg !4325
  br label %28, !dbg !4326

28:                                               ; preds = %25, %19
  %29 = invoke i8* @_ZNKSt7__cxx1112basic_stringIcSt11char_traitsIcESaIcEE7_M_dataEv(%"class.std::__cxx11::basic_string"* %11)
          to label %30 unwind label %33, !dbg !4327

30:                                               ; preds = %28
  %31 = load i8*, i8** %6, align 8, !dbg !4329
  %32 = load i8*, i8** %7, align 8, !dbg !4330
  call void @_ZNSt7__cxx1112basic_stringIcSt11char_traitsIcESaIcEE13_S_copy_charsEPcPKcS7_(i8* %29, i8* %31, i8* %32) #9, !dbg !4331
  br label %46, !dbg !4332

33:                                               ; preds = %28
  %34 = landingpad { i8*, i32 }
          catch i8* null, !dbg !4333
  %35 = extractvalue { i8*, i32 } %34, 0, !dbg !4333
  store i8* %35, i8** %9, align 8, !dbg !4333
  %36 = extractvalue { i8*, i32 } %34, 1, !dbg !4333
  store i32 %36, i32* %10, align 4, !dbg !4333
  br label %37, !dbg !4333

37:                                               ; preds = %33
  %38 = load i8*, i8** %9, align 8, !dbg !4332
  %39 = call i8* @__cxa_begin_catch(i8* %38) #9, !dbg !4332
  invoke void @_ZNSt7__cxx1112basic_stringIcSt11char_traitsIcESaIcEE10_M_disposeEv(%"class.std::__cxx11::basic_string"* %11)
          to label %40 unwind label %41, !dbg !4334

40:                                               ; preds = %37
  invoke void @__cxa_rethrow() #16
          to label %56 unwind label %41, !dbg !4336

41:                                               ; preds = %40, %37
  %42 = landingpad { i8*, i32 }
          cleanup, !dbg !4337
  %43 = extractvalue { i8*, i32 } %42, 0, !dbg !4337
  store i8* %43, i8** %9, align 8, !dbg !4337
  %44 = extractvalue { i8*, i32 } %42, 1, !dbg !4337
  store i32 %44, i32* %10, align 4, !dbg !4337
  invoke void @__cxa_end_catch()
          to label %45 unwind label %53, !dbg !4338

45:                                               ; preds = %41
  br label %48, !dbg !4338

46:                                               ; preds = %30
  %47 = load i64, i64* %8, align 8, !dbg !4339
  call void @_ZNSt7__cxx1112basic_stringIcSt11char_traitsIcESaIcEE13_M_set_lengthEm(%"class.std::__cxx11::basic_string"* %11, i64 %47), !dbg !4340
  ret void, !dbg !4341

48:                                               ; preds = %45
  %49 = load i8*, i8** %9, align 8, !dbg !4338
  %50 = load i32, i32* %10, align 4, !dbg !4338
  %51 = insertvalue { i8*, i32 } undef, i8* %49, 0, !dbg !4338
  %52 = insertvalue { i8*, i32 } %51, i32 %50, 1, !dbg !4338
  resume { i8*, i32 } %52, !dbg !4338

53:                                               ; preds = %41
  %54 = landingpad { i8*, i32 }
          catch i8* null, !dbg !4338
  %55 = extractvalue { i8*, i32 } %54, 0, !dbg !4338
  call void @__clang_call_terminate(i8* %55) #15, !dbg !4338
  unreachable, !dbg !4338

56:                                               ; preds = %40
  unreachable
}

; Function Attrs: noinline nounwind uwtable
define linkonce_odr zeroext i1 @_ZN9__gnu_cxx17__is_null_pointerIKcEEbPT_(i8* %0) #4 comdat !dbg !4342 {
  %2 = alloca i8*, align 8
  store i8* %0, i8** %2, align 8
  call void @llvm.dbg.declare(metadata i8** %2, metadata !4346, metadata !DIExpression()), !dbg !4347
  %3 = load i8*, i8** %2, align 8, !dbg !4348
  %4 = icmp eq i8* %3, null, !dbg !4349
  ret i1 %4, !dbg !4350
}

; Function Attrs: noreturn
declare void @_ZSt19__throw_logic_errorPKc(i8*) #11

; Function Attrs: noinline uwtable
define linkonce_odr i64 @_ZSt8distanceIPKcENSt15iterator_traitsIT_E15difference_typeES3_S3_(i8* %0, i8* %1) #0 comdat !dbg !4351 {
  %3 = alloca i8*, align 8
  %4 = alloca i8*, align 8
  %5 = alloca %"struct.std::random_access_iterator_tag", align 1
  %6 = alloca %"struct.std::random_access_iterator_tag", align 1
  store i8* %0, i8** %3, align 8
  call void @llvm.dbg.declare(metadata i8** %3, metadata !4362, metadata !DIExpression()), !dbg !4363
  store i8* %1, i8** %4, align 8
  call void @llvm.dbg.declare(metadata i8** %4, metadata !4364, metadata !DIExpression()), !dbg !4365
  %7 = load i8*, i8** %3, align 8, !dbg !4366
  %8 = load i8*, i8** %4, align 8, !dbg !4367
  call void @_ZSt19__iterator_categoryIPKcENSt15iterator_traitsIT_E17iterator_categoryERKS3_(i8** dereferenceable(8) %3), !dbg !4368
  %9 = call i64 @_ZSt10__distanceIPKcENSt15iterator_traitsIT_E15difference_typeES3_S3_St26random_access_iterator_tag(i8* %7, i8* %8), !dbg !4369
  ret i64 %9, !dbg !4370
}

declare void @_ZNSt7__cxx1112basic_stringIcSt11char_traitsIcESaIcEE7_M_dataEPc(%"class.std::__cxx11::basic_string"*, i8*) #3

declare i8* @_ZNSt7__cxx1112basic_stringIcSt11char_traitsIcESaIcEE9_M_createERmm(%"class.std::__cxx11::basic_string"*, i64* dereferenceable(8), i64) #3

declare void @_ZNSt7__cxx1112basic_stringIcSt11char_traitsIcESaIcEE11_M_capacityEm(%"class.std::__cxx11::basic_string"*, i64) #3

; Function Attrs: nounwind
declare void @_ZNSt7__cxx1112basic_stringIcSt11char_traitsIcESaIcEE13_S_copy_charsEPcPKcS7_(i8*, i8*, i8*) #2

declare i8* @_ZNKSt7__cxx1112basic_stringIcSt11char_traitsIcESaIcEE7_M_dataEv(%"class.std::__cxx11::basic_string"*) #3

declare void @_ZNSt7__cxx1112basic_stringIcSt11char_traitsIcESaIcEE10_M_disposeEv(%"class.std::__cxx11::basic_string"*) #3

declare void @__cxa_rethrow()

declare void @__cxa_end_catch()

declare void @_ZNSt7__cxx1112basic_stringIcSt11char_traitsIcESaIcEE13_M_set_lengthEm(%"class.std::__cxx11::basic_string"*, i64) #3

; Function Attrs: noinline nounwind uwtable
define linkonce_odr i64 @_ZSt10__distanceIPKcENSt15iterator_traitsIT_E15difference_typeES3_S3_St26random_access_iterator_tag(i8* %0, i8* %1) #4 comdat !dbg !4371 {
  %3 = alloca %"struct.std::random_access_iterator_tag", align 1
  %4 = alloca i8*, align 8
  %5 = alloca i8*, align 8
  store i8* %0, i8** %4, align 8
  call void @llvm.dbg.declare(metadata i8** %4, metadata !4382, metadata !DIExpression()), !dbg !4383
  store i8* %1, i8** %5, align 8
  call void @llvm.dbg.declare(metadata i8** %5, metadata !4384, metadata !DIExpression()), !dbg !4385
  call void @llvm.dbg.declare(metadata %"struct.std::random_access_iterator_tag"* %3, metadata !4386, metadata !DIExpression()), !dbg !4387
  %6 = load i8*, i8** %5, align 8, !dbg !4388
  %7 = load i8*, i8** %4, align 8, !dbg !4389
  %8 = ptrtoint i8* %6 to i64, !dbg !4390
  %9 = ptrtoint i8* %7 to i64, !dbg !4390
  %10 = sub i64 %8, %9, !dbg !4390
  ret i64 %10, !dbg !4391
}

; Function Attrs: noinline nounwind uwtable
define linkonce_odr void @_ZSt19__iterator_categoryIPKcENSt15iterator_traitsIT_E17iterator_categoryERKS3_(i8** dereferenceable(8) %0) #4 comdat !dbg !4392 {
  %2 = alloca i8**, align 8
  store i8** %0, i8*** %2, align 8
  call void @llvm.dbg.declare(metadata i8*** %2, metadata !4400, metadata !DIExpression()), !dbg !4401
  ret void, !dbg !4402
}

; Function Attrs: noinline uwtable
define linkonce_odr i64 @_ZN9__gnu_cxx11char_traitsIcE6lengthEPKc(i8* %0) #0 comdat align 2 !dbg !4403 {
  %2 = alloca i8*, align 8
  %3 = alloca i64, align 8
  %4 = alloca i8, align 1
  store i8* %0, i8** %2, align 8
  call void @llvm.dbg.declare(metadata i8** %2, metadata !4455, metadata !DIExpression()), !dbg !4456
  call void @llvm.dbg.declare(metadata i64* %3, metadata !4457, metadata !DIExpression()), !dbg !4458
  store i64 0, i64* %3, align 8, !dbg !4458
  br label %5, !dbg !4459

5:                                                ; preds = %11, %1
  %6 = load i8*, i8** %2, align 8, !dbg !4460
  %7 = load i64, i64* %3, align 8, !dbg !4461
  %8 = getelementptr inbounds i8, i8* %6, i64 %7, !dbg !4460
  store i8 0, i8* %4, align 1, !dbg !4462
  %9 = call zeroext i1 @_ZN9__gnu_cxx11char_traitsIcE2eqERKcS3_(i8* dereferenceable(1) %8, i8* dereferenceable(1) %4), !dbg !4463
  %10 = xor i1 %9, true, !dbg !4464
  br i1 %10, label %11, label %14, !dbg !4459

11:                                               ; preds = %5
  %12 = load i64, i64* %3, align 8, !dbg !4465
  %13 = add i64 %12, 1, !dbg !4465
  store i64 %13, i64* %3, align 8, !dbg !4465
  br label %5, !dbg !4459, !llvm.loop !4466

14:                                               ; preds = %5
  %15 = load i64, i64* %3, align 8, !dbg !4468
  ret i64 %15, !dbg !4469
}

; Function Attrs: nounwind
declare i64 @strlen(i8*) #2

; Function Attrs: noinline nounwind uwtable
define linkonce_odr zeroext i1 @_ZN9__gnu_cxx11char_traitsIcE2eqERKcS3_(i8* dereferenceable(1) %0, i8* dereferenceable(1) %1) #4 comdat align 2 !dbg !4470 {
  %3 = alloca i8*, align 8
  %4 = alloca i8*, align 8
  store i8* %0, i8** %3, align 8
  call void @llvm.dbg.declare(metadata i8** %3, metadata !4471, metadata !DIExpression()), !dbg !4472
  store i8* %1, i8** %4, align 8
  call void @llvm.dbg.declare(metadata i8** %4, metadata !4473, metadata !DIExpression()), !dbg !4474
  %5 = load i8*, i8** %3, align 8, !dbg !4475
  %6 = load i8, i8* %5, align 1, !dbg !4475
  %7 = sext i8 %6 to i32, !dbg !4475
  %8 = load i8*, i8** %4, align 8, !dbg !4476
  %9 = load i8, i8* %8, align 1, !dbg !4476
  %10 = sext i8 %9 to i32, !dbg !4476
  %11 = icmp eq i32 %7, %10, !dbg !4477
  ret i1 %11, !dbg !4478
}

; Function Attrs: noinline uwtable
define linkonce_odr %"struct.std::__detail::_Hash_node"* @_ZNSt10_HashtableIiSt4pairIKijESaIS2_ENSt8__detail10_Select1stESt8equal_toIiESt4hashIiENS4_18_Mod_range_hashingENS4_20_Default_ranged_hashENS4_20_Prime_rehash_policyENS4_17_Hashtable_traitsILb0ELb0ELb1EEEE4findERS1_(%"class.std::_Hashtable"* %0, i32* dereferenceable(4) %1) #0 comdat align 2 !dbg !4479 {
  %3 = alloca %"struct.std::__detail::_Node_iterator", align 8
  %4 = alloca %"class.std::_Hashtable"*, align 8
  %5 = alloca i32*, align 8
  %6 = alloca i64, align 8
  %7 = alloca i64, align 8
  %8 = alloca %"struct.std::__detail::_Hash_node"*, align 8
  store %"class.std::_Hashtable"* %0, %"class.std::_Hashtable"** %4, align 8
  call void @llvm.dbg.declare(metadata %"class.std::_Hashtable"** %4, metadata !4480, metadata !DIExpression()), !dbg !4481
  store i32* %1, i32** %5, align 8
  call void @llvm.dbg.declare(metadata i32** %5, metadata !4482, metadata !DIExpression()), !dbg !4483
  %9 = load %"class.std::_Hashtable"*, %"class.std::_Hashtable"** %4, align 8
  call void @llvm.dbg.declare(metadata i64* %6, metadata !4484, metadata !DIExpression()), !dbg !4485
  %10 = bitcast %"class.std::_Hashtable"* %9 to %"struct.std::__detail::_Hash_code_base"*, !dbg !4486
  %11 = load i32*, i32** %5, align 8, !dbg !4487
  %12 = call i64 @_ZNKSt8__detail15_Hash_code_baseIiSt4pairIKijENS_10_Select1stESt4hashIiENS_18_Mod_range_hashingENS_20_Default_ranged_hashELb0EE12_M_hash_codeERS2_(%"struct.std::__detail::_Hash_code_base"* %10, i32* dereferenceable(4) %11), !dbg !4486
  store i64 %12, i64* %6, align 8, !dbg !4485
  call void @llvm.dbg.declare(metadata i64* %7, metadata !4488, metadata !DIExpression()), !dbg !4489
  %13 = load i32*, i32** %5, align 8, !dbg !4490
  %14 = load i64, i64* %6, align 8, !dbg !4491
  %15 = call i64 @_ZNKSt10_HashtableIiSt4pairIKijESaIS2_ENSt8__detail10_Select1stESt8equal_toIiESt4hashIiENS4_18_Mod_range_hashingENS4_20_Default_ranged_hashENS4_20_Prime_rehash_policyENS4_17_Hashtable_traitsILb0ELb0ELb1EEEE15_M_bucket_indexERS1_m(%"class.std::_Hashtable"* %9, i32* dereferenceable(4) %13, i64 %14), !dbg !4492
  store i64 %15, i64* %7, align 8, !dbg !4489
  call void @llvm.dbg.declare(metadata %"struct.std::__detail::_Hash_node"** %8, metadata !4493, metadata !DIExpression()), !dbg !4494
  %16 = load i64, i64* %7, align 8, !dbg !4495
  %17 = load i32*, i32** %5, align 8, !dbg !4496
  %18 = load i64, i64* %6, align 8, !dbg !4497
  %19 = call %"struct.std::__detail::_Hash_node"* @_ZNKSt10_HashtableIiSt4pairIKijESaIS2_ENSt8__detail10_Select1stESt8equal_toIiESt4hashIiENS4_18_Mod_range_hashingENS4_20_Default_ranged_hashENS4_20_Prime_rehash_policyENS4_17_Hashtable_traitsILb0ELb0ELb1EEEE12_M_find_nodeEmRS1_m(%"class.std::_Hashtable"* %9, i64 %16, i32* dereferenceable(4) %17, i64 %18), !dbg !4498
  store %"struct.std::__detail::_Hash_node"* %19, %"struct.std::__detail::_Hash_node"** %8, align 8, !dbg !4494
  %20 = load %"struct.std::__detail::_Hash_node"*, %"struct.std::__detail::_Hash_node"** %8, align 8, !dbg !4499
  %21 = icmp ne %"struct.std::__detail::_Hash_node"* %20, null, !dbg !4499
  br i1 %21, label %22, label %24, !dbg !4499

22:                                               ; preds = %2
  %23 = load %"struct.std::__detail::_Hash_node"*, %"struct.std::__detail::_Hash_node"** %8, align 8, !dbg !4500
  call void @_ZNSt8__detail14_Node_iteratorISt4pairIKijELb0ELb0EEC2EPNS_10_Hash_nodeIS3_Lb0EEE(%"struct.std::__detail::_Node_iterator"* %3, %"struct.std::__detail::_Hash_node"* %23) #9, !dbg !4501
  br label %28, !dbg !4499

24:                                               ; preds = %2
  %25 = call %"struct.std::__detail::_Hash_node"* @_ZNSt10_HashtableIiSt4pairIKijESaIS2_ENSt8__detail10_Select1stESt8equal_toIiESt4hashIiENS4_18_Mod_range_hashingENS4_20_Default_ranged_hashENS4_20_Prime_rehash_policyENS4_17_Hashtable_traitsILb0ELb0ELb1EEEE3endEv(%"class.std::_Hashtable"* %9) #9, !dbg !4502
  %26 = getelementptr inbounds %"struct.std::__detail::_Node_iterator", %"struct.std::__detail::_Node_iterator"* %3, i32 0, i32 0, !dbg !4502
  %27 = getelementptr inbounds %"struct.std::__detail::_Node_iterator_base", %"struct.std::__detail::_Node_iterator_base"* %26, i32 0, i32 0, !dbg !4502
  store %"struct.std::__detail::_Hash_node"* %25, %"struct.std::__detail::_Hash_node"** %27, align 8, !dbg !4502
  br label %28, !dbg !4499

28:                                               ; preds = %24, %22
  %29 = getelementptr inbounds %"struct.std::__detail::_Node_iterator", %"struct.std::__detail::_Node_iterator"* %3, i32 0, i32 0, !dbg !4503
  %30 = getelementptr inbounds %"struct.std::__detail::_Node_iterator_base", %"struct.std::__detail::_Node_iterator_base"* %29, i32 0, i32 0, !dbg !4503
  %31 = load %"struct.std::__detail::_Hash_node"*, %"struct.std::__detail::_Hash_node"** %30, align 8, !dbg !4503
  ret %"struct.std::__detail::_Hash_node"* %31, !dbg !4503
}

; Function Attrs: noinline uwtable
define linkonce_odr i64 @_ZNKSt8__detail15_Hash_code_baseIiSt4pairIKijENS_10_Select1stESt4hashIiENS_18_Mod_range_hashingENS_20_Default_ranged_hashELb0EE12_M_hash_codeERS2_(%"struct.std::__detail::_Hash_code_base"* %0, i32* dereferenceable(4) %1) #0 comdat align 2 !dbg !4504 {
  %3 = alloca %"struct.std::__detail::_Hash_code_base"*, align 8
  %4 = alloca i32*, align 8
  store %"struct.std::__detail::_Hash_code_base"* %0, %"struct.std::__detail::_Hash_code_base"** %3, align 8
  call void @llvm.dbg.declare(metadata %"struct.std::__detail::_Hash_code_base"** %3, metadata !4505, metadata !DIExpression()), !dbg !4507
  store i32* %1, i32** %4, align 8
  call void @llvm.dbg.declare(metadata i32** %4, metadata !4508, metadata !DIExpression()), !dbg !4509
  %5 = load %"struct.std::__detail::_Hash_code_base"*, %"struct.std::__detail::_Hash_code_base"** %3, align 8
  %6 = call dereferenceable(1) %"struct.std::hash"* @_ZNKSt8__detail15_Hash_code_baseIiSt4pairIKijENS_10_Select1stESt4hashIiENS_18_Mod_range_hashingENS_20_Default_ranged_hashELb0EE5_M_h1Ev(%"struct.std::__detail::_Hash_code_base"* %5), !dbg !4510
  %7 = load i32*, i32** %4, align 8, !dbg !4511
  %8 = load i32, i32* %7, align 4, !dbg !4511
  %9 = call i64 @_ZNKSt4hashIiEclEi(%"struct.std::hash"* %6, i32 %8) #9, !dbg !4510
  ret i64 %9, !dbg !4512
}

; Function Attrs: noinline uwtable
define linkonce_odr i64 @_ZNKSt10_HashtableIiSt4pairIKijESaIS2_ENSt8__detail10_Select1stESt8equal_toIiESt4hashIiENS4_18_Mod_range_hashingENS4_20_Default_ranged_hashENS4_20_Prime_rehash_policyENS4_17_Hashtable_traitsILb0ELb0ELb1EEEE15_M_bucket_indexERS1_m(%"class.std::_Hashtable"* %0, i32* dereferenceable(4) %1, i64 %2) #0 comdat align 2 !dbg !4513 {
  %4 = alloca %"class.std::_Hashtable"*, align 8
  %5 = alloca i32*, align 8
  %6 = alloca i64, align 8
  store %"class.std::_Hashtable"* %0, %"class.std::_Hashtable"** %4, align 8
  call void @llvm.dbg.declare(metadata %"class.std::_Hashtable"** %4, metadata !4514, metadata !DIExpression()), !dbg !4515
  store i32* %1, i32** %5, align 8
  call void @llvm.dbg.declare(metadata i32** %5, metadata !4516, metadata !DIExpression()), !dbg !4517
  store i64 %2, i64* %6, align 8
  call void @llvm.dbg.declare(metadata i64* %6, metadata !4518, metadata !DIExpression()), !dbg !4519
  %7 = load %"class.std::_Hashtable"*, %"class.std::_Hashtable"** %4, align 8
  %8 = bitcast %"class.std::_Hashtable"* %7 to %"struct.std::__detail::_Hash_code_base"*, !dbg !4520
  %9 = load i32*, i32** %5, align 8, !dbg !4521
  %10 = load i64, i64* %6, align 8, !dbg !4522
  %11 = getelementptr inbounds %"class.std::_Hashtable", %"class.std::_Hashtable"* %7, i32 0, i32 1, !dbg !4523
  %12 = load i64, i64* %11, align 8, !dbg !4523
  %13 = call i64 @_ZNKSt8__detail15_Hash_code_baseIiSt4pairIKijENS_10_Select1stESt4hashIiENS_18_Mod_range_hashingENS_20_Default_ranged_hashELb0EE15_M_bucket_indexERS2_mm(%"struct.std::__detail::_Hash_code_base"* %8, i32* dereferenceable(4) %9, i64 %10, i64 %12), !dbg !4520
  ret i64 %13, !dbg !4524
}

; Function Attrs: noinline uwtable
define linkonce_odr %"struct.std::__detail::_Hash_node"* @_ZNKSt10_HashtableIiSt4pairIKijESaIS2_ENSt8__detail10_Select1stESt8equal_toIiESt4hashIiENS4_18_Mod_range_hashingENS4_20_Default_ranged_hashENS4_20_Prime_rehash_policyENS4_17_Hashtable_traitsILb0ELb0ELb1EEEE12_M_find_nodeEmRS1_m(%"class.std::_Hashtable"* %0, i64 %1, i32* dereferenceable(4) %2, i64 %3) #0 comdat align 2 !dbg !4525 {
  %5 = alloca %"struct.std::__detail::_Hash_node"*, align 8
  %6 = alloca %"class.std::_Hashtable"*, align 8
  %7 = alloca i64, align 8
  %8 = alloca i32*, align 8
  %9 = alloca i64, align 8
  %10 = alloca %"struct.std::__detail::_Hash_node_base"*, align 8
  store %"class.std::_Hashtable"* %0, %"class.std::_Hashtable"** %6, align 8
  call void @llvm.dbg.declare(metadata %"class.std::_Hashtable"** %6, metadata !4526, metadata !DIExpression()), !dbg !4527
  store i64 %1, i64* %7, align 8
  call void @llvm.dbg.declare(metadata i64* %7, metadata !4528, metadata !DIExpression()), !dbg !4529
  store i32* %2, i32** %8, align 8
  call void @llvm.dbg.declare(metadata i32** %8, metadata !4530, metadata !DIExpression()), !dbg !4531
  store i64 %3, i64* %9, align 8
  call void @llvm.dbg.declare(metadata i64* %9, metadata !4532, metadata !DIExpression()), !dbg !4533
  %11 = load %"class.std::_Hashtable"*, %"class.std::_Hashtable"** %6, align 8
  call void @llvm.dbg.declare(metadata %"struct.std::__detail::_Hash_node_base"** %10, metadata !4534, metadata !DIExpression()), !dbg !4535
  %12 = load i64, i64* %7, align 8, !dbg !4536
  %13 = load i32*, i32** %8, align 8, !dbg !4537
  %14 = load i64, i64* %9, align 8, !dbg !4538
  %15 = call %"struct.std::__detail::_Hash_node_base"* @_ZNKSt10_HashtableIiSt4pairIKijESaIS2_ENSt8__detail10_Select1stESt8equal_toIiESt4hashIiENS4_18_Mod_range_hashingENS4_20_Default_ranged_hashENS4_20_Prime_rehash_policyENS4_17_Hashtable_traitsILb0ELb0ELb1EEEE19_M_find_before_nodeEmRS1_m(%"class.std::_Hashtable"* %11, i64 %12, i32* dereferenceable(4) %13, i64 %14), !dbg !4539
  store %"struct.std::__detail::_Hash_node_base"* %15, %"struct.std::__detail::_Hash_node_base"** %10, align 8, !dbg !4535
  %16 = load %"struct.std::__detail::_Hash_node_base"*, %"struct.std::__detail::_Hash_node_base"** %10, align 8, !dbg !4540
  %17 = icmp ne %"struct.std::__detail::_Hash_node_base"* %16, null, !dbg !4540
  br i1 %17, label %18, label %23, !dbg !4542

18:                                               ; preds = %4
  %19 = load %"struct.std::__detail::_Hash_node_base"*, %"struct.std::__detail::_Hash_node_base"** %10, align 8, !dbg !4543
  %20 = getelementptr inbounds %"struct.std::__detail::_Hash_node_base", %"struct.std::__detail::_Hash_node_base"* %19, i32 0, i32 0, !dbg !4544
  %21 = load %"struct.std::__detail::_Hash_node_base"*, %"struct.std::__detail::_Hash_node_base"** %20, align 8, !dbg !4544
  %22 = bitcast %"struct.std::__detail::_Hash_node_base"* %21 to %"struct.std::__detail::_Hash_node"*, !dbg !4545
  store %"struct.std::__detail::_Hash_node"* %22, %"struct.std::__detail::_Hash_node"** %5, align 8, !dbg !4546
  br label %24, !dbg !4546

23:                                               ; preds = %4
  store %"struct.std::__detail::_Hash_node"* null, %"struct.std::__detail::_Hash_node"** %5, align 8, !dbg !4547
  br label %24, !dbg !4547

24:                                               ; preds = %23, %18
  %25 = load %"struct.std::__detail::_Hash_node"*, %"struct.std::__detail::_Hash_node"** %5, align 8, !dbg !4548
  ret %"struct.std::__detail::_Hash_node"* %25, !dbg !4548
}

; Function Attrs: noinline nounwind uwtable
define linkonce_odr void @_ZNSt8__detail14_Node_iteratorISt4pairIKijELb0ELb0EEC2EPNS_10_Hash_nodeIS3_Lb0EEE(%"struct.std::__detail::_Node_iterator"* %0, %"struct.std::__detail::_Hash_node"* %1) unnamed_addr #4 comdat align 2 !dbg !4549 {
  %3 = alloca %"struct.std::__detail::_Node_iterator"*, align 8
  %4 = alloca %"struct.std::__detail::_Hash_node"*, align 8
  store %"struct.std::__detail::_Node_iterator"* %0, %"struct.std::__detail::_Node_iterator"** %3, align 8
  call void @llvm.dbg.declare(metadata %"struct.std::__detail::_Node_iterator"** %3, metadata !4550, metadata !DIExpression()), !dbg !4552
  store %"struct.std::__detail::_Hash_node"* %1, %"struct.std::__detail::_Hash_node"** %4, align 8
  call void @llvm.dbg.declare(metadata %"struct.std::__detail::_Hash_node"** %4, metadata !4553, metadata !DIExpression()), !dbg !4554
  %5 = load %"struct.std::__detail::_Node_iterator"*, %"struct.std::__detail::_Node_iterator"** %3, align 8
  %6 = bitcast %"struct.std::__detail::_Node_iterator"* %5 to %"struct.std::__detail::_Node_iterator_base"*, !dbg !4555
  %7 = load %"struct.std::__detail::_Hash_node"*, %"struct.std::__detail::_Hash_node"** %4, align 8, !dbg !4556
  call void @_ZNSt8__detail19_Node_iterator_baseISt4pairIKijELb0EEC2EPNS_10_Hash_nodeIS3_Lb0EEE(%"struct.std::__detail::_Node_iterator_base"* %6, %"struct.std::__detail::_Hash_node"* %7) #9, !dbg !4557
  ret void, !dbg !4558
}

; Function Attrs: noinline nounwind uwtable
define linkonce_odr %"struct.std::__detail::_Hash_node"* @_ZNSt10_HashtableIiSt4pairIKijESaIS2_ENSt8__detail10_Select1stESt8equal_toIiESt4hashIiENS4_18_Mod_range_hashingENS4_20_Default_ranged_hashENS4_20_Prime_rehash_policyENS4_17_Hashtable_traitsILb0ELb0ELb1EEEE3endEv(%"class.std::_Hashtable"* %0) #4 comdat align 2 !dbg !4559 {
  %2 = alloca %"struct.std::__detail::_Node_iterator", align 8
  %3 = alloca %"class.std::_Hashtable"*, align 8
  store %"class.std::_Hashtable"* %0, %"class.std::_Hashtable"** %3, align 8
  call void @llvm.dbg.declare(metadata %"class.std::_Hashtable"** %3, metadata !4560, metadata !DIExpression()), !dbg !4561
  %4 = load %"class.std::_Hashtable"*, %"class.std::_Hashtable"** %3, align 8
  call void @_ZNSt8__detail14_Node_iteratorISt4pairIKijELb0ELb0EEC2EPNS_10_Hash_nodeIS3_Lb0EEE(%"struct.std::__detail::_Node_iterator"* %2, %"struct.std::__detail::_Hash_node"* null) #9, !dbg !4562
  %5 = getelementptr inbounds %"struct.std::__detail::_Node_iterator", %"struct.std::__detail::_Node_iterator"* %2, i32 0, i32 0, !dbg !4563
  %6 = getelementptr inbounds %"struct.std::__detail::_Node_iterator_base", %"struct.std::__detail::_Node_iterator_base"* %5, i32 0, i32 0, !dbg !4563
  %7 = load %"struct.std::__detail::_Hash_node"*, %"struct.std::__detail::_Hash_node"** %6, align 8, !dbg !4563
  ret %"struct.std::__detail::_Hash_node"* %7, !dbg !4563
}

; Function Attrs: noinline uwtable
define linkonce_odr dereferenceable(1) %"struct.std::hash"* @_ZNKSt8__detail15_Hash_code_baseIiSt4pairIKijENS_10_Select1stESt4hashIiENS_18_Mod_range_hashingENS_20_Default_ranged_hashELb0EE5_M_h1Ev(%"struct.std::__detail::_Hash_code_base"* %0) #0 comdat align 2 !dbg !4564 {
  %2 = alloca %"struct.std::__detail::_Hash_code_base"*, align 8
  store %"struct.std::__detail::_Hash_code_base"* %0, %"struct.std::__detail::_Hash_code_base"** %2, align 8
  call void @llvm.dbg.declare(metadata %"struct.std::__detail::_Hash_code_base"** %2, metadata !4565, metadata !DIExpression()), !dbg !4566
  %3 = load %"struct.std::__detail::_Hash_code_base"*, %"struct.std::__detail::_Hash_code_base"** %2, align 8
  %4 = bitcast %"struct.std::__detail::_Hash_code_base"* %3 to %"struct.std::__detail::_Hashtable_ebo_helper.0"*, !dbg !4567
  %5 = call dereferenceable(1) %"struct.std::hash"* @_ZNKSt8__detail21_Hashtable_ebo_helperILi1ESt4hashIiELb1EE7_M_cgetEv(%"struct.std::__detail::_Hashtable_ebo_helper.0"* %4), !dbg !4567
  ret %"struct.std::hash"* %5, !dbg !4568
}

; Function Attrs: noinline nounwind uwtable
define linkonce_odr i64 @_ZNKSt4hashIiEclEi(%"struct.std::hash"* %0, i32 %1) #4 comdat align 2 !dbg !4569 {
  %3 = alloca %"struct.std::hash"*, align 8
  %4 = alloca i32, align 4
  store %"struct.std::hash"* %0, %"struct.std::hash"** %3, align 8
  call void @llvm.dbg.declare(metadata %"struct.std::hash"** %3, metadata !4570, metadata !DIExpression()), !dbg !4572
  store i32 %1, i32* %4, align 4
  call void @llvm.dbg.declare(metadata i32* %4, metadata !4573, metadata !DIExpression()), !dbg !4574
  %5 = load %"struct.std::hash"*, %"struct.std::hash"** %3, align 8
  %6 = load i32, i32* %4, align 4, !dbg !4574
  %7 = sext i32 %6 to i64, !dbg !4574
  ret i64 %7, !dbg !4574
}

; Function Attrs: noinline nounwind uwtable
define linkonce_odr dereferenceable(1) %"struct.std::hash"* @_ZNKSt8__detail21_Hashtable_ebo_helperILi1ESt4hashIiELb1EE7_M_cgetEv(%"struct.std::__detail::_Hashtable_ebo_helper.0"* %0) #4 comdat align 2 !dbg !4575 {
  %2 = alloca %"struct.std::__detail::_Hashtable_ebo_helper.0"*, align 8
  store %"struct.std::__detail::_Hashtable_ebo_helper.0"* %0, %"struct.std::__detail::_Hashtable_ebo_helper.0"** %2, align 8
  call void @llvm.dbg.declare(metadata %"struct.std::__detail::_Hashtable_ebo_helper.0"** %2, metadata !4576, metadata !DIExpression()), !dbg !4578
  %3 = load %"struct.std::__detail::_Hashtable_ebo_helper.0"*, %"struct.std::__detail::_Hashtable_ebo_helper.0"** %2, align 8
  %4 = bitcast %"struct.std::__detail::_Hashtable_ebo_helper.0"* %3 to %"struct.std::hash"*, !dbg !4579
  ret %"struct.std::hash"* %4, !dbg !4580
}

; Function Attrs: noinline uwtable
define linkonce_odr i64 @_ZNKSt8__detail15_Hash_code_baseIiSt4pairIKijENS_10_Select1stESt4hashIiENS_18_Mod_range_hashingENS_20_Default_ranged_hashELb0EE15_M_bucket_indexERS2_mm(%"struct.std::__detail::_Hash_code_base"* %0, i32* dereferenceable(4) %1, i64 %2, i64 %3) #0 comdat align 2 !dbg !4581 {
  %5 = alloca %"struct.std::__detail::_Hash_code_base"*, align 8
  %6 = alloca i32*, align 8
  %7 = alloca i64, align 8
  %8 = alloca i64, align 8
  store %"struct.std::__detail::_Hash_code_base"* %0, %"struct.std::__detail::_Hash_code_base"** %5, align 8
  call void @llvm.dbg.declare(metadata %"struct.std::__detail::_Hash_code_base"** %5, metadata !4582, metadata !DIExpression()), !dbg !4583
  store i32* %1, i32** %6, align 8
  call void @llvm.dbg.declare(metadata i32** %6, metadata !4584, metadata !DIExpression()), !dbg !4585
  store i64 %2, i64* %7, align 8
  call void @llvm.dbg.declare(metadata i64* %7, metadata !4586, metadata !DIExpression()), !dbg !4587
  store i64 %3, i64* %8, align 8
  call void @llvm.dbg.declare(metadata i64* %8, metadata !4588, metadata !DIExpression()), !dbg !4589
  %9 = load %"struct.std::__detail::_Hash_code_base"*, %"struct.std::__detail::_Hash_code_base"** %5, align 8
  %10 = call dereferenceable(1) %"struct.std::__detail::_Mod_range_hashing"* @_ZNKSt8__detail15_Hash_code_baseIiSt4pairIKijENS_10_Select1stESt4hashIiENS_18_Mod_range_hashingENS_20_Default_ranged_hashELb0EE5_M_h2Ev(%"struct.std::__detail::_Hash_code_base"* %9), !dbg !4590
  %11 = load i64, i64* %7, align 8, !dbg !4591
  %12 = load i64, i64* %8, align 8, !dbg !4592
  %13 = call i64 @_ZNKSt8__detail18_Mod_range_hashingclEmm(%"struct.std::__detail::_Mod_range_hashing"* %10, i64 %11, i64 %12) #9, !dbg !4590
  ret i64 %13, !dbg !4593
}

; Function Attrs: noinline uwtable
define linkonce_odr dereferenceable(1) %"struct.std::__detail::_Mod_range_hashing"* @_ZNKSt8__detail15_Hash_code_baseIiSt4pairIKijENS_10_Select1stESt4hashIiENS_18_Mod_range_hashingENS_20_Default_ranged_hashELb0EE5_M_h2Ev(%"struct.std::__detail::_Hash_code_base"* %0) #0 comdat align 2 !dbg !4594 {
  %2 = alloca %"struct.std::__detail::_Hash_code_base"*, align 8
  store %"struct.std::__detail::_Hash_code_base"* %0, %"struct.std::__detail::_Hash_code_base"** %2, align 8
  call void @llvm.dbg.declare(metadata %"struct.std::__detail::_Hash_code_base"** %2, metadata !4595, metadata !DIExpression()), !dbg !4596
  %3 = load %"struct.std::__detail::_Hash_code_base"*, %"struct.std::__detail::_Hash_code_base"** %2, align 8
  %4 = bitcast %"struct.std::__detail::_Hash_code_base"* %3 to %"struct.std::__detail::_Hashtable_ebo_helper.1"*, !dbg !4597
  %5 = call dereferenceable(1) %"struct.std::__detail::_Mod_range_hashing"* @_ZNKSt8__detail21_Hashtable_ebo_helperILi2ENS_18_Mod_range_hashingELb1EE7_M_cgetEv(%"struct.std::__detail::_Hashtable_ebo_helper.1"* %4), !dbg !4597
  ret %"struct.std::__detail::_Mod_range_hashing"* %5, !dbg !4598
}

; Function Attrs: noinline nounwind uwtable
define linkonce_odr i64 @_ZNKSt8__detail18_Mod_range_hashingclEmm(%"struct.std::__detail::_Mod_range_hashing"* %0, i64 %1, i64 %2) #4 comdat align 2 !dbg !4599 {
  %4 = alloca %"struct.std::__detail::_Mod_range_hashing"*, align 8
  %5 = alloca i64, align 8
  %6 = alloca i64, align 8
  store %"struct.std::__detail::_Mod_range_hashing"* %0, %"struct.std::__detail::_Mod_range_hashing"** %4, align 8
  call void @llvm.dbg.declare(metadata %"struct.std::__detail::_Mod_range_hashing"** %4, metadata !4600, metadata !DIExpression()), !dbg !4602
  store i64 %1, i64* %5, align 8
  call void @llvm.dbg.declare(metadata i64* %5, metadata !4603, metadata !DIExpression()), !dbg !4604
  store i64 %2, i64* %6, align 8
  call void @llvm.dbg.declare(metadata i64* %6, metadata !4605, metadata !DIExpression()), !dbg !4606
  %7 = load %"struct.std::__detail::_Mod_range_hashing"*, %"struct.std::__detail::_Mod_range_hashing"** %4, align 8
  %8 = load i64, i64* %5, align 8, !dbg !4607
  %9 = load i64, i64* %6, align 8, !dbg !4608
  %10 = urem i64 %8, %9, !dbg !4609
  ret i64 %10, !dbg !4610
}

; Function Attrs: noinline nounwind uwtable
define linkonce_odr dereferenceable(1) %"struct.std::__detail::_Mod_range_hashing"* @_ZNKSt8__detail21_Hashtable_ebo_helperILi2ENS_18_Mod_range_hashingELb1EE7_M_cgetEv(%"struct.std::__detail::_Hashtable_ebo_helper.1"* %0) #4 comdat align 2 !dbg !4611 {
  %2 = alloca %"struct.std::__detail::_Hashtable_ebo_helper.1"*, align 8
  store %"struct.std::__detail::_Hashtable_ebo_helper.1"* %0, %"struct.std::__detail::_Hashtable_ebo_helper.1"** %2, align 8
  call void @llvm.dbg.declare(metadata %"struct.std::__detail::_Hashtable_ebo_helper.1"** %2, metadata !4612, metadata !DIExpression()), !dbg !4614
  %3 = load %"struct.std::__detail::_Hashtable_ebo_helper.1"*, %"struct.std::__detail::_Hashtable_ebo_helper.1"** %2, align 8
  %4 = bitcast %"struct.std::__detail::_Hashtable_ebo_helper.1"* %3 to %"struct.std::__detail::_Mod_range_hashing"*, !dbg !4615
  ret %"struct.std::__detail::_Mod_range_hashing"* %4, !dbg !4616
}

; Function Attrs: noinline uwtable
define linkonce_odr %"struct.std::__detail::_Hash_node_base"* @_ZNKSt10_HashtableIiSt4pairIKijESaIS2_ENSt8__detail10_Select1stESt8equal_toIiESt4hashIiENS4_18_Mod_range_hashingENS4_20_Default_ranged_hashENS4_20_Prime_rehash_policyENS4_17_Hashtable_traitsILb0ELb0ELb1EEEE19_M_find_before_nodeEmRS1_m(%"class.std::_Hashtable"* %0, i64 %1, i32* dereferenceable(4) %2, i64 %3) #0 comdat align 2 !dbg !4617 {
  %5 = alloca %"struct.std::__detail::_Hash_node_base"*, align 8
  %6 = alloca %"class.std::_Hashtable"*, align 8
  %7 = alloca i64, align 8
  %8 = alloca i32*, align 8
  %9 = alloca i64, align 8
  %10 = alloca %"struct.std::__detail::_Hash_node_base"*, align 8
  %11 = alloca %"struct.std::__detail::_Hash_node"*, align 8
  store %"class.std::_Hashtable"* %0, %"class.std::_Hashtable"** %6, align 8
  call void @llvm.dbg.declare(metadata %"class.std::_Hashtable"** %6, metadata !4618, metadata !DIExpression()), !dbg !4619
  store i64 %1, i64* %7, align 8
  call void @llvm.dbg.declare(metadata i64* %7, metadata !4620, metadata !DIExpression()), !dbg !4621
  store i32* %2, i32** %8, align 8
  call void @llvm.dbg.declare(metadata i32** %8, metadata !4622, metadata !DIExpression()), !dbg !4623
  store i64 %3, i64* %9, align 8
  call void @llvm.dbg.declare(metadata i64* %9, metadata !4624, metadata !DIExpression()), !dbg !4625
  %12 = load %"class.std::_Hashtable"*, %"class.std::_Hashtable"** %6, align 8
  call void @llvm.dbg.declare(metadata %"struct.std::__detail::_Hash_node_base"** %10, metadata !4626, metadata !DIExpression()), !dbg !4627
  %13 = getelementptr inbounds %"class.std::_Hashtable", %"class.std::_Hashtable"* %12, i32 0, i32 0, !dbg !4628
  %14 = load %"struct.std::__detail::_Hash_node_base"**, %"struct.std::__detail::_Hash_node_base"*** %13, align 8, !dbg !4628
  %15 = load i64, i64* %7, align 8, !dbg !4629
  %16 = getelementptr inbounds %"struct.std::__detail::_Hash_node_base"*, %"struct.std::__detail::_Hash_node_base"** %14, i64 %15, !dbg !4628
  %17 = load %"struct.std::__detail::_Hash_node_base"*, %"struct.std::__detail::_Hash_node_base"** %16, align 8, !dbg !4628
  store %"struct.std::__detail::_Hash_node_base"* %17, %"struct.std::__detail::_Hash_node_base"** %10, align 8, !dbg !4627
  %18 = load %"struct.std::__detail::_Hash_node_base"*, %"struct.std::__detail::_Hash_node_base"** %10, align 8, !dbg !4630
  %19 = icmp ne %"struct.std::__detail::_Hash_node_base"* %18, null, !dbg !4630
  br i1 %19, label %21, label %20, !dbg !4632

20:                                               ; preds = %4
  store %"struct.std::__detail::_Hash_node_base"* null, %"struct.std::__detail::_Hash_node_base"** %5, align 8, !dbg !4633
  br label %54, !dbg !4633

21:                                               ; preds = %4
  call void @llvm.dbg.declare(metadata %"struct.std::__detail::_Hash_node"** %11, metadata !4634, metadata !DIExpression()), !dbg !4636
  %22 = load %"struct.std::__detail::_Hash_node_base"*, %"struct.std::__detail::_Hash_node_base"** %10, align 8, !dbg !4637
  %23 = getelementptr inbounds %"struct.std::__detail::_Hash_node_base", %"struct.std::__detail::_Hash_node_base"* %22, i32 0, i32 0, !dbg !4638
  %24 = load %"struct.std::__detail::_Hash_node_base"*, %"struct.std::__detail::_Hash_node_base"** %23, align 8, !dbg !4638
  %25 = bitcast %"struct.std::__detail::_Hash_node_base"* %24 to %"struct.std::__detail::_Hash_node"*, !dbg !4639
  store %"struct.std::__detail::_Hash_node"* %25, %"struct.std::__detail::_Hash_node"** %11, align 8, !dbg !4636
  br label %26, !dbg !4640

26:                                               ; preds = %50, %21
  %27 = bitcast %"class.std::_Hashtable"* %12 to %"struct.std::__detail::_Hashtable_base"*, !dbg !4641
  %28 = load i32*, i32** %8, align 8, !dbg !4645
  %29 = load i64, i64* %9, align 8, !dbg !4646
  %30 = load %"struct.std::__detail::_Hash_node"*, %"struct.std::__detail::_Hash_node"** %11, align 8, !dbg !4647
  %31 = call zeroext i1 @_ZNKSt8__detail15_Hashtable_baseIiSt4pairIKijENS_10_Select1stESt8equal_toIiESt4hashIiENS_18_Mod_range_hashingENS_20_Default_ranged_hashENS_17_Hashtable_traitsILb0ELb0ELb1EEEE9_M_equalsERS2_mPNS_10_Hash_nodeIS3_Lb0EEE(%"struct.std::__detail::_Hashtable_base"* %27, i32* dereferenceable(4) %28, i64 %29, %"struct.std::__detail::_Hash_node"* %30), !dbg !4641
  br i1 %31, label %32, label %34, !dbg !4648

32:                                               ; preds = %26
  %33 = load %"struct.std::__detail::_Hash_node_base"*, %"struct.std::__detail::_Hash_node_base"** %10, align 8, !dbg !4649
  store %"struct.std::__detail::_Hash_node_base"* %33, %"struct.std::__detail::_Hash_node_base"** %5, align 8, !dbg !4650
  br label %54, !dbg !4650

34:                                               ; preds = %26
  %35 = load %"struct.std::__detail::_Hash_node"*, %"struct.std::__detail::_Hash_node"** %11, align 8, !dbg !4651
  %36 = bitcast %"struct.std::__detail::_Hash_node"* %35 to %"struct.std::__detail::_Hash_node_base"*, !dbg !4653
  %37 = getelementptr inbounds %"struct.std::__detail::_Hash_node_base", %"struct.std::__detail::_Hash_node_base"* %36, i32 0, i32 0, !dbg !4653
  %38 = load %"struct.std::__detail::_Hash_node_base"*, %"struct.std::__detail::_Hash_node_base"** %37, align 8, !dbg !4653
  %39 = icmp ne %"struct.std::__detail::_Hash_node_base"* %38, null, !dbg !4651
  br i1 %39, label %40, label %46, !dbg !4654

40:                                               ; preds = %34
  %41 = load %"struct.std::__detail::_Hash_node"*, %"struct.std::__detail::_Hash_node"** %11, align 8, !dbg !4655
  %42 = call %"struct.std::__detail::_Hash_node"* @_ZNKSt8__detail10_Hash_nodeISt4pairIKijELb0EE7_M_nextEv(%"struct.std::__detail::_Hash_node"* %41) #9, !dbg !4656
  %43 = call i64 @_ZNKSt10_HashtableIiSt4pairIKijESaIS2_ENSt8__detail10_Select1stESt8equal_toIiESt4hashIiENS4_18_Mod_range_hashingENS4_20_Default_ranged_hashENS4_20_Prime_rehash_policyENS4_17_Hashtable_traitsILb0ELb0ELb1EEEE15_M_bucket_indexEPNS4_10_Hash_nodeIS2_Lb0EEE(%"class.std::_Hashtable"* %12, %"struct.std::__detail::_Hash_node"* %42) #9, !dbg !4657
  %44 = load i64, i64* %7, align 8, !dbg !4658
  %45 = icmp ne i64 %43, %44, !dbg !4659
  br i1 %45, label %46, label %47, !dbg !4660

46:                                               ; preds = %40, %34
  br label %53, !dbg !4661

47:                                               ; preds = %40
  %48 = load %"struct.std::__detail::_Hash_node"*, %"struct.std::__detail::_Hash_node"** %11, align 8, !dbg !4662
  %49 = bitcast %"struct.std::__detail::_Hash_node"* %48 to %"struct.std::__detail::_Hash_node_base"*, !dbg !4662
  store %"struct.std::__detail::_Hash_node_base"* %49, %"struct.std::__detail::_Hash_node_base"** %10, align 8, !dbg !4663
  br label %50, !dbg !4664

50:                                               ; preds = %47
  %51 = load %"struct.std::__detail::_Hash_node"*, %"struct.std::__detail::_Hash_node"** %11, align 8, !dbg !4665
  %52 = call %"struct.std::__detail::_Hash_node"* @_ZNKSt8__detail10_Hash_nodeISt4pairIKijELb0EE7_M_nextEv(%"struct.std::__detail::_Hash_node"* %51) #9, !dbg !4666
  store %"struct.std::__detail::_Hash_node"* %52, %"struct.std::__detail::_Hash_node"** %11, align 8, !dbg !4667
  br label %26, !dbg !4668, !llvm.loop !4669

53:                                               ; preds = %46
  store %"struct.std::__detail::_Hash_node_base"* null, %"struct.std::__detail::_Hash_node_base"** %5, align 8, !dbg !4672
  br label %54, !dbg !4672

54:                                               ; preds = %53, %32, %20
  %55 = load %"struct.std::__detail::_Hash_node_base"*, %"struct.std::__detail::_Hash_node_base"** %5, align 8, !dbg !4673
  ret %"struct.std::__detail::_Hash_node_base"* %55, !dbg !4673
}

; Function Attrs: noinline uwtable
define linkonce_odr zeroext i1 @_ZNKSt8__detail15_Hashtable_baseIiSt4pairIKijENS_10_Select1stESt8equal_toIiESt4hashIiENS_18_Mod_range_hashingENS_20_Default_ranged_hashENS_17_Hashtable_traitsILb0ELb0ELb1EEEE9_M_equalsERS2_mPNS_10_Hash_nodeIS3_Lb0EEE(%"struct.std::__detail::_Hashtable_base"* %0, i32* dereferenceable(4) %1, i64 %2, %"struct.std::__detail::_Hash_node"* %3) #0 comdat align 2 !dbg !4674 {
  %5 = alloca %"struct.std::__detail::_Hashtable_base"*, align 8
  %6 = alloca i32*, align 8
  %7 = alloca i64, align 8
  %8 = alloca %"struct.std::__detail::_Hash_node"*, align 8
  store %"struct.std::__detail::_Hashtable_base"* %0, %"struct.std::__detail::_Hashtable_base"** %5, align 8
  call void @llvm.dbg.declare(metadata %"struct.std::__detail::_Hashtable_base"** %5, metadata !4675, metadata !DIExpression()), !dbg !4677
  store i32* %1, i32** %6, align 8
  call void @llvm.dbg.declare(metadata i32** %6, metadata !4678, metadata !DIExpression()), !dbg !4679
  store i64 %2, i64* %7, align 8
  call void @llvm.dbg.declare(metadata i64* %7, metadata !4680, metadata !DIExpression()), !dbg !4681
  store %"struct.std::__detail::_Hash_node"* %3, %"struct.std::__detail::_Hash_node"** %8, align 8
  call void @llvm.dbg.declare(metadata %"struct.std::__detail::_Hash_node"** %8, metadata !4682, metadata !DIExpression()), !dbg !4683
  %9 = load %"struct.std::__detail::_Hashtable_base"*, %"struct.std::__detail::_Hashtable_base"** %5, align 8
  %10 = load i64, i64* %7, align 8, !dbg !4684
  %11 = load %"struct.std::__detail::_Hash_node"*, %"struct.std::__detail::_Hash_node"** %8, align 8, !dbg !4685
  %12 = call zeroext i1 @_ZNSt8__detail15_Hashtable_baseIiSt4pairIKijENS_10_Select1stESt8equal_toIiESt4hashIiENS_18_Mod_range_hashingENS_20_Default_ranged_hashENS_17_Hashtable_traitsILb0ELb0ELb1EEEE16_Equal_hash_codeINS_10_Hash_nodeIS3_Lb0EEEE9_S_equalsEmRKSG_(i64 %10, %"struct.std::__detail::_Hash_node"* dereferenceable(16) %11), !dbg !4686
  br i1 %12, label %13, label %23, !dbg !4687

13:                                               ; preds = %4
  %14 = call dereferenceable(1) %"struct.std::equal_to"* @_ZNKSt8__detail15_Hashtable_baseIiSt4pairIKijENS_10_Select1stESt8equal_toIiESt4hashIiENS_18_Mod_range_hashingENS_20_Default_ranged_hashENS_17_Hashtable_traitsILb0ELb0ELb1EEEE5_M_eqEv(%"struct.std::__detail::_Hashtable_base"* %9), !dbg !4688
  %15 = load i32*, i32** %6, align 8, !dbg !4689
  %16 = bitcast %"struct.std::__detail::_Hashtable_base"* %9 to %"struct.std::__detail::_Hash_code_base"*, !dbg !4690
  %17 = call dereferenceable(1) %"struct.std::__detail::_Select1st"* @_ZNKSt8__detail15_Hash_code_baseIiSt4pairIKijENS_10_Select1stESt4hashIiENS_18_Mod_range_hashingENS_20_Default_ranged_hashELb0EE10_M_extractEv(%"struct.std::__detail::_Hash_code_base"* %16), !dbg !4690
  %18 = load %"struct.std::__detail::_Hash_node"*, %"struct.std::__detail::_Hash_node"** %8, align 8, !dbg !4691
  %19 = bitcast %"struct.std::__detail::_Hash_node"* %18 to %"struct.std::__detail::_Hash_node_value_base"*, !dbg !4692
  %20 = call dereferenceable(8) %"struct.std::pair"* @_ZNSt8__detail21_Hash_node_value_baseISt4pairIKijEE4_M_vEv(%"struct.std::__detail::_Hash_node_value_base"* %19) #9, !dbg !4692
  %21 = call dereferenceable(4) i32* @_ZNKSt8__detail10_Select1stclIRSt4pairIKijEEEDTclsr3stdE3getIXLi0EEEclsr3stdE7forwardIT_Efp_EEEOS6_(%"struct.std::__detail::_Select1st"* %17, %"struct.std::pair"* dereferenceable(8) %20), !dbg !4693
  %22 = call zeroext i1 @_ZNKSt8equal_toIiEclERKiS2_(%"struct.std::equal_to"* %14, i32* dereferenceable(4) %15, i32* dereferenceable(4) %21), !dbg !4688
  br label %23

23:                                               ; preds = %13, %4
  %24 = phi i1 [ false, %4 ], [ %22, %13 ], !dbg !4677
  ret i1 %24, !dbg !4694
}

; Function Attrs: noinline nounwind uwtable
define linkonce_odr i64 @_ZNKSt10_HashtableIiSt4pairIKijESaIS2_ENSt8__detail10_Select1stESt8equal_toIiESt4hashIiENS4_18_Mod_range_hashingENS4_20_Default_ranged_hashENS4_20_Prime_rehash_policyENS4_17_Hashtable_traitsILb0ELb0ELb1EEEE15_M_bucket_indexEPNS4_10_Hash_nodeIS2_Lb0EEE(%"class.std::_Hashtable"* %0, %"struct.std::__detail::_Hash_node"* %1) #4 comdat align 2 !dbg !4695 {
  %3 = alloca %"class.std::_Hashtable"*, align 8
  %4 = alloca %"struct.std::__detail::_Hash_node"*, align 8
  store %"class.std::_Hashtable"* %0, %"class.std::_Hashtable"** %3, align 8
  call void @llvm.dbg.declare(metadata %"class.std::_Hashtable"** %3, metadata !4696, metadata !DIExpression()), !dbg !4697
  store %"struct.std::__detail::_Hash_node"* %1, %"struct.std::__detail::_Hash_node"** %4, align 8
  call void @llvm.dbg.declare(metadata %"struct.std::__detail::_Hash_node"** %4, metadata !4698, metadata !DIExpression()), !dbg !4699
  %5 = load %"class.std::_Hashtable"*, %"class.std::_Hashtable"** %3, align 8
  %6 = bitcast %"class.std::_Hashtable"* %5 to %"struct.std::__detail::_Hash_code_base"*, !dbg !4700
  %7 = load %"struct.std::__detail::_Hash_node"*, %"struct.std::__detail::_Hash_node"** %4, align 8, !dbg !4701
  %8 = getelementptr inbounds %"class.std::_Hashtable", %"class.std::_Hashtable"* %5, i32 0, i32 1, !dbg !4702
  %9 = load i64, i64* %8, align 8, !dbg !4702
  %10 = call i64 @_ZNKSt8__detail15_Hash_code_baseIiSt4pairIKijENS_10_Select1stESt4hashIiENS_18_Mod_range_hashingENS_20_Default_ranged_hashELb0EE15_M_bucket_indexEPKNS_10_Hash_nodeIS3_Lb0EEEm(%"struct.std::__detail::_Hash_code_base"* %6, %"struct.std::__detail::_Hash_node"* %7, i64 %9) #9, !dbg !4700
  ret i64 %10, !dbg !4703
}

; Function Attrs: noinline nounwind uwtable
define linkonce_odr zeroext i1 @_ZNSt8__detail15_Hashtable_baseIiSt4pairIKijENS_10_Select1stESt8equal_toIiESt4hashIiENS_18_Mod_range_hashingENS_20_Default_ranged_hashENS_17_Hashtable_traitsILb0ELb0ELb1EEEE16_Equal_hash_codeINS_10_Hash_nodeIS3_Lb0EEEE9_S_equalsEmRKSG_(i64 %0, %"struct.std::__detail::_Hash_node"* dereferenceable(16) %1) #4 comdat align 2 !dbg !4704 {
  %3 = alloca i64, align 8
  %4 = alloca %"struct.std::__detail::_Hash_node"*, align 8
  store i64 %0, i64* %3, align 8
  call void @llvm.dbg.declare(metadata i64* %3, metadata !4712, metadata !DIExpression()), !dbg !4713
  store %"struct.std::__detail::_Hash_node"* %1, %"struct.std::__detail::_Hash_node"** %4, align 8
  call void @llvm.dbg.declare(metadata %"struct.std::__detail::_Hash_node"** %4, metadata !4714, metadata !DIExpression()), !dbg !4715
  ret i1 true, !dbg !4716
}

; Function Attrs: noinline uwtable
define linkonce_odr dereferenceable(1) %"struct.std::equal_to"* @_ZNKSt8__detail15_Hashtable_baseIiSt4pairIKijENS_10_Select1stESt8equal_toIiESt4hashIiENS_18_Mod_range_hashingENS_20_Default_ranged_hashENS_17_Hashtable_traitsILb0ELb0ELb1EEEE5_M_eqEv(%"struct.std::__detail::_Hashtable_base"* %0) #0 comdat align 2 !dbg !4717 {
  %2 = alloca %"struct.std::__detail::_Hashtable_base"*, align 8
  store %"struct.std::__detail::_Hashtable_base"* %0, %"struct.std::__detail::_Hashtable_base"** %2, align 8
  call void @llvm.dbg.declare(metadata %"struct.std::__detail::_Hashtable_base"** %2, metadata !4718, metadata !DIExpression()), !dbg !4719
  %3 = load %"struct.std::__detail::_Hashtable_base"*, %"struct.std::__detail::_Hashtable_base"** %2, align 8
  %4 = bitcast %"struct.std::__detail::_Hashtable_base"* %3 to %"struct.std::__detail::_Hashtable_ebo_helper.2"*, !dbg !4720
  %5 = call dereferenceable(1) %"struct.std::equal_to"* @_ZNKSt8__detail21_Hashtable_ebo_helperILi0ESt8equal_toIiELb1EE7_M_cgetEv(%"struct.std::__detail::_Hashtable_ebo_helper.2"* %4), !dbg !4720
  ret %"struct.std::equal_to"* %5, !dbg !4721
}

; Function Attrs: noinline nounwind uwtable
define linkonce_odr zeroext i1 @_ZNKSt8equal_toIiEclERKiS2_(%"struct.std::equal_to"* %0, i32* dereferenceable(4) %1, i32* dereferenceable(4) %2) #4 comdat align 2 !dbg !4722 {
  %4 = alloca %"struct.std::equal_to"*, align 8
  %5 = alloca i32*, align 8
  %6 = alloca i32*, align 8
  store %"struct.std::equal_to"* %0, %"struct.std::equal_to"** %4, align 8
  call void @llvm.dbg.declare(metadata %"struct.std::equal_to"** %4, metadata !4723, metadata !DIExpression()), !dbg !4725
  store i32* %1, i32** %5, align 8
  call void @llvm.dbg.declare(metadata i32** %5, metadata !4726, metadata !DIExpression()), !dbg !4727
  store i32* %2, i32** %6, align 8
  call void @llvm.dbg.declare(metadata i32** %6, metadata !4728, metadata !DIExpression()), !dbg !4729
  %7 = load %"struct.std::equal_to"*, %"struct.std::equal_to"** %4, align 8
  %8 = load i32*, i32** %5, align 8, !dbg !4730
  %9 = load i32, i32* %8, align 4, !dbg !4730
  %10 = load i32*, i32** %6, align 8, !dbg !4731
  %11 = load i32, i32* %10, align 4, !dbg !4731
  %12 = icmp eq i32 %9, %11, !dbg !4732
  ret i1 %12, !dbg !4733
}

; Function Attrs: noinline uwtable
define linkonce_odr dereferenceable(1) %"struct.std::__detail::_Select1st"* @_ZNKSt8__detail15_Hash_code_baseIiSt4pairIKijENS_10_Select1stESt4hashIiENS_18_Mod_range_hashingENS_20_Default_ranged_hashELb0EE10_M_extractEv(%"struct.std::__detail::_Hash_code_base"* %0) #0 comdat align 2 !dbg !4734 {
  %2 = alloca %"struct.std::__detail::_Hash_code_base"*, align 8
  store %"struct.std::__detail::_Hash_code_base"* %0, %"struct.std::__detail::_Hash_code_base"** %2, align 8
  call void @llvm.dbg.declare(metadata %"struct.std::__detail::_Hash_code_base"** %2, metadata !4735, metadata !DIExpression()), !dbg !4736
  %3 = load %"struct.std::__detail::_Hash_code_base"*, %"struct.std::__detail::_Hash_code_base"** %2, align 8
  %4 = bitcast %"struct.std::__detail::_Hash_code_base"* %3 to %"struct.std::__detail::_Hashtable_ebo_helper"*, !dbg !4737
  %5 = call dereferenceable(1) %"struct.std::__detail::_Select1st"* @_ZNKSt8__detail21_Hashtable_ebo_helperILi0ENS_10_Select1stELb1EE7_M_cgetEv(%"struct.std::__detail::_Hashtable_ebo_helper"* %4), !dbg !4737
  ret %"struct.std::__detail::_Select1st"* %5, !dbg !4738
}

; Function Attrs: noinline nounwind uwtable
define linkonce_odr dereferenceable(4) i32* @_ZNKSt8__detail10_Select1stclIRSt4pairIKijEEEDTclsr3stdE3getIXLi0EEEclsr3stdE7forwardIT_Efp_EEEOS6_(%"struct.std::__detail::_Select1st"* %0, %"struct.std::pair"* dereferenceable(8) %1) #4 comdat align 2 !dbg !4739 {
  %3 = alloca %"struct.std::__detail::_Select1st"*, align 8
  %4 = alloca %"struct.std::pair"*, align 8
  store %"struct.std::__detail::_Select1st"* %0, %"struct.std::__detail::_Select1st"** %3, align 8
  call void @llvm.dbg.declare(metadata %"struct.std::__detail::_Select1st"** %3, metadata !4751, metadata !DIExpression()), !dbg !4753
  store %"struct.std::pair"* %1, %"struct.std::pair"** %4, align 8
  call void @llvm.dbg.declare(metadata %"struct.std::pair"** %4, metadata !4754, metadata !DIExpression()), !dbg !4755
  %5 = load %"struct.std::__detail::_Select1st"*, %"struct.std::__detail::_Select1st"** %3, align 8
  %6 = load %"struct.std::pair"*, %"struct.std::pair"** %4, align 8, !dbg !4756
  %7 = call dereferenceable(8) %"struct.std::pair"* @_ZSt7forwardIRSt4pairIKijEEOT_RNSt16remove_referenceIS4_E4typeE(%"struct.std::pair"* dereferenceable(8) %6) #9, !dbg !4757
  %8 = call dereferenceable(4) i32* @_ZSt3getILm0EKijERNSt13tuple_elementIXT_ESt4pairIT0_T1_EE4typeERS5_(%"struct.std::pair"* dereferenceable(8) %7) #9, !dbg !4758
  ret i32* %8, !dbg !4759
}

; Function Attrs: noinline nounwind uwtable
define linkonce_odr dereferenceable(8) %"struct.std::pair"* @_ZNSt8__detail21_Hash_node_value_baseISt4pairIKijEE4_M_vEv(%"struct.std::__detail::_Hash_node_value_base"* %0) #4 comdat align 2 !dbg !4760 {
  %2 = alloca %"struct.std::__detail::_Hash_node_value_base"*, align 8
  store %"struct.std::__detail::_Hash_node_value_base"* %0, %"struct.std::__detail::_Hash_node_value_base"** %2, align 8
  call void @llvm.dbg.declare(metadata %"struct.std::__detail::_Hash_node_value_base"** %2, metadata !4761, metadata !DIExpression()), !dbg !4762
  %3 = load %"struct.std::__detail::_Hash_node_value_base"*, %"struct.std::__detail::_Hash_node_value_base"** %2, align 8
  %4 = call %"struct.std::pair"* @_ZNSt8__detail21_Hash_node_value_baseISt4pairIKijEE9_M_valptrEv(%"struct.std::__detail::_Hash_node_value_base"* %3) #9, !dbg !4763
  ret %"struct.std::pair"* %4, !dbg !4764
}

; Function Attrs: noinline nounwind uwtable
define linkonce_odr dereferenceable(1) %"struct.std::equal_to"* @_ZNKSt8__detail21_Hashtable_ebo_helperILi0ESt8equal_toIiELb1EE7_M_cgetEv(%"struct.std::__detail::_Hashtable_ebo_helper.2"* %0) #4 comdat align 2 !dbg !4765 {
  %2 = alloca %"struct.std::__detail::_Hashtable_ebo_helper.2"*, align 8
  store %"struct.std::__detail::_Hashtable_ebo_helper.2"* %0, %"struct.std::__detail::_Hashtable_ebo_helper.2"** %2, align 8
  call void @llvm.dbg.declare(metadata %"struct.std::__detail::_Hashtable_ebo_helper.2"** %2, metadata !4766, metadata !DIExpression()), !dbg !4768
  %3 = load %"struct.std::__detail::_Hashtable_ebo_helper.2"*, %"struct.std::__detail::_Hashtable_ebo_helper.2"** %2, align 8
  %4 = bitcast %"struct.std::__detail::_Hashtable_ebo_helper.2"* %3 to %"struct.std::equal_to"*, !dbg !4769
  ret %"struct.std::equal_to"* %4, !dbg !4770
}

; Function Attrs: noinline nounwind uwtable
define linkonce_odr dereferenceable(1) %"struct.std::__detail::_Select1st"* @_ZNKSt8__detail21_Hashtable_ebo_helperILi0ENS_10_Select1stELb1EE7_M_cgetEv(%"struct.std::__detail::_Hashtable_ebo_helper"* %0) #4 comdat align 2 !dbg !4771 {
  %2 = alloca %"struct.std::__detail::_Hashtable_ebo_helper"*, align 8
  store %"struct.std::__detail::_Hashtable_ebo_helper"* %0, %"struct.std::__detail::_Hashtable_ebo_helper"** %2, align 8
  call void @llvm.dbg.declare(metadata %"struct.std::__detail::_Hashtable_ebo_helper"** %2, metadata !4772, metadata !DIExpression()), !dbg !4774
  %3 = load %"struct.std::__detail::_Hashtable_ebo_helper"*, %"struct.std::__detail::_Hashtable_ebo_helper"** %2, align 8
  %4 = bitcast %"struct.std::__detail::_Hashtable_ebo_helper"* %3 to %"struct.std::__detail::_Select1st"*, !dbg !4775
  ret %"struct.std::__detail::_Select1st"* %4, !dbg !4776
}

; Function Attrs: noinline nounwind uwtable
define linkonce_odr dereferenceable(4) i32* @_ZSt3getILm0EKijERNSt13tuple_elementIXT_ESt4pairIT0_T1_EE4typeERS5_(%"struct.std::pair"* dereferenceable(8) %0) #4 comdat !dbg !4777 {
  %2 = alloca %"struct.std::pair"*, align 8
  store %"struct.std::pair"* %0, %"struct.std::pair"** %2, align 8
  call void @llvm.dbg.declare(metadata %"struct.std::pair"** %2, metadata !4784, metadata !DIExpression()), !dbg !4785
  %3 = load %"struct.std::pair"*, %"struct.std::pair"** %2, align 8, !dbg !4786
  %4 = call dereferenceable(4) i32* @_ZNSt10__pair_getILm0EE5__getIKijEERT_RSt4pairIS3_T0_E(%"struct.std::pair"* dereferenceable(8) %3) #9, !dbg !4787
  ret i32* %4, !dbg !4788
}

; Function Attrs: noinline nounwind uwtable
define linkonce_odr dereferenceable(8) %"struct.std::pair"* @_ZSt7forwardIRSt4pairIKijEEOT_RNSt16remove_referenceIS4_E4typeE(%"struct.std::pair"* dereferenceable(8) %0) #4 comdat !dbg !4789 {
  %2 = alloca %"struct.std::pair"*, align 8
  store %"struct.std::pair"* %0, %"struct.std::pair"** %2, align 8
  call void @llvm.dbg.declare(metadata %"struct.std::pair"** %2, metadata !4795, metadata !DIExpression()), !dbg !4796
  %3 = load %"struct.std::pair"*, %"struct.std::pair"** %2, align 8, !dbg !4797
  ret %"struct.std::pair"* %3, !dbg !4798
}

; Function Attrs: noinline nounwind uwtable
define linkonce_odr dereferenceable(4) i32* @_ZNSt10__pair_getILm0EE5__getIKijEERT_RSt4pairIS3_T0_E(%"struct.std::pair"* dereferenceable(8) %0) #4 comdat align 2 !dbg !4799 {
  %2 = alloca %"struct.std::pair"*, align 8
  store %"struct.std::pair"* %0, %"struct.std::pair"** %2, align 8
  call void @llvm.dbg.declare(metadata %"struct.std::pair"** %2, metadata !4806, metadata !DIExpression()), !dbg !4807
  %3 = load %"struct.std::pair"*, %"struct.std::pair"** %2, align 8, !dbg !4808
  %4 = getelementptr inbounds %"struct.std::pair", %"struct.std::pair"* %3, i32 0, i32 0, !dbg !4809
  ret i32* %4, !dbg !4810
}

; Function Attrs: noinline nounwind uwtable
define linkonce_odr i64 @_ZNKSt8__detail15_Hash_code_baseIiSt4pairIKijENS_10_Select1stESt4hashIiENS_18_Mod_range_hashingENS_20_Default_ranged_hashELb0EE15_M_bucket_indexEPKNS_10_Hash_nodeIS3_Lb0EEEm(%"struct.std::__detail::_Hash_code_base"* %0, %"struct.std::__detail::_Hash_node"* %1, i64 %2) #4 comdat align 2 personality i8* bitcast (i32 (...)* @__gxx_personality_v0 to i8*) !dbg !4811 {
  %4 = alloca %"struct.std::__detail::_Hash_code_base"*, align 8
  %5 = alloca %"struct.std::__detail::_Hash_node"*, align 8
  %6 = alloca i64, align 8
  store %"struct.std::__detail::_Hash_code_base"* %0, %"struct.std::__detail::_Hash_code_base"** %4, align 8
  call void @llvm.dbg.declare(metadata %"struct.std::__detail::_Hash_code_base"** %4, metadata !4812, metadata !DIExpression()), !dbg !4813
  store %"struct.std::__detail::_Hash_node"* %1, %"struct.std::__detail::_Hash_node"** %5, align 8
  call void @llvm.dbg.declare(metadata %"struct.std::__detail::_Hash_node"** %5, metadata !4814, metadata !DIExpression()), !dbg !4815
  store i64 %2, i64* %6, align 8
  call void @llvm.dbg.declare(metadata i64* %6, metadata !4816, metadata !DIExpression()), !dbg !4817
  %7 = load %"struct.std::__detail::_Hash_code_base"*, %"struct.std::__detail::_Hash_code_base"** %4, align 8
  %8 = invoke dereferenceable(1) %"struct.std::__detail::_Mod_range_hashing"* @_ZNKSt8__detail15_Hash_code_baseIiSt4pairIKijENS_10_Select1stESt4hashIiENS_18_Mod_range_hashingENS_20_Default_ranged_hashELb0EE5_M_h2Ev(%"struct.std::__detail::_Hash_code_base"* %7)
          to label %9 unwind label %23, !dbg !4818

9:                                                ; preds = %3
  %10 = invoke dereferenceable(1) %"struct.std::hash"* @_ZNKSt8__detail15_Hash_code_baseIiSt4pairIKijENS_10_Select1stESt4hashIiENS_18_Mod_range_hashingENS_20_Default_ranged_hashELb0EE5_M_h1Ev(%"struct.std::__detail::_Hash_code_base"* %7)
          to label %11 unwind label %23, !dbg !4819

11:                                               ; preds = %9
  %12 = invoke dereferenceable(1) %"struct.std::__detail::_Select1st"* @_ZNKSt8__detail15_Hash_code_baseIiSt4pairIKijENS_10_Select1stESt4hashIiENS_18_Mod_range_hashingENS_20_Default_ranged_hashELb0EE10_M_extractEv(%"struct.std::__detail::_Hash_code_base"* %7)
          to label %13 unwind label %23, !dbg !4820

13:                                               ; preds = %11
  %14 = load %"struct.std::__detail::_Hash_node"*, %"struct.std::__detail::_Hash_node"** %5, align 8, !dbg !4821
  %15 = bitcast %"struct.std::__detail::_Hash_node"* %14 to %"struct.std::__detail::_Hash_node_value_base"*, !dbg !4822
  %16 = call dereferenceable(8) %"struct.std::pair"* @_ZNKSt8__detail21_Hash_node_value_baseISt4pairIKijEE4_M_vEv(%"struct.std::__detail::_Hash_node_value_base"* %15) #9, !dbg !4822
  %17 = invoke dereferenceable(4) i32* @_ZNKSt8__detail10_Select1stclIRKSt4pairIKijEEEDTclsr3stdE3getIXLi0EEEclsr3stdE7forwardIT_Efp_EEEOS7_(%"struct.std::__detail::_Select1st"* %12, %"struct.std::pair"* dereferenceable(8) %16)
          to label %18 unwind label %23, !dbg !4820

18:                                               ; preds = %13
  %19 = load i32, i32* %17, align 4, !dbg !4820
  %20 = call i64 @_ZNKSt4hashIiEclEi(%"struct.std::hash"* %10, i32 %19) #9, !dbg !4819
  %21 = load i64, i64* %6, align 8, !dbg !4823
  %22 = call i64 @_ZNKSt8__detail18_Mod_range_hashingclEmm(%"struct.std::__detail::_Mod_range_hashing"* %8, i64 %20, i64 %21) #9, !dbg !4818
  ret i64 %22, !dbg !4824

23:                                               ; preds = %13, %11, %9, %3
  %24 = landingpad { i8*, i32 }
          catch i8* null, !dbg !4818
  %25 = extractvalue { i8*, i32 } %24, 0, !dbg !4818
  call void @__clang_call_terminate(i8* %25) #15, !dbg !4818
  unreachable, !dbg !4818
}

; Function Attrs: noinline nounwind uwtable
define linkonce_odr dereferenceable(4) i32* @_ZNKSt8__detail10_Select1stclIRKSt4pairIKijEEEDTclsr3stdE3getIXLi0EEEclsr3stdE7forwardIT_Efp_EEEOS7_(%"struct.std::__detail::_Select1st"* %0, %"struct.std::pair"* dereferenceable(8) %1) #4 comdat align 2 !dbg !4825 {
  %3 = alloca %"struct.std::__detail::_Select1st"*, align 8
  %4 = alloca %"struct.std::pair"*, align 8
  store %"struct.std::__detail::_Select1st"* %0, %"struct.std::__detail::_Select1st"** %3, align 8
  call void @llvm.dbg.declare(metadata %"struct.std::__detail::_Select1st"** %3, metadata !4833, metadata !DIExpression()), !dbg !4834
  store %"struct.std::pair"* %1, %"struct.std::pair"** %4, align 8
  call void @llvm.dbg.declare(metadata %"struct.std::pair"** %4, metadata !4835, metadata !DIExpression()), !dbg !4836
  %5 = load %"struct.std::__detail::_Select1st"*, %"struct.std::__detail::_Select1st"** %3, align 8
  %6 = load %"struct.std::pair"*, %"struct.std::pair"** %4, align 8, !dbg !4837
  %7 = call dereferenceable(8) %"struct.std::pair"* @_ZSt7forwardIRKSt4pairIKijEEOT_RNSt16remove_referenceIS5_E4typeE(%"struct.std::pair"* dereferenceable(8) %6) #9, !dbg !4838
  %8 = call dereferenceable(4) i32* @_ZSt3getILm0EKijERKNSt13tuple_elementIXT_ESt4pairIT0_T1_EE4typeERKS5_(%"struct.std::pair"* dereferenceable(8) %7) #9, !dbg !4839
  ret i32* %8, !dbg !4840
}

; Function Attrs: noinline nounwind uwtable
define linkonce_odr dereferenceable(8) %"struct.std::pair"* @_ZNKSt8__detail21_Hash_node_value_baseISt4pairIKijEE4_M_vEv(%"struct.std::__detail::_Hash_node_value_base"* %0) #4 comdat align 2 !dbg !4841 {
  %2 = alloca %"struct.std::__detail::_Hash_node_value_base"*, align 8
  store %"struct.std::__detail::_Hash_node_value_base"* %0, %"struct.std::__detail::_Hash_node_value_base"** %2, align 8
  call void @llvm.dbg.declare(metadata %"struct.std::__detail::_Hash_node_value_base"** %2, metadata !4842, metadata !DIExpression()), !dbg !4844
  %3 = load %"struct.std::__detail::_Hash_node_value_base"*, %"struct.std::__detail::_Hash_node_value_base"** %2, align 8
  %4 = call %"struct.std::pair"* @_ZNKSt8__detail21_Hash_node_value_baseISt4pairIKijEE9_M_valptrEv(%"struct.std::__detail::_Hash_node_value_base"* %3) #9, !dbg !4845
  ret %"struct.std::pair"* %4, !dbg !4846
}

; Function Attrs: noinline nounwind uwtable
define linkonce_odr dereferenceable(4) i32* @_ZSt3getILm0EKijERKNSt13tuple_elementIXT_ESt4pairIT0_T1_EE4typeERKS5_(%"struct.std::pair"* dereferenceable(8) %0) #4 comdat !dbg !4847 {
  %2 = alloca %"struct.std::pair"*, align 8
  store %"struct.std::pair"* %0, %"struct.std::pair"** %2, align 8
  call void @llvm.dbg.declare(metadata %"struct.std::pair"** %2, metadata !4850, metadata !DIExpression()), !dbg !4851
  %3 = load %"struct.std::pair"*, %"struct.std::pair"** %2, align 8, !dbg !4852
  %4 = call dereferenceable(4) i32* @_ZNSt10__pair_getILm0EE11__const_getIKijEERKT_RKSt4pairIS3_T0_E(%"struct.std::pair"* dereferenceable(8) %3) #9, !dbg !4853
  ret i32* %4, !dbg !4854
}

; Function Attrs: noinline nounwind uwtable
define linkonce_odr dereferenceable(8) %"struct.std::pair"* @_ZSt7forwardIRKSt4pairIKijEEOT_RNSt16remove_referenceIS5_E4typeE(%"struct.std::pair"* dereferenceable(8) %0) #4 comdat !dbg !4855 {
  %2 = alloca %"struct.std::pair"*, align 8
  store %"struct.std::pair"* %0, %"struct.std::pair"** %2, align 8
  call void @llvm.dbg.declare(metadata %"struct.std::pair"** %2, metadata !4861, metadata !DIExpression()), !dbg !4862
  %3 = load %"struct.std::pair"*, %"struct.std::pair"** %2, align 8, !dbg !4863
  ret %"struct.std::pair"* %3, !dbg !4864
}

; Function Attrs: noinline nounwind uwtable
define linkonce_odr dereferenceable(4) i32* @_ZNSt10__pair_getILm0EE11__const_getIKijEERKT_RKSt4pairIS3_T0_E(%"struct.std::pair"* dereferenceable(8) %0) #4 comdat align 2 !dbg !4865 {
  %2 = alloca %"struct.std::pair"*, align 8
  store %"struct.std::pair"* %0, %"struct.std::pair"** %2, align 8
  call void @llvm.dbg.declare(metadata %"struct.std::pair"** %2, metadata !4869, metadata !DIExpression()), !dbg !4870
  %3 = load %"struct.std::pair"*, %"struct.std::pair"** %2, align 8, !dbg !4871
  %4 = getelementptr inbounds %"struct.std::pair", %"struct.std::pair"* %3, i32 0, i32 0, !dbg !4872
  ret i32* %4, !dbg !4873
}

; Function Attrs: noinline nounwind uwtable
define linkonce_odr %"struct.std::pair"* @_ZNKSt8__detail21_Hash_node_value_baseISt4pairIKijEE9_M_valptrEv(%"struct.std::__detail::_Hash_node_value_base"* %0) #4 comdat align 2 !dbg !4874 {
  %2 = alloca %"struct.std::__detail::_Hash_node_value_base"*, align 8
  store %"struct.std::__detail::_Hash_node_value_base"* %0, %"struct.std::__detail::_Hash_node_value_base"** %2, align 8
  call void @llvm.dbg.declare(metadata %"struct.std::__detail::_Hash_node_value_base"** %2, metadata !4875, metadata !DIExpression()), !dbg !4876
  %3 = load %"struct.std::__detail::_Hash_node_value_base"*, %"struct.std::__detail::_Hash_node_value_base"** %2, align 8
  %4 = getelementptr inbounds %"struct.std::__detail::_Hash_node_value_base", %"struct.std::__detail::_Hash_node_value_base"* %3, i32 0, i32 1, !dbg !4877
  %5 = call %"struct.std::pair"* @_ZNK9__gnu_cxx16__aligned_bufferISt4pairIKijEE6_M_ptrEv(%"struct.__gnu_cxx::__aligned_buffer"* %4) #9, !dbg !4878
  ret %"struct.std::pair"* %5, !dbg !4879
}

; Function Attrs: noinline nounwind uwtable
define linkonce_odr %"struct.std::pair"* @_ZNK9__gnu_cxx16__aligned_bufferISt4pairIKijEE6_M_ptrEv(%"struct.__gnu_cxx::__aligned_buffer"* %0) #4 comdat align 2 !dbg !4880 {
  %2 = alloca %"struct.__gnu_cxx::__aligned_buffer"*, align 8
  store %"struct.__gnu_cxx::__aligned_buffer"* %0, %"struct.__gnu_cxx::__aligned_buffer"** %2, align 8
  call void @llvm.dbg.declare(metadata %"struct.__gnu_cxx::__aligned_buffer"** %2, metadata !4881, metadata !DIExpression()), !dbg !4883
  %3 = load %"struct.__gnu_cxx::__aligned_buffer"*, %"struct.__gnu_cxx::__aligned_buffer"** %2, align 8
  %4 = call i8* @_ZNK9__gnu_cxx16__aligned_bufferISt4pairIKijEE7_M_addrEv(%"struct.__gnu_cxx::__aligned_buffer"* %3) #9, !dbg !4884
  %5 = bitcast i8* %4 to %"struct.std::pair"*, !dbg !4885
  ret %"struct.std::pair"* %5, !dbg !4886
}

; Function Attrs: noinline nounwind uwtable
define linkonce_odr i8* @_ZNK9__gnu_cxx16__aligned_bufferISt4pairIKijEE7_M_addrEv(%"struct.__gnu_cxx::__aligned_buffer"* %0) #4 comdat align 2 !dbg !4887 {
  %2 = alloca %"struct.__gnu_cxx::__aligned_buffer"*, align 8
  store %"struct.__gnu_cxx::__aligned_buffer"* %0, %"struct.__gnu_cxx::__aligned_buffer"** %2, align 8
  call void @llvm.dbg.declare(metadata %"struct.__gnu_cxx::__aligned_buffer"** %2, metadata !4888, metadata !DIExpression()), !dbg !4889
  %3 = load %"struct.__gnu_cxx::__aligned_buffer"*, %"struct.__gnu_cxx::__aligned_buffer"** %2, align 8
  %4 = getelementptr inbounds %"struct.__gnu_cxx::__aligned_buffer", %"struct.__gnu_cxx::__aligned_buffer"* %3, i32 0, i32 0, !dbg !4890
  %5 = bitcast %"union.std::aligned_storage<8, 4>::type"* %4 to i8*, !dbg !4891
  ret i8* %5, !dbg !4892
}

; Function Attrs: noinline nounwind uwtable
define linkonce_odr void @_ZNSt8__detail19_Node_iterator_baseISt4pairIKijELb0EEC2EPNS_10_Hash_nodeIS3_Lb0EEE(%"struct.std::__detail::_Node_iterator_base"* %0, %"struct.std::__detail::_Hash_node"* %1) unnamed_addr #4 comdat align 2 !dbg !4893 {
  %3 = alloca %"struct.std::__detail::_Node_iterator_base"*, align 8
  %4 = alloca %"struct.std::__detail::_Hash_node"*, align 8
  store %"struct.std::__detail::_Node_iterator_base"* %0, %"struct.std::__detail::_Node_iterator_base"** %3, align 8
  call void @llvm.dbg.declare(metadata %"struct.std::__detail::_Node_iterator_base"** %3, metadata !4894, metadata !DIExpression()), !dbg !4896
  store %"struct.std::__detail::_Hash_node"* %1, %"struct.std::__detail::_Hash_node"** %4, align 8
  call void @llvm.dbg.declare(metadata %"struct.std::__detail::_Hash_node"** %4, metadata !4897, metadata !DIExpression()), !dbg !4898
  %5 = load %"struct.std::__detail::_Node_iterator_base"*, %"struct.std::__detail::_Node_iterator_base"** %3, align 8
  %6 = getelementptr inbounds %"struct.std::__detail::_Node_iterator_base", %"struct.std::__detail::_Node_iterator_base"* %5, i32 0, i32 0, !dbg !4899
  %7 = load %"struct.std::__detail::_Hash_node"*, %"struct.std::__detail::_Hash_node"** %4, align 8, !dbg !4900
  store %"struct.std::__detail::_Hash_node"* %7, %"struct.std::__detail::_Hash_node"** %6, align 8, !dbg !4899
  ret void, !dbg !4901
}

declare void @mark_pse_symbolic(i8*, i64, i8*, i64, i64) #3

; Function Attrs: noinline nounwind uwtable
