; ModuleID = 'src/extras/flips.cpp'
source_filename = "src/extras/flips.cpp"
target datalayout = "e-m:e-p270:32:32-p271:32:32-p272:64:64-i64:64-f80:128-n8:16:32:64-S128"
target triple = "x86_64-pc-linux-gnu"

%"class.std::__cxx11::basic_string" = type { %"struct.std::__cxx11::basic_string<char, std::char_traits<char>, std::allocator<char> >::_Alloc_hider", i64, %union.anon }
%"struct.std::__cxx11::basic_string<char, std::char_traits<char>, std::allocator<char> >::_Alloc_hider" = type { i8* }
%union.anon = type { i64, [8 x i8] }
%"class.std::allocator" = type { i8 }
%"struct.std::__false_type" = type { i8 }
%"struct.std::forward_iterator_tag" = type { i8 }
%"struct.std::random_access_iterator_tag" = type { i8 }

$_ZNSt7__cxx119to_stringEi = comdat any

$_ZNSt7__cxx1112basic_stringIcSt11char_traitsIcESaIcEEC2IS3_EEPKcRKS3_ = comdat any

$_Z17make_pse_symbolicIiEvPvmPKcOT_S4_ = comdat any

$_ZStplIcSt11char_traitsIcESaIcEENSt7__cxx1112basic_stringIT_T0_T1_EEPKS5_OS8_ = comdat any

$_ZNSt7__cxx119to_stringEm = comdat any

$_ZNSt8__detail14__to_chars_lenIjEEjT_i = comdat any

$_ZNSt7__cxx1112basic_stringIcSt11char_traitsIcESaIcEEC2IS3_EEmcRKS3_ = comdat any

$_ZNSt8__detail18__to_chars_10_implIjEEvPcjT_ = comdat any

$_ZNSt7__cxx1112basic_stringIcSt11char_traitsIcESaIcEE12_Alloc_hiderD2Ev = comdat any

$_ZNSt8__detail14__to_chars_lenImEEjT_i = comdat any

$_ZNSt8__detail18__to_chars_10_implImEEvPcjT_ = comdat any

$_ZNSt7__cxx1112basic_stringIcSt11char_traitsIcESaIcEE12_M_constructIPKcEEvT_S8_ = comdat any

$_ZNSt11char_traitsIcE6lengthEPKc = comdat any

$_ZNSt7__cxx1112basic_stringIcSt11char_traitsIcESaIcEE16_M_construct_auxIPKcEEvT_S8_St12__false_type = comdat any

$_ZNSt7__cxx1112basic_stringIcSt11char_traitsIcESaIcEE12_M_constructIPKcEEvT_S8_St20forward_iterator_tag = comdat any

$_ZN9__gnu_cxx17__is_null_pointerIKcEEbPT_ = comdat any

$_ZSt8distanceIPKcENSt15iterator_traitsIT_E15difference_typeES3_S3_ = comdat any

$__clang_call_terminate = comdat any

$_ZSt10__distanceIPKcENSt15iterator_traitsIT_E15difference_typeES3_S3_St26random_access_iterator_tag = comdat any

$_ZSt19__iterator_categoryIPKcENSt15iterator_traitsIT_E17iterator_categoryERKS3_ = comdat any

$_ZN9__gnu_cxx11char_traitsIcE6lengthEPKc = comdat any

$_ZN9__gnu_cxx11char_traitsIcE2eqERKcS3_ = comdat any

$_ZSt3minIiERKT_S2_S2_ = comdat any

$_ZSt3maxIiERKT_S2_S2_ = comdat any

$_ZSt4moveIRNSt7__cxx1112basic_stringIcSt11char_traitsIcESaIcEEEEONSt16remove_referenceIT_E4typeEOS8_ = comdat any

$_ZZNSt8__detail18__to_chars_10_implIjEEvPcjT_E8__digits = comdat any

$_ZZNSt8__detail18__to_chars_10_implImEEvPcjT_E8__digits = comdat any

@.str = private unnamed_addr constant [5 x i8] c"num_\00", align 1
@.str.1 = private unnamed_addr constant [5 x i8] c"_sym\00", align 1
@.str.2 = private unnamed_addr constant [7 x i8] c"denom_\00", align 1
@.str.3 = private unnamed_addr constant [13 x i8] c"setFraction_\00", align 1
@.str.4 = private unnamed_addr constant [7 x i8] c"b1_sym\00", align 1
@.str.5 = private unnamed_addr constant [7 x i8] c"b2_sym\00", align 1
@.str.6 = private unnamed_addr constant [8 x i8] c"SUM_sym\00", align 1
@.str.7 = private unnamed_addr constant [9 x i8] c"temp_c1_\00", align 1
@.str.8 = private unnamed_addr constant [9 x i8] c"temp_c2_\00", align 1
@.str.9 = private unnamed_addr constant [4 x i8] c"SUM\00", align 1
@_ZZNSt8__detail18__to_chars_10_implIjEEvPcjT_E8__digits = linkonce_odr constant [201 x i8] c"00010203040506070809101112131415161718192021222324252627282930313233343536373839404142434445464748495051525354555657585960616263646566676869707172737475767778798081828384858687888990919293949596979899\00", comdat, align 16, !dbg !0
@_ZZNSt8__detail18__to_chars_10_implImEEvPcjT_E8__digits = linkonce_odr constant [201 x i8] c"00010203040506070809101112131415161718192021222324252627282930313233343536373839404142434445464748495051525354555657585960616263646566676869707172737475767778798081828384858687888990919293949596979899\00", comdat, align 16, !dbg !88
@.str.10 = private unnamed_addr constant [42 x i8] c"basic_string::_M_construct null not valid\00", align 1

; Function Attrs: noinline uwtable
define void @_Z16setFractionValuePviii(i8* %0, i32 %1, i32 %2, i32 %3) #0 personality i8* bitcast (i32 (...)* @__gxx_personality_v0 to i8*) !dbg !1259 {
  %5 = alloca i8*, align 8
  %6 = alloca i32, align 4
  %7 = alloca i32, align 4
  %8 = alloca i32, align 4
  %9 = alloca i32, align 4
  %10 = alloca i32, align 4
  %11 = alloca %"class.std::__cxx11::basic_string", align 8
  %12 = alloca %"class.std::__cxx11::basic_string", align 8
  %13 = alloca %"class.std::allocator", align 1
  %14 = alloca i8*
  %15 = alloca i32
  %16 = alloca %"class.std::__cxx11::basic_string", align 8
  %17 = alloca %"class.std::allocator", align 1
  %18 = alloca %"class.std::__cxx11::basic_string", align 8
  %19 = alloca %"class.std::allocator", align 1
  store i8* %0, i8** %5, align 8
  call void @llvm.dbg.declare(metadata i8** %5, metadata !1263, metadata !DIExpression()), !dbg !1264
  store i32 %1, i32* %6, align 4
  call void @llvm.dbg.declare(metadata i32* %6, metadata !1265, metadata !DIExpression()), !dbg !1266
  store i32 %2, i32* %7, align 4
  call void @llvm.dbg.declare(metadata i32* %7, metadata !1267, metadata !DIExpression()), !dbg !1268
  store i32 %3, i32* %8, align 4
  call void @llvm.dbg.declare(metadata i32* %8, metadata !1269, metadata !DIExpression()), !dbg !1270
  call void @llvm.dbg.declare(metadata i32* %9, metadata !1271, metadata !DIExpression()), !dbg !1272
  call void @llvm.dbg.declare(metadata i32* %10, metadata !1273, metadata !DIExpression()), !dbg !1274
  call void @llvm.dbg.declare(metadata %"class.std::__cxx11::basic_string"* %11, metadata !1275, metadata !DIExpression()), !dbg !1278
  %20 = load i32, i32* %8, align 4, !dbg !1279
  call void @_ZNSt7__cxx119to_stringEi(%"class.std::__cxx11::basic_string"* sret %11, i32 %20), !dbg !1280
  call void @llvm.dbg.declare(metadata %"class.std::__cxx11::basic_string"* %12, metadata !1281, metadata !DIExpression()), !dbg !1282
  call void @_ZNSaIcEC1Ev(%"class.std::allocator"* %13) #8, !dbg !1282
  invoke void @_ZNSt7__cxx1112basic_stringIcSt11char_traitsIcESaIcEEC2IS3_EEPKcRKS3_(%"class.std::__cxx11::basic_string"* %12, i8* getelementptr inbounds ([5 x i8], [5 x i8]* @.str, i64 0, i64 0), %"class.std::allocator"* dereferenceable(1) %13)
          to label %21 unwind label %59, !dbg !1282

21:                                               ; preds = %4
  call void @_ZNSaIcED1Ev(%"class.std::allocator"* %13) #8, !dbg !1282
  %22 = invoke dereferenceable(32) %"class.std::__cxx11::basic_string"* @_ZNSt7__cxx1112basic_stringIcSt11char_traitsIcESaIcEEpLERKS4_(%"class.std::__cxx11::basic_string"* %12, %"class.std::__cxx11::basic_string"* dereferenceable(32) %11)
          to label %23 unwind label %63, !dbg !1283

23:                                               ; preds = %21
  %24 = invoke dereferenceable(32) %"class.std::__cxx11::basic_string"* @_ZNSt7__cxx1112basic_stringIcSt11char_traitsIcESaIcEEpLEPKc(%"class.std::__cxx11::basic_string"* %12, i8* getelementptr inbounds ([5 x i8], [5 x i8]* @.str.1, i64 0, i64 0))
          to label %25 unwind label %63, !dbg !1284

25:                                               ; preds = %23
  call void @llvm.dbg.declare(metadata %"class.std::__cxx11::basic_string"* %16, metadata !1285, metadata !DIExpression()), !dbg !1286
  call void @_ZNSaIcEC1Ev(%"class.std::allocator"* %17) #8, !dbg !1286
  invoke void @_ZNSt7__cxx1112basic_stringIcSt11char_traitsIcESaIcEEC2IS3_EEPKcRKS3_(%"class.std::__cxx11::basic_string"* %16, i8* getelementptr inbounds ([7 x i8], [7 x i8]* @.str.2, i64 0, i64 0), %"class.std::allocator"* dereferenceable(1) %17)
          to label %26 unwind label %67, !dbg !1286

26:                                               ; preds = %25
  call void @_ZNSaIcED1Ev(%"class.std::allocator"* %17) #8, !dbg !1286
  %27 = invoke dereferenceable(32) %"class.std::__cxx11::basic_string"* @_ZNSt7__cxx1112basic_stringIcSt11char_traitsIcESaIcEEpLERKS4_(%"class.std::__cxx11::basic_string"* %16, %"class.std::__cxx11::basic_string"* dereferenceable(32) %11)
          to label %28 unwind label %71, !dbg !1287

28:                                               ; preds = %26
  %29 = invoke dereferenceable(32) %"class.std::__cxx11::basic_string"* @_ZNSt7__cxx1112basic_stringIcSt11char_traitsIcESaIcEEpLEPKc(%"class.std::__cxx11::basic_string"* %16, i8* getelementptr inbounds ([5 x i8], [5 x i8]* @.str.1, i64 0, i64 0))
          to label %30 unwind label %71, !dbg !1288

30:                                               ; preds = %28
  call void @llvm.dbg.declare(metadata %"class.std::__cxx11::basic_string"* %18, metadata !1289, metadata !DIExpression()), !dbg !1290
  call void @_ZNSaIcEC1Ev(%"class.std::allocator"* %19) #8, !dbg !1290
  invoke void @_ZNSt7__cxx1112basic_stringIcSt11char_traitsIcESaIcEEC2IS3_EEPKcRKS3_(%"class.std::__cxx11::basic_string"* %18, i8* getelementptr inbounds ([13 x i8], [13 x i8]* @.str.3, i64 0, i64 0), %"class.std::allocator"* dereferenceable(1) %19)
          to label %31 unwind label %75, !dbg !1290

31:                                               ; preds = %30
  call void @_ZNSaIcED1Ev(%"class.std::allocator"* %19) #8, !dbg !1290
  %32 = invoke dereferenceable(32) %"class.std::__cxx11::basic_string"* @_ZNSt7__cxx1112basic_stringIcSt11char_traitsIcESaIcEEpLERKS4_(%"class.std::__cxx11::basic_string"* %18, %"class.std::__cxx11::basic_string"* dereferenceable(32) %11)
          to label %33 unwind label %79, !dbg !1291

33:                                               ; preds = %31
  %34 = bitcast i32* %9 to i8*, !dbg !1292
  %35 = call i8* @_ZNKSt7__cxx1112basic_stringIcSt11char_traitsIcESaIcEE5c_strEv(%"class.std::__cxx11::basic_string"* %12) #8, !dbg !1293
  invoke void @klee_make_symbolic(i8* %34, i64 4, i8* %35)
          to label %36 unwind label %79, !dbg !1294

36:                                               ; preds = %33
  %37 = bitcast i32* %10 to i8*, !dbg !1295
  %38 = call i8* @_ZNKSt7__cxx1112basic_stringIcSt11char_traitsIcESaIcEE5c_strEv(%"class.std::__cxx11::basic_string"* %16) #8, !dbg !1296
  invoke void @klee_make_symbolic(i8* %37, i64 4, i8* %38)
          to label %39 unwind label %79, !dbg !1297

39:                                               ; preds = %36
  %40 = load i32, i32* %6, align 4, !dbg !1298
  store i32 %40, i32* %9, align 4, !dbg !1299
  %41 = load i32, i32* %7, align 4, !dbg !1300
  store i32 %41, i32* %10, align 4, !dbg !1301
  %42 = load i32, i32* %9, align 4, !dbg !1302
  %43 = sitofp i32 %42 to double, !dbg !1302
  %44 = load i32, i32* %10, align 4, !dbg !1303
  %45 = sitofp i32 %44 to double, !dbg !1303
  %46 = fdiv double %43, %45, !dbg !1304
  %47 = load i8*, i8** %5, align 8, !dbg !1305
  %48 = bitcast i8* %47 to double*, !dbg !1306
  store double %46, double* %48, align 8, !dbg !1307
  %49 = bitcast i32* %9 to i8*, !dbg !1308
  %50 = call i8* @_ZNKSt7__cxx1112basic_stringIcSt11char_traitsIcESaIcEE5c_strEv(%"class.std::__cxx11::basic_string"* %12) #8, !dbg !1309
  invoke void @klee_dump_symbolic_details(i8* %49, i8* %50)
          to label %51 unwind label %79, !dbg !1310

51:                                               ; preds = %39
  %52 = bitcast i32* %10 to i8*, !dbg !1311
  %53 = call i8* @_ZNKSt7__cxx1112basic_stringIcSt11char_traitsIcESaIcEE5c_strEv(%"class.std::__cxx11::basic_string"* %16) #8, !dbg !1312
  invoke void @klee_dump_symbolic_details(i8* %52, i8* %53)
          to label %54 unwind label %79, !dbg !1313

54:                                               ; preds = %51
  %55 = load i8*, i8** %5, align 8, !dbg !1314
  %56 = call i8* @_ZNKSt7__cxx1112basic_stringIcSt11char_traitsIcESaIcEE5c_strEv(%"class.std::__cxx11::basic_string"* %18) #8, !dbg !1315
  invoke void @klee_dump_symbolic_details(i8* %55, i8* %56)
          to label %57 unwind label %79, !dbg !1316

57:                                               ; preds = %54
  invoke void @klee_dump_kquery_state()
          to label %58 unwind label %79, !dbg !1317

58:                                               ; preds = %57
  call void @_ZNSt7__cxx1112basic_stringIcSt11char_traitsIcESaIcEED1Ev(%"class.std::__cxx11::basic_string"* %18) #8, !dbg !1318
  call void @_ZNSt7__cxx1112basic_stringIcSt11char_traitsIcESaIcEED1Ev(%"class.std::__cxx11::basic_string"* %16) #8, !dbg !1318
  call void @_ZNSt7__cxx1112basic_stringIcSt11char_traitsIcESaIcEED1Ev(%"class.std::__cxx11::basic_string"* %12) #8, !dbg !1318
  call void @_ZNSt7__cxx1112basic_stringIcSt11char_traitsIcESaIcEED1Ev(%"class.std::__cxx11::basic_string"* %11) #8, !dbg !1318
  ret void, !dbg !1318

59:                                               ; preds = %4
  %60 = landingpad { i8*, i32 }
          cleanup, !dbg !1318
  %61 = extractvalue { i8*, i32 } %60, 0, !dbg !1318
  store i8* %61, i8** %14, align 8, !dbg !1318
  %62 = extractvalue { i8*, i32 } %60, 1, !dbg !1318
  store i32 %62, i32* %15, align 4, !dbg !1318
  call void @_ZNSaIcED1Ev(%"class.std::allocator"* %13) #8, !dbg !1282
  br label %85, !dbg !1282

63:                                               ; preds = %23, %21
  %64 = landingpad { i8*, i32 }
          cleanup, !dbg !1318
  %65 = extractvalue { i8*, i32 } %64, 0, !dbg !1318
  store i8* %65, i8** %14, align 8, !dbg !1318
  %66 = extractvalue { i8*, i32 } %64, 1, !dbg !1318
  store i32 %66, i32* %15, align 4, !dbg !1318
  br label %84, !dbg !1318

67:                                               ; preds = %25
  %68 = landingpad { i8*, i32 }
          cleanup, !dbg !1318
  %69 = extractvalue { i8*, i32 } %68, 0, !dbg !1318
  store i8* %69, i8** %14, align 8, !dbg !1318
  %70 = extractvalue { i8*, i32 } %68, 1, !dbg !1318
  store i32 %70, i32* %15, align 4, !dbg !1318
  call void @_ZNSaIcED1Ev(%"class.std::allocator"* %17) #8, !dbg !1286
  br label %84, !dbg !1286

71:                                               ; preds = %28, %26
  %72 = landingpad { i8*, i32 }
          cleanup, !dbg !1318
  %73 = extractvalue { i8*, i32 } %72, 0, !dbg !1318
  store i8* %73, i8** %14, align 8, !dbg !1318
  %74 = extractvalue { i8*, i32 } %72, 1, !dbg !1318
  store i32 %74, i32* %15, align 4, !dbg !1318
  br label %83, !dbg !1318

75:                                               ; preds = %30
  %76 = landingpad { i8*, i32 }
          cleanup, !dbg !1318
  %77 = extractvalue { i8*, i32 } %76, 0, !dbg !1318
  store i8* %77, i8** %14, align 8, !dbg !1318
  %78 = extractvalue { i8*, i32 } %76, 1, !dbg !1318
  store i32 %78, i32* %15, align 4, !dbg !1318
  call void @_ZNSaIcED1Ev(%"class.std::allocator"* %19) #8, !dbg !1290
  br label %83, !dbg !1290

79:                                               ; preds = %57, %54, %51, %39, %36, %33, %31
  %80 = landingpad { i8*, i32 }
          cleanup, !dbg !1318
  %81 = extractvalue { i8*, i32 } %80, 0, !dbg !1318
  store i8* %81, i8** %14, align 8, !dbg !1318
  %82 = extractvalue { i8*, i32 } %80, 1, !dbg !1318
  store i32 %82, i32* %15, align 4, !dbg !1318
  call void @_ZNSt7__cxx1112basic_stringIcSt11char_traitsIcESaIcEED1Ev(%"class.std::__cxx11::basic_string"* %18) #8, !dbg !1318
  br label %83, !dbg !1318

83:                                               ; preds = %79, %75, %71
  call void @_ZNSt7__cxx1112basic_stringIcSt11char_traitsIcESaIcEED1Ev(%"class.std::__cxx11::basic_string"* %16) #8, !dbg !1318
  br label %84, !dbg !1318

84:                                               ; preds = %83, %67, %63
  call void @_ZNSt7__cxx1112basic_stringIcSt11char_traitsIcESaIcEED1Ev(%"class.std::__cxx11::basic_string"* %12) #8, !dbg !1318
  br label %85, !dbg !1318

85:                                               ; preds = %84, %59
  call void @_ZNSt7__cxx1112basic_stringIcSt11char_traitsIcESaIcEED1Ev(%"class.std::__cxx11::basic_string"* %11) #8, !dbg !1318
  br label %86, !dbg !1318

86:                                               ; preds = %85
  %87 = load i8*, i8** %14, align 8, !dbg !1318
  %88 = load i32, i32* %15, align 4, !dbg !1318
  %89 = insertvalue { i8*, i32 } undef, i8* %87, 0, !dbg !1318
  %90 = insertvalue { i8*, i32 } %89, i32 %88, 1, !dbg !1318
  resume { i8*, i32 } %90, !dbg !1318
}

; Function Attrs: nounwind readnone speculatable willreturn
declare void @llvm.dbg.declare(metadata, metadata, metadata) #1

; Function Attrs: noinline uwtable
define linkonce_odr void @_ZNSt7__cxx119to_stringEi(%"class.std::__cxx11::basic_string"* noalias sret %0, i32 %1) #0 comdat personality i8* bitcast (i32 (...)* @__gxx_personality_v0 to i8*) !dbg !1319 {
  %3 = alloca i8*, align 8
  %4 = alloca i32, align 4
  %5 = alloca i8, align 1
  %6 = alloca i32, align 4
  %7 = alloca i32, align 4
  %8 = alloca i1, align 1
  %9 = alloca %"class.std::allocator", align 1
  %10 = alloca i8*
  %11 = alloca i32
  %12 = bitcast %"class.std::__cxx11::basic_string"* %0 to i8*
  store i8* %12, i8** %3, align 8
  store i32 %1, i32* %4, align 4
  call void @llvm.dbg.declare(metadata i32* %4, metadata !1322, metadata !DIExpression()), !dbg !1323
  call void @llvm.dbg.declare(metadata i8* %5, metadata !1324, metadata !DIExpression()), !dbg !1326
  %13 = load i32, i32* %4, align 4, !dbg !1327
  %14 = icmp slt i32 %13, 0, !dbg !1328
  %15 = zext i1 %14 to i8, !dbg !1326
  store i8 %15, i8* %5, align 1, !dbg !1326
  call void @llvm.dbg.declare(metadata i32* %6, metadata !1329, metadata !DIExpression()), !dbg !1331
  %16 = load i8, i8* %5, align 1, !dbg !1332
  %17 = trunc i8 %16 to i1, !dbg !1332
  br i1 %17, label %18, label %22, !dbg !1332

18:                                               ; preds = %2
  %19 = load i32, i32* %4, align 4, !dbg !1333
  %20 = xor i32 %19, -1, !dbg !1334
  %21 = add i32 %20, 1, !dbg !1335
  br label %24, !dbg !1332

22:                                               ; preds = %2
  %23 = load i32, i32* %4, align 4, !dbg !1336
  br label %24, !dbg !1332

24:                                               ; preds = %22, %18
  %25 = phi i32 [ %21, %18 ], [ %23, %22 ], !dbg !1332
  store i32 %25, i32* %6, align 4, !dbg !1331
  call void @llvm.dbg.declare(metadata i32* %7, metadata !1337, metadata !DIExpression()), !dbg !1338
  %26 = load i32, i32* %6, align 4, !dbg !1339
  %27 = call i32 @_ZNSt8__detail14__to_chars_lenIjEEjT_i(i32 %26, i32 10) #8, !dbg !1340
  store i32 %27, i32* %7, align 4, !dbg !1338
  store i1 false, i1* %8, align 1, !dbg !1341
  call void @llvm.dbg.declare(metadata i8** %3, metadata !1342, metadata !DIExpression(DW_OP_deref)), !dbg !1343
  %28 = load i8, i8* %5, align 1, !dbg !1344
  %29 = trunc i8 %28 to i1, !dbg !1344
  %30 = zext i1 %29 to i32, !dbg !1344
  %31 = load i32, i32* %7, align 4, !dbg !1345
  %32 = add i32 %30, %31, !dbg !1346
  %33 = zext i32 %32 to i64, !dbg !1344
  call void @_ZNSaIcEC1Ev(%"class.std::allocator"* %9) #8, !dbg !1343
  invoke void @_ZNSt7__cxx1112basic_stringIcSt11char_traitsIcESaIcEEC2IS3_EEmcRKS3_(%"class.std::__cxx11::basic_string"* %0, i64 %33, i8 signext 45, %"class.std::allocator"* dereferenceable(1) %9)
          to label %34 unwind label %43, !dbg !1343

34:                                               ; preds = %24
  call void @_ZNSaIcED1Ev(%"class.std::allocator"* %9) #8, !dbg !1343
  %35 = load i8, i8* %5, align 1, !dbg !1347
  %36 = trunc i8 %35 to i1, !dbg !1347
  %37 = zext i1 %36 to i64, !dbg !1347
  %38 = invoke dereferenceable(1) i8* @_ZNSt7__cxx1112basic_stringIcSt11char_traitsIcESaIcEEixEm(%"class.std::__cxx11::basic_string"* %0, i64 %37)
          to label %39 unwind label %47, !dbg !1348

39:                                               ; preds = %34
  %40 = load i32, i32* %7, align 4, !dbg !1349
  %41 = load i32, i32* %6, align 4, !dbg !1350
  call void @_ZNSt8__detail18__to_chars_10_implIjEEvPcjT_(i8* %38, i32 %40, i32 %41) #8, !dbg !1351
  store i1 true, i1* %8, align 1, !dbg !1352
  %42 = load i1, i1* %8, align 1, !dbg !1353
  br i1 %42, label %52, label %51, !dbg !1353

43:                                               ; preds = %24
  %44 = landingpad { i8*, i32 }
          cleanup, !dbg !1353
  %45 = extractvalue { i8*, i32 } %44, 0, !dbg !1353
  store i8* %45, i8** %10, align 8, !dbg !1353
  %46 = extractvalue { i8*, i32 } %44, 1, !dbg !1353
  store i32 %46, i32* %11, align 4, !dbg !1353
  call void @_ZNSaIcED1Ev(%"class.std::allocator"* %9) #8, !dbg !1343
  br label %53, !dbg !1343

47:                                               ; preds = %34
  %48 = landingpad { i8*, i32 }
          cleanup, !dbg !1353
  %49 = extractvalue { i8*, i32 } %48, 0, !dbg !1353
  store i8* %49, i8** %10, align 8, !dbg !1353
  %50 = extractvalue { i8*, i32 } %48, 1, !dbg !1353
  store i32 %50, i32* %11, align 4, !dbg !1353
  call void @_ZNSt7__cxx1112basic_stringIcSt11char_traitsIcESaIcEED1Ev(%"class.std::__cxx11::basic_string"* %0) #8, !dbg !1353
  br label %53, !dbg !1353

51:                                               ; preds = %39
  call void @_ZNSt7__cxx1112basic_stringIcSt11char_traitsIcESaIcEED1Ev(%"class.std::__cxx11::basic_string"* %0) #8, !dbg !1353
  br label %52, !dbg !1353

52:                                               ; preds = %51, %39
  ret void, !dbg !1353

53:                                               ; preds = %47, %43
  %54 = load i8*, i8** %10, align 8, !dbg !1343
  %55 = load i32, i32* %11, align 4, !dbg !1343
  %56 = insertvalue { i8*, i32 } undef, i8* %54, 0, !dbg !1343
  %57 = insertvalue { i8*, i32 } %56, i32 %55, 1, !dbg !1343
  resume { i8*, i32 } %57, !dbg !1343
}

; Function Attrs: nounwind
declare void @_ZNSaIcEC1Ev(%"class.std::allocator"*) unnamed_addr #2

; Function Attrs: noinline uwtable
define linkonce_odr void @_ZNSt7__cxx1112basic_stringIcSt11char_traitsIcESaIcEEC2IS3_EEPKcRKS3_(%"class.std::__cxx11::basic_string"* %0, i8* %1, %"class.std::allocator"* dereferenceable(1) %2) unnamed_addr #0 comdat align 2 personality i8* bitcast (i32 (...)* @__gxx_personality_v0 to i8*) !dbg !1354 {
  %4 = alloca %"class.std::__cxx11::basic_string"*, align 8
  %5 = alloca i8*, align 8
  %6 = alloca %"class.std::allocator"*, align 8
  %7 = alloca i8*
  %8 = alloca i32
  store %"class.std::__cxx11::basic_string"* %0, %"class.std::__cxx11::basic_string"** %4, align 8
  call void @llvm.dbg.declare(metadata %"class.std::__cxx11::basic_string"** %4, metadata !1361, metadata !DIExpression()), !dbg !1363
  store i8* %1, i8** %5, align 8
  call void @llvm.dbg.declare(metadata i8** %5, metadata !1364, metadata !DIExpression()), !dbg !1365
  store %"class.std::allocator"* %2, %"class.std::allocator"** %6, align 8
  call void @llvm.dbg.declare(metadata %"class.std::allocator"** %6, metadata !1366, metadata !DIExpression()), !dbg !1367
  %9 = load %"class.std::__cxx11::basic_string"*, %"class.std::__cxx11::basic_string"** %4, align 8
  %10 = getelementptr inbounds %"class.std::__cxx11::basic_string", %"class.std::__cxx11::basic_string"* %9, i32 0, i32 0, !dbg !1368
  %11 = call i8* @_ZNSt7__cxx1112basic_stringIcSt11char_traitsIcESaIcEE13_M_local_dataEv(%"class.std::__cxx11::basic_string"* %9), !dbg !1369
  %12 = load %"class.std::allocator"*, %"class.std::allocator"** %6, align 8, !dbg !1370
  call void @_ZNSt7__cxx1112basic_stringIcSt11char_traitsIcESaIcEE12_Alloc_hiderC1EPcRKS3_(%"struct.std::__cxx11::basic_string<char, std::char_traits<char>, std::allocator<char> >::_Alloc_hider"* %10, i8* %11, %"class.std::allocator"* dereferenceable(1) %12), !dbg !1368
  %13 = load i8*, i8** %5, align 8, !dbg !1371
  %14 = load i8*, i8** %5, align 8, !dbg !1373
  %15 = icmp ne i8* %14, null, !dbg !1373
  br i1 %15, label %16, label %22, !dbg !1373

16:                                               ; preds = %3
  %17 = load i8*, i8** %5, align 8, !dbg !1374
  %18 = load i8*, i8** %5, align 8, !dbg !1375
  %19 = invoke i64 @_ZNSt11char_traitsIcE6lengthEPKc(i8* %18)
          to label %20 unwind label %28, !dbg !1376

20:                                               ; preds = %16
  %21 = getelementptr inbounds i8, i8* %17, i64 %19, !dbg !1377
  br label %25, !dbg !1373

22:                                               ; preds = %3
  %23 = load i8*, i8** %5, align 8, !dbg !1378
  %24 = getelementptr inbounds i8, i8* %23, i64 -1, !dbg !1379
  br label %25, !dbg !1373

25:                                               ; preds = %22, %20
  %26 = phi i8* [ %21, %20 ], [ %24, %22 ], !dbg !1373
  invoke void @_ZNSt7__cxx1112basic_stringIcSt11char_traitsIcESaIcEE12_M_constructIPKcEEvT_S8_(%"class.std::__cxx11::basic_string"* %9, i8* %13, i8* %26)
          to label %27 unwind label %28, !dbg !1380

27:                                               ; preds = %25
  ret void, !dbg !1381

28:                                               ; preds = %25, %16
  %29 = landingpad { i8*, i32 }
          cleanup, !dbg !1382
  %30 = extractvalue { i8*, i32 } %29, 0, !dbg !1382
  store i8* %30, i8** %7, align 8, !dbg !1382
  %31 = extractvalue { i8*, i32 } %29, 1, !dbg !1382
  store i32 %31, i32* %8, align 4, !dbg !1382
  call void @_ZNSt7__cxx1112basic_stringIcSt11char_traitsIcESaIcEE12_Alloc_hiderD2Ev(%"struct.std::__cxx11::basic_string<char, std::char_traits<char>, std::allocator<char> >::_Alloc_hider"* %10) #8, !dbg !1382
  br label %32, !dbg !1382

32:                                               ; preds = %28
  %33 = load i8*, i8** %7, align 8, !dbg !1382
  %34 = load i32, i32* %8, align 4, !dbg !1382
  %35 = insertvalue { i8*, i32 } undef, i8* %33, 0, !dbg !1382
  %36 = insertvalue { i8*, i32 } %35, i32 %34, 1, !dbg !1382
  resume { i8*, i32 } %36, !dbg !1382
}

declare i32 @__gxx_personality_v0(...)

; Function Attrs: nounwind
declare void @_ZNSaIcED1Ev(%"class.std::allocator"*) unnamed_addr #2

declare dereferenceable(32) %"class.std::__cxx11::basic_string"* @_ZNSt7__cxx1112basic_stringIcSt11char_traitsIcESaIcEEpLERKS4_(%"class.std::__cxx11::basic_string"*, %"class.std::__cxx11::basic_string"* dereferenceable(32)) #3

declare dereferenceable(32) %"class.std::__cxx11::basic_string"* @_ZNSt7__cxx1112basic_stringIcSt11char_traitsIcESaIcEEpLEPKc(%"class.std::__cxx11::basic_string"*, i8*) #3

declare void @klee_make_symbolic(i8*, i64, i8*) #3

; Function Attrs: nounwind
declare i8* @_ZNKSt7__cxx1112basic_stringIcSt11char_traitsIcESaIcEE5c_strEv(%"class.std::__cxx11::basic_string"*) #2

declare void @klee_dump_symbolic_details(i8*, i8*) #3

declare void @klee_dump_kquery_state() #3

; Function Attrs: nounwind
declare void @_ZNSt7__cxx1112basic_stringIcSt11char_traitsIcESaIcEED1Ev(%"class.std::__cxx11::basic_string"*) unnamed_addr #2

; Function Attrs: noinline norecurse uwtable
define i32 @main(i32 %0, i8** %1) #4 personality i8* bitcast (i32 (...)* @__gxx_personality_v0 to i8*) !dbg !1383 {
  %3 = alloca i32, align 4
  %4 = alloca i32, align 4
  %5 = alloca i8**, align 8
  %6 = alloca i32, align 4
  %7 = alloca i32, align 4
  %8 = alloca i32, align 4
  %9 = alloca i32, align 4
  %10 = alloca i32, align 4
  %11 = alloca [3 x i32], align 4
  %12 = alloca [3 x i32], align 4
  %13 = alloca i32, align 4
  %14 = alloca i32, align 4
  %15 = alloca i64, align 8
  %16 = alloca i32, align 4
  %17 = alloca i32, align 4
  %18 = alloca %"class.std::__cxx11::basic_string", align 8
  %19 = alloca %"class.std::__cxx11::basic_string", align 8
  %20 = alloca i8*
  %21 = alloca i32
  %22 = alloca i64, align 8
  %23 = alloca i32, align 4
  %24 = alloca i32, align 4
  %25 = alloca %"class.std::__cxx11::basic_string", align 8
  %26 = alloca %"class.std::__cxx11::basic_string", align 8
  store i32 0, i32* %3, align 4
  store i32 %0, i32* %4, align 4
  call void @llvm.dbg.declare(metadata i32* %4, metadata !1386, metadata !DIExpression()), !dbg !1387
  store i8** %1, i8*** %5, align 8
  call void @llvm.dbg.declare(metadata i8*** %5, metadata !1388, metadata !DIExpression()), !dbg !1389
  call void @llvm.dbg.declare(metadata i32* %6, metadata !1390, metadata !DIExpression()), !dbg !1391
  store i32 0, i32* %6, align 4, !dbg !1391
  call void @llvm.dbg.declare(metadata i32* %7, metadata !1392, metadata !DIExpression()), !dbg !1393
  store i32 0, i32* %7, align 4, !dbg !1393
  call void @llvm.dbg.declare(metadata i32* %8, metadata !1394, metadata !DIExpression()), !dbg !1395
  call void @llvm.dbg.declare(metadata i32* %9, metadata !1396, metadata !DIExpression()), !dbg !1397
  call void @llvm.dbg.declare(metadata i32* %10, metadata !1398, metadata !DIExpression()), !dbg !1399
  call void @llvm.dbg.declare(metadata [3 x i32]* %11, metadata !1400, metadata !DIExpression()), !dbg !1404
  call void @llvm.dbg.declare(metadata [3 x i32]* %12, metadata !1405, metadata !DIExpression()), !dbg !1406
  %27 = bitcast i32* %8 to i8*, !dbg !1407
  call void @klee_make_symbolic(i8* %27, i64 4, i8* getelementptr inbounds ([7 x i8], [7 x i8]* @.str.4, i64 0, i64 0)), !dbg !1408
  %28 = bitcast i32* %9 to i8*, !dbg !1409
  call void @klee_make_symbolic(i8* %28, i64 4, i8* getelementptr inbounds ([7 x i8], [7 x i8]* @.str.5, i64 0, i64 0)), !dbg !1410
  %29 = load i32, i32* %8, align 4, !dbg !1411
  %30 = icmp sge i32 %29, 1, !dbg !1412
  br i1 %30, label %31, label %34, !dbg !1413

31:                                               ; preds = %2
  %32 = load i32, i32* %8, align 4, !dbg !1414
  %33 = icmp sle i32 %32, 10000, !dbg !1415
  br label %34

34:                                               ; preds = %31, %2
  %35 = phi i1 [ false, %2 ], [ %33, %31 ], !dbg !1416
  %36 = zext i1 %35 to i64, !dbg !1411
  call void @klee_assume(i64 %36), !dbg !1417
  %37 = load i32, i32* %9, align 4, !dbg !1418
  %38 = icmp sge i32 %37, 1, !dbg !1419
  br i1 %38, label %39, label %42, !dbg !1420

39:                                               ; preds = %34
  %40 = load i32, i32* %9, align 4, !dbg !1421
  %41 = icmp sle i32 %40, 10000, !dbg !1422
  br label %42

42:                                               ; preds = %39, %34
  %43 = phi i1 [ false, %34 ], [ %41, %39 ], !dbg !1416
  %44 = zext i1 %43 to i64, !dbg !1418
  call void @klee_assume(i64 %44), !dbg !1423
  %45 = bitcast i32* %10 to i8*, !dbg !1424
  store i32 0, i32* %13, align 4, !dbg !1425
  store i32 4, i32* %14, align 4, !dbg !1426
  call void @_Z17make_pse_symbolicIiEvPvmPKcOT_S4_(i8* %45, i64 4, i8* getelementptr inbounds ([8 x i8], [8 x i8]* @.str.6, i64 0, i64 0), i32* dereferenceable(4) %13, i32* dereferenceable(4) %14), !dbg !1427
  store i32 0, i32* %10, align 4, !dbg !1428
  call void @llvm.dbg.declare(metadata i64* %15, metadata !1429, metadata !DIExpression()), !dbg !1431
  store i64 0, i64* %15, align 8, !dbg !1431
  br label %46, !dbg !1432

46:                                               ; preds = %93, %42
  %47 = load i64, i64* %15, align 8, !dbg !1433
  %48 = icmp ult i64 %47, 3, !dbg !1435
  br i1 %48, label %49, label %96, !dbg !1436

49:                                               ; preds = %46
  call void @llvm.dbg.declare(metadata i32* %16, metadata !1437, metadata !DIExpression()), !dbg !1439
  call void @llvm.dbg.declare(metadata i32* %17, metadata !1440, metadata !DIExpression()), !dbg !1441
  call void @llvm.dbg.declare(metadata %"class.std::__cxx11::basic_string"* %18, metadata !1442, metadata !DIExpression()), !dbg !1443
  %50 = load i64, i64* %15, align 8, !dbg !1444
  call void @_ZNSt7__cxx119to_stringEm(%"class.std::__cxx11::basic_string"* sret %19, i64 %50), !dbg !1445
  invoke void @_ZStplIcSt11char_traitsIcESaIcEENSt7__cxx1112basic_stringIT_T0_T1_EEPKS5_OS8_(%"class.std::__cxx11::basic_string"* sret %18, i8* getelementptr inbounds ([9 x i8], [9 x i8]* @.str.7, i64 0, i64 0), %"class.std::__cxx11::basic_string"* dereferenceable(32) %19)
          to label %51 unwind label %80, !dbg !1446

51:                                               ; preds = %49
  call void @_ZNSt7__cxx1112basic_stringIcSt11char_traitsIcESaIcEED1Ev(%"class.std::__cxx11::basic_string"* %19) #8, !dbg !1447
  %52 = bitcast i32* %16 to i8*, !dbg !1448
  %53 = call i8* @_ZNKSt7__cxx1112basic_stringIcSt11char_traitsIcESaIcEE5c_strEv(%"class.std::__cxx11::basic_string"* %18) #8, !dbg !1449
  invoke void @klee_make_symbolic(i8* %52, i64 4, i8* %53)
          to label %54 unwind label %84, !dbg !1450

54:                                               ; preds = %51
  %55 = load i32, i32* %16, align 4, !dbg !1451
  %56 = icmp sge i32 %55, 1, !dbg !1452
  br i1 %56, label %57, label %60, !dbg !1453

57:                                               ; preds = %54
  %58 = load i32, i32* %16, align 4, !dbg !1454
  %59 = icmp sle i32 %58, 10000, !dbg !1455
  br label %60

60:                                               ; preds = %57, %54
  %61 = phi i1 [ false, %54 ], [ %59, %57 ], !dbg !1456
  %62 = zext i1 %61 to i64, !dbg !1451
  invoke void @klee_assume(i64 %62)
          to label %63 unwind label %84, !dbg !1457

63:                                               ; preds = %60
  %64 = load i32, i32* %16, align 4, !dbg !1458
  %65 = icmp sge i32 %64, 1, !dbg !1459
  br i1 %65, label %66, label %69, !dbg !1460

66:                                               ; preds = %63
  %67 = load i32, i32* %16, align 4, !dbg !1461
  %68 = icmp sle i32 %67, 10000, !dbg !1462
  br label %69

69:                                               ; preds = %66, %63
  %70 = phi i1 [ false, %63 ], [ %68, %66 ], !dbg !1456
  %71 = zext i1 %70 to i64, !dbg !1458
  invoke void @klee_assume(i64 %71)
          to label %72 unwind label %84, !dbg !1463

72:                                               ; preds = %69
  %73 = load i32, i32* %16, align 4, !dbg !1464
  %74 = load i64, i64* %15, align 8, !dbg !1465
  %75 = getelementptr inbounds [3 x i32], [3 x i32]* %11, i64 0, i64 %74, !dbg !1466
  store i32 %73, i32* %75, align 4, !dbg !1467
  %76 = load i32, i32* %16, align 4, !dbg !1468
  %77 = load i32, i32* %8, align 4, !dbg !1470
  %78 = icmp sge i32 %76, %77, !dbg !1471
  br i1 %78, label %79, label %88, !dbg !1472

79:                                               ; preds = %72
  store i32 1, i32* %17, align 4, !dbg !1473
  br label %89, !dbg !1474

80:                                               ; preds = %49
  %81 = landingpad { i8*, i32 }
          cleanup, !dbg !1475
  %82 = extractvalue { i8*, i32 } %81, 0, !dbg !1475
  store i8* %82, i8** %20, align 8, !dbg !1475
  %83 = extractvalue { i8*, i32 } %81, 1, !dbg !1475
  store i32 %83, i32* %21, align 4, !dbg !1475
  call void @_ZNSt7__cxx1112basic_stringIcSt11char_traitsIcESaIcEED1Ev(%"class.std::__cxx11::basic_string"* %19) #8, !dbg !1447
  br label %153, !dbg !1447

84:                                               ; preds = %69, %60, %51
  %85 = landingpad { i8*, i32 }
          cleanup, !dbg !1475
  %86 = extractvalue { i8*, i32 } %85, 0, !dbg !1475
  store i8* %86, i8** %20, align 8, !dbg !1475
  %87 = extractvalue { i8*, i32 } %85, 1, !dbg !1475
  store i32 %87, i32* %21, align 4, !dbg !1475
  call void @_ZNSt7__cxx1112basic_stringIcSt11char_traitsIcESaIcEED1Ev(%"class.std::__cxx11::basic_string"* %18) #8, !dbg !1476
  br label %153, !dbg !1476

88:                                               ; preds = %72
  store i32 0, i32* %17, align 4, !dbg !1477
  br label %89

89:                                               ; preds = %88, %79
  %90 = load i32, i32* %17, align 4, !dbg !1478
  %91 = load i32, i32* %6, align 4, !dbg !1479
  %92 = add nsw i32 %91, %90, !dbg !1479
  store i32 %92, i32* %6, align 4, !dbg !1479
  call void @_ZNSt7__cxx1112basic_stringIcSt11char_traitsIcESaIcEED1Ev(%"class.std::__cxx11::basic_string"* %18) #8, !dbg !1476
  br label %93, !dbg !1480

93:                                               ; preds = %89
  %94 = load i64, i64* %15, align 8, !dbg !1481
  %95 = add i64 %94, 1, !dbg !1481
  store i64 %95, i64* %15, align 8, !dbg !1481
  br label %46, !dbg !1482, !llvm.loop !1483

96:                                               ; preds = %46
  call void @llvm.dbg.declare(metadata i64* %22, metadata !1485, metadata !DIExpression()), !dbg !1487
  store i64 0, i64* %22, align 8, !dbg !1487
  br label %97, !dbg !1488

97:                                               ; preds = %144, %96
  %98 = load i64, i64* %22, align 8, !dbg !1489
  %99 = icmp ult i64 %98, 3, !dbg !1491
  br i1 %99, label %100, label %147, !dbg !1492

100:                                              ; preds = %97
  call void @llvm.dbg.declare(metadata i32* %23, metadata !1493, metadata !DIExpression()), !dbg !1495
  call void @llvm.dbg.declare(metadata i32* %24, metadata !1496, metadata !DIExpression()), !dbg !1497
  call void @llvm.dbg.declare(metadata %"class.std::__cxx11::basic_string"* %25, metadata !1498, metadata !DIExpression()), !dbg !1499
  %101 = load i64, i64* %22, align 8, !dbg !1500
  call void @_ZNSt7__cxx119to_stringEm(%"class.std::__cxx11::basic_string"* sret %26, i64 %101), !dbg !1501
  invoke void @_ZStplIcSt11char_traitsIcESaIcEENSt7__cxx1112basic_stringIT_T0_T1_EEPKS5_OS8_(%"class.std::__cxx11::basic_string"* sret %25, i8* getelementptr inbounds ([9 x i8], [9 x i8]* @.str.8, i64 0, i64 0), %"class.std::__cxx11::basic_string"* dereferenceable(32) %26)
          to label %102 unwind label %131, !dbg !1502

102:                                              ; preds = %100
  call void @_ZNSt7__cxx1112basic_stringIcSt11char_traitsIcESaIcEED1Ev(%"class.std::__cxx11::basic_string"* %26) #8, !dbg !1503
  %103 = bitcast i32* %23 to i8*, !dbg !1504
  %104 = call i8* @_ZNKSt7__cxx1112basic_stringIcSt11char_traitsIcESaIcEE5c_strEv(%"class.std::__cxx11::basic_string"* %25) #8, !dbg !1505
  invoke void @klee_make_symbolic(i8* %103, i64 4, i8* %104)
          to label %105 unwind label %135, !dbg !1506

105:                                              ; preds = %102
  %106 = load i32, i32* %23, align 4, !dbg !1507
  %107 = icmp sge i32 %106, 1, !dbg !1508
  br i1 %107, label %108, label %111, !dbg !1509

108:                                              ; preds = %105
  %109 = load i32, i32* %23, align 4, !dbg !1510
  %110 = icmp sle i32 %109, 10000, !dbg !1511
  br label %111

111:                                              ; preds = %108, %105
  %112 = phi i1 [ false, %105 ], [ %110, %108 ], !dbg !1512
  %113 = zext i1 %112 to i64, !dbg !1507
  invoke void @klee_assume(i64 %113)
          to label %114 unwind label %135, !dbg !1513

114:                                              ; preds = %111
  %115 = load i32, i32* %23, align 4, !dbg !1514
  %116 = icmp sge i32 %115, 1, !dbg !1515
  br i1 %116, label %117, label %120, !dbg !1516

117:                                              ; preds = %114
  %118 = load i32, i32* %23, align 4, !dbg !1517
  %119 = icmp sle i32 %118, 10000, !dbg !1518
  br label %120

120:                                              ; preds = %117, %114
  %121 = phi i1 [ false, %114 ], [ %119, %117 ], !dbg !1512
  %122 = zext i1 %121 to i64, !dbg !1514
  invoke void @klee_assume(i64 %122)
          to label %123 unwind label %135, !dbg !1519

123:                                              ; preds = %120
  %124 = load i32, i32* %23, align 4, !dbg !1520
  %125 = load i64, i64* %22, align 8, !dbg !1521
  %126 = getelementptr inbounds [3 x i32], [3 x i32]* %12, i64 0, i64 %125, !dbg !1522
  store i32 %124, i32* %126, align 4, !dbg !1523
  %127 = load i32, i32* %23, align 4, !dbg !1524
  %128 = load i32, i32* %9, align 4, !dbg !1526
  %129 = icmp sge i32 %127, %128, !dbg !1527
  br i1 %129, label %130, label %139, !dbg !1528

130:                                              ; preds = %123
  store i32 1, i32* %24, align 4, !dbg !1529
  br label %140, !dbg !1530

131:                                              ; preds = %100
  %132 = landingpad { i8*, i32 }
          cleanup, !dbg !1531
  %133 = extractvalue { i8*, i32 } %132, 0, !dbg !1531
  store i8* %133, i8** %20, align 8, !dbg !1531
  %134 = extractvalue { i8*, i32 } %132, 1, !dbg !1531
  store i32 %134, i32* %21, align 4, !dbg !1531
  call void @_ZNSt7__cxx1112basic_stringIcSt11char_traitsIcESaIcEED1Ev(%"class.std::__cxx11::basic_string"* %26) #8, !dbg !1503
  br label %153, !dbg !1503

135:                                              ; preds = %120, %111, %102
  %136 = landingpad { i8*, i32 }
          cleanup, !dbg !1531
  %137 = extractvalue { i8*, i32 } %136, 0, !dbg !1531
  store i8* %137, i8** %20, align 8, !dbg !1531
  %138 = extractvalue { i8*, i32 } %136, 1, !dbg !1531
  store i32 %138, i32* %21, align 4, !dbg !1531
  call void @_ZNSt7__cxx1112basic_stringIcSt11char_traitsIcESaIcEED1Ev(%"class.std::__cxx11::basic_string"* %25) #8, !dbg !1532
  br label %153, !dbg !1532

139:                                              ; preds = %123
  store i32 0, i32* %24, align 4, !dbg !1533
  br label %140

140:                                              ; preds = %139, %130
  %141 = load i32, i32* %24, align 4, !dbg !1534
  %142 = load i32, i32* %7, align 4, !dbg !1535
  %143 = add nsw i32 %142, %141, !dbg !1535
  store i32 %143, i32* %7, align 4, !dbg !1535
  call void @_ZNSt7__cxx1112basic_stringIcSt11char_traitsIcESaIcEED1Ev(%"class.std::__cxx11::basic_string"* %25) #8, !dbg !1532
  br label %144, !dbg !1536

144:                                              ; preds = %140
  %145 = load i64, i64* %22, align 8, !dbg !1537
  %146 = add i64 %145, 1, !dbg !1537
  store i64 %146, i64* %22, align 8, !dbg !1537
  br label %97, !dbg !1538, !llvm.loop !1539

147:                                              ; preds = %97
  %148 = load i32, i32* %6, align 4, !dbg !1541
  %149 = load i32, i32* %7, align 4, !dbg !1542
  %150 = add nsw i32 %148, %149, !dbg !1543
  store i32 %150, i32* %10, align 4, !dbg !1544
  %151 = load i32, i32* %10, align 4, !dbg !1545
  call void (i8*, ...) @klee_print_expr(i8* getelementptr inbounds ([4 x i8], [4 x i8]* @.str.9, i64 0, i64 0), i32 %151), !dbg !1546
  call void @klee_dump_kquery_state(), !dbg !1547
  call void @mark_state_winning(), !dbg !1548
  %152 = load i32, i32* %10, align 4, !dbg !1549
  call void (i8*, ...) @expected_value(i8* getelementptr inbounds ([8 x i8], [8 x i8]* @.str.6, i64 0, i64 0), i32 %152), !dbg !1550
  ret i32 0, !dbg !1551

153:                                              ; preds = %135, %131, %84, %80
  %154 = load i8*, i8** %20, align 8, !dbg !1447
  %155 = load i32, i32* %21, align 4, !dbg !1447
  %156 = insertvalue { i8*, i32 } undef, i8* %154, 0, !dbg !1447
  %157 = insertvalue { i8*, i32 } %156, i32 %155, 1, !dbg !1447
  resume { i8*, i32 } %157, !dbg !1447
}

declare void @klee_assume(i64) #3

; Function Attrs: noinline uwtable
define linkonce_odr void @_Z17make_pse_symbolicIiEvPvmPKcOT_S4_(i8* %0, i64 %1, i8* %2, i32* dereferenceable(4) %3, i32* dereferenceable(4) %4) #0 comdat !dbg !1552 {
  %6 = alloca i8*, align 8
  %7 = alloca i64, align 8
  %8 = alloca i8*, align 8
  %9 = alloca i32*, align 8
  %10 = alloca i32*, align 8
  store i8* %0, i8** %6, align 8
  call void @llvm.dbg.declare(metadata i8** %6, metadata !1558, metadata !DIExpression()), !dbg !1559
  store i64 %1, i64* %7, align 8
  call void @llvm.dbg.declare(metadata i64* %7, metadata !1560, metadata !DIExpression()), !dbg !1561
  store i8* %2, i8** %8, align 8
  call void @llvm.dbg.declare(metadata i8** %8, metadata !1562, metadata !DIExpression()), !dbg !1563
  store i32* %3, i32** %9, align 8
  call void @llvm.dbg.declare(metadata i32** %9, metadata !1564, metadata !DIExpression()), !dbg !1565
  store i32* %4, i32** %10, align 8
  call void @llvm.dbg.declare(metadata i32** %10, metadata !1566, metadata !DIExpression()), !dbg !1567
  %11 = load i8*, i8** %6, align 8, !dbg !1568
  %12 = load i64, i64* %7, align 8, !dbg !1569
  %13 = mul i64 8, %12, !dbg !1570
  %14 = load i8*, i8** %8, align 8, !dbg !1571
  %15 = load i32*, i32** %9, align 8, !dbg !1572
  %16 = load i32*, i32** %10, align 8, !dbg !1573
  %17 = call dereferenceable(4) i32* @_ZSt3minIiERKT_S2_S2_(i32* dereferenceable(4) %15, i32* dereferenceable(4) %16), !dbg !1574
  %18 = load i32, i32* %17, align 4, !dbg !1574
  %19 = sext i32 %18 to i64, !dbg !1574
  %20 = load i32*, i32** %9, align 8, !dbg !1575
  %21 = load i32*, i32** %10, align 8, !dbg !1576
  %22 = call dereferenceable(4) i32* @_ZSt3maxIiERKT_S2_S2_(i32* dereferenceable(4) %20, i32* dereferenceable(4) %21), !dbg !1577
  %23 = load i32, i32* %22, align 4, !dbg !1577
  %24 = sext i32 %23 to i64, !dbg !1577
  call void @mark_pse_symbolic(i8* %11, i64 %13, i8* %14, i64 %19, i64 %24), !dbg !1578
  %25 = load i8*, i8** %6, align 8, !dbg !1579
  %26 = load i64, i64* %7, align 8, !dbg !1580
  %27 = load i8*, i8** %8, align 8, !dbg !1581
  call void @klee_make_symbolic(i8* %25, i64 %26, i8* %27), !dbg !1582
  %28 = load i8*, i8** %6, align 8, !dbg !1583
  %29 = bitcast i8* %28 to i32*, !dbg !1584
  %30 = load i32, i32* %29, align 4, !dbg !1585
  %31 = load i32*, i32** %9, align 8, !dbg !1586
  %32 = load i32*, i32** %10, align 8, !dbg !1587
  %33 = call dereferenceable(4) i32* @_ZSt3minIiERKT_S2_S2_(i32* dereferenceable(4) %31, i32* dereferenceable(4) %32), !dbg !1588
  %34 = load i32, i32* %33, align 4, !dbg !1588
  %35 = icmp sge i32 %30, %34, !dbg !1589
  %36 = zext i1 %35 to i64, !dbg !1585
  call void @klee_assume(i64 %36), !dbg !1590
  %37 = load i8*, i8** %6, align 8, !dbg !1591
  %38 = bitcast i8* %37 to i32*, !dbg !1592
  %39 = load i32, i32* %38, align 4, !dbg !1593
  %40 = load i32*, i32** %9, align 8, !dbg !1594
  %41 = load i32*, i32** %10, align 8, !dbg !1595
  %42 = call dereferenceable(4) i32* @_ZSt3maxIiERKT_S2_S2_(i32* dereferenceable(4) %40, i32* dereferenceable(4) %41), !dbg !1596
  %43 = load i32, i32* %42, align 4, !dbg !1596
  %44 = icmp sle i32 %39, %43, !dbg !1597
  %45 = zext i1 %44 to i64, !dbg !1593
  call void @klee_assume(i64 %45), !dbg !1598
  ret void, !dbg !1599
}

; Function Attrs: noinline uwtable
define linkonce_odr void @_ZStplIcSt11char_traitsIcESaIcEENSt7__cxx1112basic_stringIT_T0_T1_EEPKS5_OS8_(%"class.std::__cxx11::basic_string"* noalias sret %0, i8* %1, %"class.std::__cxx11::basic_string"* dereferenceable(32) %2) #0 comdat !dbg !1600 {
  %4 = alloca i8*, align 8
  %5 = alloca i8*, align 8
  %6 = alloca %"class.std::__cxx11::basic_string"*, align 8
  %7 = bitcast %"class.std::__cxx11::basic_string"* %0 to i8*
  store i8* %7, i8** %4, align 8
  store i8* %1, i8** %5, align 8
  call void @llvm.dbg.declare(metadata i8** %5, metadata !1658, metadata !DIExpression()), !dbg !1659
  store %"class.std::__cxx11::basic_string"* %2, %"class.std::__cxx11::basic_string"** %6, align 8
  call void @llvm.dbg.declare(metadata %"class.std::__cxx11::basic_string"** %6, metadata !1660, metadata !DIExpression()), !dbg !1661
  %8 = load %"class.std::__cxx11::basic_string"*, %"class.std::__cxx11::basic_string"** %6, align 8, !dbg !1662
  %9 = load i8*, i8** %5, align 8, !dbg !1663
  %10 = call dereferenceable(32) %"class.std::__cxx11::basic_string"* @_ZNSt7__cxx1112basic_stringIcSt11char_traitsIcESaIcEE6insertEmPKc(%"class.std::__cxx11::basic_string"* %8, i64 0, i8* %9), !dbg !1664
  %11 = call dereferenceable(32) %"class.std::__cxx11::basic_string"* @_ZSt4moveIRNSt7__cxx1112basic_stringIcSt11char_traitsIcESaIcEEEEONSt16remove_referenceIT_E4typeEOS8_(%"class.std::__cxx11::basic_string"* dereferenceable(32) %10) #8, !dbg !1665
  call void @_ZNSt7__cxx1112basic_stringIcSt11char_traitsIcESaIcEEC1EOS4_(%"class.std::__cxx11::basic_string"* %0, %"class.std::__cxx11::basic_string"* dereferenceable(32) %11) #8, !dbg !1665
  ret void, !dbg !1666
}

; Function Attrs: noinline uwtable
define linkonce_odr void @_ZNSt7__cxx119to_stringEm(%"class.std::__cxx11::basic_string"* noalias sret %0, i64 %1) #0 comdat personality i8* bitcast (i32 (...)* @__gxx_personality_v0 to i8*) !dbg !1667 {
  %3 = alloca i8*, align 8
  %4 = alloca i64, align 8
  %5 = alloca i1, align 1
  %6 = alloca %"class.std::allocator", align 1
  %7 = alloca i8*
  %8 = alloca i32
  %9 = bitcast %"class.std::__cxx11::basic_string"* %0 to i8*
  store i8* %9, i8** %3, align 8
  store i64 %1, i64* %4, align 8
  call void @llvm.dbg.declare(metadata i64* %4, metadata !1670, metadata !DIExpression()), !dbg !1671
  store i1 false, i1* %5, align 1, !dbg !1672
  call void @llvm.dbg.declare(metadata i8** %3, metadata !1673, metadata !DIExpression(DW_OP_deref)), !dbg !1674
  %10 = load i64, i64* %4, align 8, !dbg !1675
  %11 = call i32 @_ZNSt8__detail14__to_chars_lenImEEjT_i(i64 %10, i32 10) #8, !dbg !1676
  %12 = zext i32 %11 to i64, !dbg !1676
  call void @_ZNSaIcEC1Ev(%"class.std::allocator"* %6) #8, !dbg !1674
  invoke void @_ZNSt7__cxx1112basic_stringIcSt11char_traitsIcESaIcEEC2IS3_EEmcRKS3_(%"class.std::__cxx11::basic_string"* %0, i64 %12, i8 signext 0, %"class.std::allocator"* dereferenceable(1) %6)
          to label %13 unwind label %20, !dbg !1674

13:                                               ; preds = %2
  call void @_ZNSaIcED1Ev(%"class.std::allocator"* %6) #8, !dbg !1674
  %14 = invoke dereferenceable(1) i8* @_ZNSt7__cxx1112basic_stringIcSt11char_traitsIcESaIcEEixEm(%"class.std::__cxx11::basic_string"* %0, i64 0)
          to label %15 unwind label %24, !dbg !1677

15:                                               ; preds = %13
  %16 = call i64 @_ZNKSt7__cxx1112basic_stringIcSt11char_traitsIcESaIcEE4sizeEv(%"class.std::__cxx11::basic_string"* %0) #8, !dbg !1678
  %17 = trunc i64 %16 to i32, !dbg !1679
  %18 = load i64, i64* %4, align 8, !dbg !1680
  call void @_ZNSt8__detail18__to_chars_10_implImEEvPcjT_(i8* %14, i32 %17, i64 %18) #8, !dbg !1681
  store i1 true, i1* %5, align 1, !dbg !1682
  %19 = load i1, i1* %5, align 1, !dbg !1683
  br i1 %19, label %29, label %28, !dbg !1683

20:                                               ; preds = %2
  %21 = landingpad { i8*, i32 }
          cleanup, !dbg !1683
  %22 = extractvalue { i8*, i32 } %21, 0, !dbg !1683
  store i8* %22, i8** %7, align 8, !dbg !1683
  %23 = extractvalue { i8*, i32 } %21, 1, !dbg !1683
  store i32 %23, i32* %8, align 4, !dbg !1683
  call void @_ZNSaIcED1Ev(%"class.std::allocator"* %6) #8, !dbg !1674
  br label %30, !dbg !1674

24:                                               ; preds = %13
  %25 = landingpad { i8*, i32 }
          cleanup, !dbg !1683
  %26 = extractvalue { i8*, i32 } %25, 0, !dbg !1683
  store i8* %26, i8** %7, align 8, !dbg !1683
  %27 = extractvalue { i8*, i32 } %25, 1, !dbg !1683
  store i32 %27, i32* %8, align 4, !dbg !1683
  call void @_ZNSt7__cxx1112basic_stringIcSt11char_traitsIcESaIcEED1Ev(%"class.std::__cxx11::basic_string"* %0) #8, !dbg !1683
  br label %30, !dbg !1683

28:                                               ; preds = %15
  call void @_ZNSt7__cxx1112basic_stringIcSt11char_traitsIcESaIcEED1Ev(%"class.std::__cxx11::basic_string"* %0) #8, !dbg !1683
  br label %29, !dbg !1683

29:                                               ; preds = %28, %15
  ret void, !dbg !1683

30:                                               ; preds = %24, %20
  %31 = load i8*, i8** %7, align 8, !dbg !1674
  %32 = load i32, i32* %8, align 4, !dbg !1674
  %33 = insertvalue { i8*, i32 } undef, i8* %31, 0, !dbg !1674
  %34 = insertvalue { i8*, i32 } %33, i32 %32, 1, !dbg !1674
  resume { i8*, i32 } %34, !dbg !1674
}

declare void @klee_print_expr(i8*, ...) #3

declare void @mark_state_winning() #3

declare void @expected_value(i8*, ...) #3

; Function Attrs: noinline nounwind uwtable
define linkonce_odr i32 @_ZNSt8__detail14__to_chars_lenIjEEjT_i(i32 %0, i32 %1) #5 comdat !dbg !1684 {
  %3 = alloca i32, align 4
  %4 = alloca i32, align 4
  %5 = alloca i32, align 4
  %6 = alloca i32, align 4
  %7 = alloca i32, align 4
  %8 = alloca i32, align 4
  %9 = alloca i64, align 8
  store i32 %0, i32* %4, align 4
  call void @llvm.dbg.declare(metadata i32* %4, metadata !1687, metadata !DIExpression()), !dbg !1688
  store i32 %1, i32* %5, align 4
  call void @llvm.dbg.declare(metadata i32* %5, metadata !1689, metadata !DIExpression()), !dbg !1690
  call void @llvm.dbg.declare(metadata i32* %6, metadata !1691, metadata !DIExpression()), !dbg !1692
  store i32 1, i32* %6, align 4, !dbg !1692
  call void @llvm.dbg.declare(metadata i32* %7, metadata !1693, metadata !DIExpression()), !dbg !1694
  %10 = load i32, i32* %5, align 4, !dbg !1695
  %11 = load i32, i32* %5, align 4, !dbg !1696
  %12 = mul nsw i32 %10, %11, !dbg !1697
  store i32 %12, i32* %7, align 4, !dbg !1694
  call void @llvm.dbg.declare(metadata i32* %8, metadata !1698, metadata !DIExpression()), !dbg !1699
  %13 = load i32, i32* %7, align 4, !dbg !1700
  %14 = load i32, i32* %5, align 4, !dbg !1701
  %15 = mul i32 %13, %14, !dbg !1702
  store i32 %15, i32* %8, align 4, !dbg !1699
  call void @llvm.dbg.declare(metadata i64* %9, metadata !1703, metadata !DIExpression()), !dbg !1705
  %16 = load i32, i32* %8, align 4, !dbg !1706
  %17 = load i32, i32* %5, align 4, !dbg !1707
  %18 = mul i32 %16, %17, !dbg !1708
  %19 = zext i32 %18 to i64, !dbg !1706
  store i64 %19, i64* %9, align 8, !dbg !1705
  br label %20, !dbg !1709

20:                                               ; preds = %48, %2
  %21 = load i32, i32* %4, align 4, !dbg !1710
  %22 = load i32, i32* %5, align 4, !dbg !1715
  %23 = icmp ult i32 %21, %22, !dbg !1716
  br i1 %23, label %24, label %26, !dbg !1717

24:                                               ; preds = %20
  %25 = load i32, i32* %6, align 4, !dbg !1718
  store i32 %25, i32* %3, align 4, !dbg !1719
  br label %56, !dbg !1719

26:                                               ; preds = %20
  %27 = load i32, i32* %4, align 4, !dbg !1720
  %28 = load i32, i32* %7, align 4, !dbg !1722
  %29 = icmp ult i32 %27, %28, !dbg !1723
  br i1 %29, label %30, label %33, !dbg !1724

30:                                               ; preds = %26
  %31 = load i32, i32* %6, align 4, !dbg !1725
  %32 = add i32 %31, 1, !dbg !1726
  store i32 %32, i32* %3, align 4, !dbg !1727
  br label %56, !dbg !1727

33:                                               ; preds = %26
  %34 = load i32, i32* %4, align 4, !dbg !1728
  %35 = load i32, i32* %8, align 4, !dbg !1730
  %36 = icmp ult i32 %34, %35, !dbg !1731
  br i1 %36, label %37, label %40, !dbg !1732

37:                                               ; preds = %33
  %38 = load i32, i32* %6, align 4, !dbg !1733
  %39 = add i32 %38, 2, !dbg !1734
  store i32 %39, i32* %3, align 4, !dbg !1735
  br label %56, !dbg !1735

40:                                               ; preds = %33
  %41 = load i32, i32* %4, align 4, !dbg !1736
  %42 = zext i32 %41 to i64, !dbg !1736
  %43 = load i64, i64* %9, align 8, !dbg !1738
  %44 = icmp ult i64 %42, %43, !dbg !1739
  br i1 %44, label %45, label %48, !dbg !1740

45:                                               ; preds = %40
  %46 = load i32, i32* %6, align 4, !dbg !1741
  %47 = add i32 %46, 3, !dbg !1742
  store i32 %47, i32* %3, align 4, !dbg !1743
  br label %56, !dbg !1743

48:                                               ; preds = %40
  %49 = load i64, i64* %9, align 8, !dbg !1744
  %50 = load i32, i32* %4, align 4, !dbg !1745
  %51 = zext i32 %50 to i64, !dbg !1745
  %52 = udiv i64 %51, %49, !dbg !1745
  %53 = trunc i64 %52 to i32, !dbg !1745
  store i32 %53, i32* %4, align 4, !dbg !1745
  %54 = load i32, i32* %6, align 4, !dbg !1746
  %55 = add i32 %54, 4, !dbg !1746
  store i32 %55, i32* %6, align 4, !dbg !1746
  br label %20, !dbg !1747, !llvm.loop !1748

56:                                               ; preds = %45, %37, %30, %24
  %57 = load i32, i32* %3, align 4, !dbg !1751
  ret i32 %57, !dbg !1751
}

; Function Attrs: noinline uwtable
define linkonce_odr void @_ZNSt7__cxx1112basic_stringIcSt11char_traitsIcESaIcEEC2IS3_EEmcRKS3_(%"class.std::__cxx11::basic_string"* %0, i64 %1, i8 signext %2, %"class.std::allocator"* dereferenceable(1) %3) unnamed_addr #0 comdat align 2 personality i8* bitcast (i32 (...)* @__gxx_personality_v0 to i8*) !dbg !1752 {
  %5 = alloca %"class.std::__cxx11::basic_string"*, align 8
  %6 = alloca i64, align 8
  %7 = alloca i8, align 1
  %8 = alloca %"class.std::allocator"*, align 8
  %9 = alloca i8*
  %10 = alloca i32
  store %"class.std::__cxx11::basic_string"* %0, %"class.std::__cxx11::basic_string"** %5, align 8
  call void @llvm.dbg.declare(metadata %"class.std::__cxx11::basic_string"** %5, metadata !1756, metadata !DIExpression()), !dbg !1757
  store i64 %1, i64* %6, align 8
  call void @llvm.dbg.declare(metadata i64* %6, metadata !1758, metadata !DIExpression()), !dbg !1759
  store i8 %2, i8* %7, align 1
  call void @llvm.dbg.declare(metadata i8* %7, metadata !1760, metadata !DIExpression()), !dbg !1761
  store %"class.std::allocator"* %3, %"class.std::allocator"** %8, align 8
  call void @llvm.dbg.declare(metadata %"class.std::allocator"** %8, metadata !1762, metadata !DIExpression()), !dbg !1763
  %11 = load %"class.std::__cxx11::basic_string"*, %"class.std::__cxx11::basic_string"** %5, align 8
  %12 = getelementptr inbounds %"class.std::__cxx11::basic_string", %"class.std::__cxx11::basic_string"* %11, i32 0, i32 0, !dbg !1764
  %13 = call i8* @_ZNSt7__cxx1112basic_stringIcSt11char_traitsIcESaIcEE13_M_local_dataEv(%"class.std::__cxx11::basic_string"* %11), !dbg !1765
  %14 = load %"class.std::allocator"*, %"class.std::allocator"** %8, align 8, !dbg !1766
  call void @_ZNSt7__cxx1112basic_stringIcSt11char_traitsIcESaIcEE12_Alloc_hiderC1EPcRKS3_(%"struct.std::__cxx11::basic_string<char, std::char_traits<char>, std::allocator<char> >::_Alloc_hider"* %12, i8* %13, %"class.std::allocator"* dereferenceable(1) %14), !dbg !1764
  %15 = load i64, i64* %6, align 8, !dbg !1767
  %16 = load i8, i8* %7, align 1, !dbg !1769
  invoke void @_ZNSt7__cxx1112basic_stringIcSt11char_traitsIcESaIcEE12_M_constructEmc(%"class.std::__cxx11::basic_string"* %11, i64 %15, i8 signext %16)
          to label %17 unwind label %18, !dbg !1770

17:                                               ; preds = %4
  ret void, !dbg !1771

18:                                               ; preds = %4
  %19 = landingpad { i8*, i32 }
          cleanup, !dbg !1772
  %20 = extractvalue { i8*, i32 } %19, 0, !dbg !1772
  store i8* %20, i8** %9, align 8, !dbg !1772
  %21 = extractvalue { i8*, i32 } %19, 1, !dbg !1772
  store i32 %21, i32* %10, align 4, !dbg !1772
  call void @_ZNSt7__cxx1112basic_stringIcSt11char_traitsIcESaIcEE12_Alloc_hiderD2Ev(%"struct.std::__cxx11::basic_string<char, std::char_traits<char>, std::allocator<char> >::_Alloc_hider"* %12) #8, !dbg !1772
  br label %22, !dbg !1772

22:                                               ; preds = %18
  %23 = load i8*, i8** %9, align 8, !dbg !1772
  %24 = load i32, i32* %10, align 4, !dbg !1772
  %25 = insertvalue { i8*, i32 } undef, i8* %23, 0, !dbg !1772
  %26 = insertvalue { i8*, i32 } %25, i32 %24, 1, !dbg !1772
  resume { i8*, i32 } %26, !dbg !1772
}

; Function Attrs: noinline nounwind uwtable
define linkonce_odr void @_ZNSt8__detail18__to_chars_10_implIjEEvPcjT_(i8* %0, i32 %1, i32 %2) #5 comdat !dbg !2 {
  %4 = alloca i8*, align 8
  %5 = alloca i32, align 4
  %6 = alloca i32, align 4
  %7 = alloca i32, align 4
  %8 = alloca i32, align 4
  %9 = alloca i32, align 4
  store i8* %0, i8** %4, align 8
  call void @llvm.dbg.declare(metadata i8** %4, metadata !1773, metadata !DIExpression()), !dbg !1774
  store i32 %1, i32* %5, align 4
  call void @llvm.dbg.declare(metadata i32* %5, metadata !1775, metadata !DIExpression()), !dbg !1776
  store i32 %2, i32* %6, align 4
  call void @llvm.dbg.declare(metadata i32* %6, metadata !1777, metadata !DIExpression()), !dbg !1778
  call void @llvm.dbg.declare(metadata i32* %7, metadata !1779, metadata !DIExpression()), !dbg !1780
  %10 = load i32, i32* %5, align 4, !dbg !1781
  %11 = sub i32 %10, 1, !dbg !1782
  store i32 %11, i32* %7, align 4, !dbg !1780
  br label %12, !dbg !1783

12:                                               ; preds = %15, %3
  %13 = load i32, i32* %6, align 4, !dbg !1784
  %14 = icmp uge i32 %13, 100, !dbg !1785
  br i1 %14, label %15, label %41, !dbg !1783

15:                                               ; preds = %12
  call void @llvm.dbg.declare(metadata i32* %8, metadata !1786, metadata !DIExpression()), !dbg !1788
  %16 = load i32, i32* %6, align 4, !dbg !1789
  %17 = urem i32 %16, 100, !dbg !1790
  %18 = mul i32 %17, 2, !dbg !1791
  store i32 %18, i32* %8, align 4, !dbg !1788
  %19 = load i32, i32* %6, align 4, !dbg !1792
  %20 = udiv i32 %19, 100, !dbg !1792
  store i32 %20, i32* %6, align 4, !dbg !1792
  %21 = load i32, i32* %8, align 4, !dbg !1793
  %22 = add i32 %21, 1, !dbg !1794
  %23 = zext i32 %22 to i64, !dbg !1795
  %24 = getelementptr inbounds [201 x i8], [201 x i8]* @_ZZNSt8__detail18__to_chars_10_implIjEEvPcjT_E8__digits, i64 0, i64 %23, !dbg !1795
  %25 = load i8, i8* %24, align 1, !dbg !1795
  %26 = load i8*, i8** %4, align 8, !dbg !1796
  %27 = load i32, i32* %7, align 4, !dbg !1797
  %28 = zext i32 %27 to i64, !dbg !1796
  %29 = getelementptr inbounds i8, i8* %26, i64 %28, !dbg !1796
  store i8 %25, i8* %29, align 1, !dbg !1798
  %30 = load i32, i32* %8, align 4, !dbg !1799
  %31 = zext i32 %30 to i64, !dbg !1800
  %32 = getelementptr inbounds [201 x i8], [201 x i8]* @_ZZNSt8__detail18__to_chars_10_implIjEEvPcjT_E8__digits, i64 0, i64 %31, !dbg !1800
  %33 = load i8, i8* %32, align 1, !dbg !1800
  %34 = load i8*, i8** %4, align 8, !dbg !1801
  %35 = load i32, i32* %7, align 4, !dbg !1802
  %36 = sub i32 %35, 1, !dbg !1803
  %37 = zext i32 %36 to i64, !dbg !1801
  %38 = getelementptr inbounds i8, i8* %34, i64 %37, !dbg !1801
  store i8 %33, i8* %38, align 1, !dbg !1804
  %39 = load i32, i32* %7, align 4, !dbg !1805
  %40 = sub i32 %39, 2, !dbg !1805
  store i32 %40, i32* %7, align 4, !dbg !1805
  br label %12, !dbg !1783, !llvm.loop !1806

41:                                               ; preds = %12
  %42 = load i32, i32* %6, align 4, !dbg !1808
  %43 = icmp uge i32 %42, 10, !dbg !1810
  br i1 %43, label %44, label %60, !dbg !1811

44:                                               ; preds = %41
  call void @llvm.dbg.declare(metadata i32* %9, metadata !1812, metadata !DIExpression()), !dbg !1814
  %45 = load i32, i32* %6, align 4, !dbg !1815
  %46 = mul i32 %45, 2, !dbg !1816
  store i32 %46, i32* %9, align 4, !dbg !1814
  %47 = load i32, i32* %9, align 4, !dbg !1817
  %48 = add i32 %47, 1, !dbg !1818
  %49 = zext i32 %48 to i64, !dbg !1819
  %50 = getelementptr inbounds [201 x i8], [201 x i8]* @_ZZNSt8__detail18__to_chars_10_implIjEEvPcjT_E8__digits, i64 0, i64 %49, !dbg !1819
  %51 = load i8, i8* %50, align 1, !dbg !1819
  %52 = load i8*, i8** %4, align 8, !dbg !1820
  %53 = getelementptr inbounds i8, i8* %52, i64 1, !dbg !1820
  store i8 %51, i8* %53, align 1, !dbg !1821
  %54 = load i32, i32* %9, align 4, !dbg !1822
  %55 = zext i32 %54 to i64, !dbg !1823
  %56 = getelementptr inbounds [201 x i8], [201 x i8]* @_ZZNSt8__detail18__to_chars_10_implIjEEvPcjT_E8__digits, i64 0, i64 %55, !dbg !1823
  %57 = load i8, i8* %56, align 1, !dbg !1823
  %58 = load i8*, i8** %4, align 8, !dbg !1824
  %59 = getelementptr inbounds i8, i8* %58, i64 0, !dbg !1824
  store i8 %57, i8* %59, align 1, !dbg !1825
  br label %66, !dbg !1826

60:                                               ; preds = %41
  %61 = load i32, i32* %6, align 4, !dbg !1827
  %62 = add i32 48, %61, !dbg !1828
  %63 = trunc i32 %62 to i8, !dbg !1829
  %64 = load i8*, i8** %4, align 8, !dbg !1830
  %65 = getelementptr inbounds i8, i8* %64, i64 0, !dbg !1830
  store i8 %63, i8* %65, align 1, !dbg !1831
  br label %66

66:                                               ; preds = %60, %44
  ret void, !dbg !1832
}

declare dereferenceable(1) i8* @_ZNSt7__cxx1112basic_stringIcSt11char_traitsIcESaIcEEixEm(%"class.std::__cxx11::basic_string"*, i64) #3

declare i8* @_ZNSt7__cxx1112basic_stringIcSt11char_traitsIcESaIcEE13_M_local_dataEv(%"class.std::__cxx11::basic_string"*) #3

declare void @_ZNSt7__cxx1112basic_stringIcSt11char_traitsIcESaIcEE12_Alloc_hiderC1EPcRKS3_(%"struct.std::__cxx11::basic_string<char, std::char_traits<char>, std::allocator<char> >::_Alloc_hider"*, i8*, %"class.std::allocator"* dereferenceable(1)) unnamed_addr #3

declare void @_ZNSt7__cxx1112basic_stringIcSt11char_traitsIcESaIcEE12_M_constructEmc(%"class.std::__cxx11::basic_string"*, i64, i8 signext) #3

; Function Attrs: noinline nounwind uwtable
define linkonce_odr void @_ZNSt7__cxx1112basic_stringIcSt11char_traitsIcESaIcEE12_Alloc_hiderD2Ev(%"struct.std::__cxx11::basic_string<char, std::char_traits<char>, std::allocator<char> >::_Alloc_hider"* %0) unnamed_addr #5 comdat align 2 !dbg !1833 {
  %2 = alloca %"struct.std::__cxx11::basic_string<char, std::char_traits<char>, std::allocator<char> >::_Alloc_hider"*, align 8
  store %"struct.std::__cxx11::basic_string<char, std::char_traits<char>, std::allocator<char> >::_Alloc_hider"* %0, %"struct.std::__cxx11::basic_string<char, std::char_traits<char>, std::allocator<char> >::_Alloc_hider"** %2, align 8
  call void @llvm.dbg.declare(metadata %"struct.std::__cxx11::basic_string<char, std::char_traits<char>, std::allocator<char> >::_Alloc_hider"** %2, metadata !1858, metadata !DIExpression()), !dbg !1860
  %3 = load %"struct.std::__cxx11::basic_string<char, std::char_traits<char>, std::allocator<char> >::_Alloc_hider"*, %"struct.std::__cxx11::basic_string<char, std::char_traits<char>, std::allocator<char> >::_Alloc_hider"** %2, align 8
  %4 = bitcast %"struct.std::__cxx11::basic_string<char, std::char_traits<char>, std::allocator<char> >::_Alloc_hider"* %3 to %"class.std::allocator"*, !dbg !1861
  call void @_ZNSaIcED2Ev(%"class.std::allocator"* %4) #8, !dbg !1861
  ret void, !dbg !1863
}

; Function Attrs: nounwind
declare void @_ZNSaIcED2Ev(%"class.std::allocator"*) unnamed_addr #2

; Function Attrs: noinline nounwind uwtable
define linkonce_odr i32 @_ZNSt8__detail14__to_chars_lenImEEjT_i(i64 %0, i32 %1) #5 comdat !dbg !1864 {
  %3 = alloca i32, align 4
  %4 = alloca i64, align 8
  %5 = alloca i32, align 4
  %6 = alloca i32, align 4
  %7 = alloca i32, align 4
  %8 = alloca i32, align 4
  %9 = alloca i64, align 8
  store i64 %0, i64* %4, align 8
  call void @llvm.dbg.declare(metadata i64* %4, metadata !1867, metadata !DIExpression()), !dbg !1868
  store i32 %1, i32* %5, align 4
  call void @llvm.dbg.declare(metadata i32* %5, metadata !1869, metadata !DIExpression()), !dbg !1870
  call void @llvm.dbg.declare(metadata i32* %6, metadata !1871, metadata !DIExpression()), !dbg !1872
  store i32 1, i32* %6, align 4, !dbg !1872
  call void @llvm.dbg.declare(metadata i32* %7, metadata !1873, metadata !DIExpression()), !dbg !1874
  %10 = load i32, i32* %5, align 4, !dbg !1875
  %11 = load i32, i32* %5, align 4, !dbg !1876
  %12 = mul nsw i32 %10, %11, !dbg !1877
  store i32 %12, i32* %7, align 4, !dbg !1874
  call void @llvm.dbg.declare(metadata i32* %8, metadata !1878, metadata !DIExpression()), !dbg !1879
  %13 = load i32, i32* %7, align 4, !dbg !1880
  %14 = load i32, i32* %5, align 4, !dbg !1881
  %15 = mul i32 %13, %14, !dbg !1882
  store i32 %15, i32* %8, align 4, !dbg !1879
  call void @llvm.dbg.declare(metadata i64* %9, metadata !1883, metadata !DIExpression()), !dbg !1884
  %16 = load i32, i32* %8, align 4, !dbg !1885
  %17 = load i32, i32* %5, align 4, !dbg !1886
  %18 = mul i32 %16, %17, !dbg !1887
  %19 = zext i32 %18 to i64, !dbg !1885
  store i64 %19, i64* %9, align 8, !dbg !1884
  br label %20, !dbg !1888

20:                                               ; preds = %50, %2
  %21 = load i64, i64* %4, align 8, !dbg !1889
  %22 = load i32, i32* %5, align 4, !dbg !1894
  %23 = zext i32 %22 to i64, !dbg !1895
  %24 = icmp ult i64 %21, %23, !dbg !1896
  br i1 %24, label %25, label %27, !dbg !1897

25:                                               ; preds = %20
  %26 = load i32, i32* %6, align 4, !dbg !1898
  store i32 %26, i32* %3, align 4, !dbg !1899
  br label %56, !dbg !1899

27:                                               ; preds = %20
  %28 = load i64, i64* %4, align 8, !dbg !1900
  %29 = load i32, i32* %7, align 4, !dbg !1902
  %30 = zext i32 %29 to i64, !dbg !1902
  %31 = icmp ult i64 %28, %30, !dbg !1903
  br i1 %31, label %32, label %35, !dbg !1904

32:                                               ; preds = %27
  %33 = load i32, i32* %6, align 4, !dbg !1905
  %34 = add i32 %33, 1, !dbg !1906
  store i32 %34, i32* %3, align 4, !dbg !1907
  br label %56, !dbg !1907

35:                                               ; preds = %27
  %36 = load i64, i64* %4, align 8, !dbg !1908
  %37 = load i32, i32* %8, align 4, !dbg !1910
  %38 = zext i32 %37 to i64, !dbg !1910
  %39 = icmp ult i64 %36, %38, !dbg !1911
  br i1 %39, label %40, label %43, !dbg !1912

40:                                               ; preds = %35
  %41 = load i32, i32* %6, align 4, !dbg !1913
  %42 = add i32 %41, 2, !dbg !1914
  store i32 %42, i32* %3, align 4, !dbg !1915
  br label %56, !dbg !1915

43:                                               ; preds = %35
  %44 = load i64, i64* %4, align 8, !dbg !1916
  %45 = load i64, i64* %9, align 8, !dbg !1918
  %46 = icmp ult i64 %44, %45, !dbg !1919
  br i1 %46, label %47, label %50, !dbg !1920

47:                                               ; preds = %43
  %48 = load i32, i32* %6, align 4, !dbg !1921
  %49 = add i32 %48, 3, !dbg !1922
  store i32 %49, i32* %3, align 4, !dbg !1923
  br label %56, !dbg !1923

50:                                               ; preds = %43
  %51 = load i64, i64* %9, align 8, !dbg !1924
  %52 = load i64, i64* %4, align 8, !dbg !1925
  %53 = udiv i64 %52, %51, !dbg !1925
  store i64 %53, i64* %4, align 8, !dbg !1925
  %54 = load i32, i32* %6, align 4, !dbg !1926
  %55 = add i32 %54, 4, !dbg !1926
  store i32 %55, i32* %6, align 4, !dbg !1926
  br label %20, !dbg !1927, !llvm.loop !1928

56:                                               ; preds = %47, %40, %32, %25
  %57 = load i32, i32* %3, align 4, !dbg !1931
  ret i32 %57, !dbg !1931
}

; Function Attrs: noinline nounwind uwtable
define linkonce_odr void @_ZNSt8__detail18__to_chars_10_implImEEvPcjT_(i8* %0, i32 %1, i64 %2) #5 comdat !dbg !90 {
  %4 = alloca i8*, align 8
  %5 = alloca i32, align 4
  %6 = alloca i64, align 8
  %7 = alloca i32, align 4
  %8 = alloca i64, align 8
  %9 = alloca i64, align 8
  store i8* %0, i8** %4, align 8
  call void @llvm.dbg.declare(metadata i8** %4, metadata !1932, metadata !DIExpression()), !dbg !1933
  store i32 %1, i32* %5, align 4
  call void @llvm.dbg.declare(metadata i32* %5, metadata !1934, metadata !DIExpression()), !dbg !1935
  store i64 %2, i64* %6, align 8
  call void @llvm.dbg.declare(metadata i64* %6, metadata !1936, metadata !DIExpression()), !dbg !1937
  call void @llvm.dbg.declare(metadata i32* %7, metadata !1938, metadata !DIExpression()), !dbg !1939
  %10 = load i32, i32* %5, align 4, !dbg !1940
  %11 = sub i32 %10, 1, !dbg !1941
  store i32 %11, i32* %7, align 4, !dbg !1939
  br label %12, !dbg !1942

12:                                               ; preds = %15, %3
  %13 = load i64, i64* %6, align 8, !dbg !1943
  %14 = icmp uge i64 %13, 100, !dbg !1944
  br i1 %14, label %15, label %39, !dbg !1942

15:                                               ; preds = %12
  call void @llvm.dbg.declare(metadata i64* %8, metadata !1945, metadata !DIExpression()), !dbg !1947
  %16 = load i64, i64* %6, align 8, !dbg !1948
  %17 = urem i64 %16, 100, !dbg !1949
  %18 = mul i64 %17, 2, !dbg !1950
  store i64 %18, i64* %8, align 8, !dbg !1947
  %19 = load i64, i64* %6, align 8, !dbg !1951
  %20 = udiv i64 %19, 100, !dbg !1951
  store i64 %20, i64* %6, align 8, !dbg !1951
  %21 = load i64, i64* %8, align 8, !dbg !1952
  %22 = add i64 %21, 1, !dbg !1953
  %23 = getelementptr inbounds [201 x i8], [201 x i8]* @_ZZNSt8__detail18__to_chars_10_implImEEvPcjT_E8__digits, i64 0, i64 %22, !dbg !1954
  %24 = load i8, i8* %23, align 1, !dbg !1954
  %25 = load i8*, i8** %4, align 8, !dbg !1955
  %26 = load i32, i32* %7, align 4, !dbg !1956
  %27 = zext i32 %26 to i64, !dbg !1955
  %28 = getelementptr inbounds i8, i8* %25, i64 %27, !dbg !1955
  store i8 %24, i8* %28, align 1, !dbg !1957
  %29 = load i64, i64* %8, align 8, !dbg !1958
  %30 = getelementptr inbounds [201 x i8], [201 x i8]* @_ZZNSt8__detail18__to_chars_10_implImEEvPcjT_E8__digits, i64 0, i64 %29, !dbg !1959
  %31 = load i8, i8* %30, align 1, !dbg !1959
  %32 = load i8*, i8** %4, align 8, !dbg !1960
  %33 = load i32, i32* %7, align 4, !dbg !1961
  %34 = sub i32 %33, 1, !dbg !1962
  %35 = zext i32 %34 to i64, !dbg !1960
  %36 = getelementptr inbounds i8, i8* %32, i64 %35, !dbg !1960
  store i8 %31, i8* %36, align 1, !dbg !1963
  %37 = load i32, i32* %7, align 4, !dbg !1964
  %38 = sub i32 %37, 2, !dbg !1964
  store i32 %38, i32* %7, align 4, !dbg !1964
  br label %12, !dbg !1942, !llvm.loop !1965

39:                                               ; preds = %12
  %40 = load i64, i64* %6, align 8, !dbg !1967
  %41 = icmp uge i64 %40, 10, !dbg !1969
  br i1 %41, label %42, label %56, !dbg !1970

42:                                               ; preds = %39
  call void @llvm.dbg.declare(metadata i64* %9, metadata !1971, metadata !DIExpression()), !dbg !1973
  %43 = load i64, i64* %6, align 8, !dbg !1974
  %44 = mul i64 %43, 2, !dbg !1975
  store i64 %44, i64* %9, align 8, !dbg !1973
  %45 = load i64, i64* %9, align 8, !dbg !1976
  %46 = add i64 %45, 1, !dbg !1977
  %47 = getelementptr inbounds [201 x i8], [201 x i8]* @_ZZNSt8__detail18__to_chars_10_implImEEvPcjT_E8__digits, i64 0, i64 %46, !dbg !1978
  %48 = load i8, i8* %47, align 1, !dbg !1978
  %49 = load i8*, i8** %4, align 8, !dbg !1979
  %50 = getelementptr inbounds i8, i8* %49, i64 1, !dbg !1979
  store i8 %48, i8* %50, align 1, !dbg !1980
  %51 = load i64, i64* %9, align 8, !dbg !1981
  %52 = getelementptr inbounds [201 x i8], [201 x i8]* @_ZZNSt8__detail18__to_chars_10_implImEEvPcjT_E8__digits, i64 0, i64 %51, !dbg !1982
  %53 = load i8, i8* %52, align 1, !dbg !1982
  %54 = load i8*, i8** %4, align 8, !dbg !1983
  %55 = getelementptr inbounds i8, i8* %54, i64 0, !dbg !1983
  store i8 %53, i8* %55, align 1, !dbg !1984
  br label %62, !dbg !1985

56:                                               ; preds = %39
  %57 = load i64, i64* %6, align 8, !dbg !1986
  %58 = add i64 48, %57, !dbg !1987
  %59 = trunc i64 %58 to i8, !dbg !1988
  %60 = load i8*, i8** %4, align 8, !dbg !1989
  %61 = getelementptr inbounds i8, i8* %60, i64 0, !dbg !1989
  store i8 %59, i8* %61, align 1, !dbg !1990
  br label %62

62:                                               ; preds = %56, %42
  ret void, !dbg !1991
}

; Function Attrs: nounwind
declare i64 @_ZNKSt7__cxx1112basic_stringIcSt11char_traitsIcESaIcEE4sizeEv(%"class.std::__cxx11::basic_string"*) #2

; Function Attrs: noinline uwtable
define linkonce_odr void @_ZNSt7__cxx1112basic_stringIcSt11char_traitsIcESaIcEE12_M_constructIPKcEEvT_S8_(%"class.std::__cxx11::basic_string"* %0, i8* %1, i8* %2) #0 comdat align 2 !dbg !1992 {
  %4 = alloca %"class.std::__cxx11::basic_string"*, align 8
  %5 = alloca i8*, align 8
  %6 = alloca i8*, align 8
  %7 = alloca %"struct.std::__false_type", align 1
  store %"class.std::__cxx11::basic_string"* %0, %"class.std::__cxx11::basic_string"** %4, align 8
  call void @llvm.dbg.declare(metadata %"class.std::__cxx11::basic_string"** %4, metadata !1998, metadata !DIExpression()), !dbg !1999
  store i8* %1, i8** %5, align 8
  call void @llvm.dbg.declare(metadata i8** %5, metadata !2000, metadata !DIExpression()), !dbg !2001
  store i8* %2, i8** %6, align 8
  call void @llvm.dbg.declare(metadata i8** %6, metadata !2002, metadata !DIExpression()), !dbg !2003
  %8 = load %"class.std::__cxx11::basic_string"*, %"class.std::__cxx11::basic_string"** %4, align 8
  %9 = load i8*, i8** %5, align 8, !dbg !2004
  %10 = load i8*, i8** %6, align 8, !dbg !2005
  call void @_ZNSt7__cxx1112basic_stringIcSt11char_traitsIcESaIcEE16_M_construct_auxIPKcEEvT_S8_St12__false_type(%"class.std::__cxx11::basic_string"* %8, i8* %9, i8* %10), !dbg !2006
  ret void, !dbg !2007
}

; Function Attrs: noinline uwtable
define linkonce_odr i64 @_ZNSt11char_traitsIcE6lengthEPKc(i8* %0) #0 comdat align 2 !dbg !2008 {
  %2 = alloca i8*, align 8
  call void @llvm.dbg.declare(metadata i8** %2, metadata !2009, metadata !DIExpression()), !dbg !2013
  %3 = alloca i64, align 8
  %4 = alloca i8*, align 8
  store i8* %0, i8** %4, align 8
  call void @llvm.dbg.declare(metadata i8** %4, metadata !2016, metadata !DIExpression()), !dbg !2017
  %5 = load i8*, i8** %4, align 8, !dbg !2018
  store i8* %5, i8** %2, align 8
  br i1 false, label %6, label %9, !dbg !2019

6:                                                ; preds = %1
  %7 = load i8*, i8** %4, align 8, !dbg !2020
  %8 = call i64 @_ZN9__gnu_cxx11char_traitsIcE6lengthEPKc(i8* %7), !dbg !2021
  store i64 %8, i64* %3, align 8, !dbg !2022
  br label %12, !dbg !2022

9:                                                ; preds = %1
  %10 = load i8*, i8** %4, align 8, !dbg !2023
  %11 = call i64 @strlen(i8* %10) #8, !dbg !2024
  store i64 %11, i64* %3, align 8, !dbg !2025
  br label %12, !dbg !2025

12:                                               ; preds = %9, %6
  %13 = load i64, i64* %3, align 8, !dbg !2026
  ret i64 %13, !dbg !2026
}

; Function Attrs: noinline uwtable
define linkonce_odr void @_ZNSt7__cxx1112basic_stringIcSt11char_traitsIcESaIcEE16_M_construct_auxIPKcEEvT_S8_St12__false_type(%"class.std::__cxx11::basic_string"* %0, i8* %1, i8* %2) #0 comdat align 2 !dbg !2027 {
  %4 = alloca %"struct.std::__false_type", align 1
  %5 = alloca %"class.std::__cxx11::basic_string"*, align 8
  %6 = alloca i8*, align 8
  %7 = alloca i8*, align 8
  %8 = alloca %"struct.std::forward_iterator_tag", align 1
  %9 = alloca %"struct.std::random_access_iterator_tag", align 1
  store %"class.std::__cxx11::basic_string"* %0, %"class.std::__cxx11::basic_string"** %5, align 8
  call void @llvm.dbg.declare(metadata %"class.std::__cxx11::basic_string"** %5, metadata !2033, metadata !DIExpression()), !dbg !2034
  store i8* %1, i8** %6, align 8
  call void @llvm.dbg.declare(metadata i8** %6, metadata !2035, metadata !DIExpression()), !dbg !2036
  store i8* %2, i8** %7, align 8
  call void @llvm.dbg.declare(metadata i8** %7, metadata !2037, metadata !DIExpression()), !dbg !2038
  call void @llvm.dbg.declare(metadata %"struct.std::__false_type"* %4, metadata !2039, metadata !DIExpression()), !dbg !2040
  %10 = load %"class.std::__cxx11::basic_string"*, %"class.std::__cxx11::basic_string"** %5, align 8
  %11 = load i8*, i8** %6, align 8, !dbg !2041
  %12 = load i8*, i8** %7, align 8, !dbg !2042
  %13 = bitcast %"struct.std::random_access_iterator_tag"* %9 to %"struct.std::forward_iterator_tag"*, !dbg !2043
  call void @_ZNSt7__cxx1112basic_stringIcSt11char_traitsIcESaIcEE12_M_constructIPKcEEvT_S8_St20forward_iterator_tag(%"class.std::__cxx11::basic_string"* %10, i8* %11, i8* %12), !dbg !2044
  ret void, !dbg !2045
}

; Function Attrs: noinline uwtable
define linkonce_odr void @_ZNSt7__cxx1112basic_stringIcSt11char_traitsIcESaIcEE12_M_constructIPKcEEvT_S8_St20forward_iterator_tag(%"class.std::__cxx11::basic_string"* %0, i8* %1, i8* %2) #0 comdat align 2 personality i8* bitcast (i32 (...)* @__gxx_personality_v0 to i8*) !dbg !2046 {
  %4 = alloca %"struct.std::forward_iterator_tag", align 1
  %5 = alloca %"class.std::__cxx11::basic_string"*, align 8
  %6 = alloca i8*, align 8
  %7 = alloca i8*, align 8
  %8 = alloca i64, align 8
  %9 = alloca i8*
  %10 = alloca i32
  store %"class.std::__cxx11::basic_string"* %0, %"class.std::__cxx11::basic_string"** %5, align 8
  call void @llvm.dbg.declare(metadata %"class.std::__cxx11::basic_string"** %5, metadata !2057, metadata !DIExpression()), !dbg !2058
  store i8* %1, i8** %6, align 8
  call void @llvm.dbg.declare(metadata i8** %6, metadata !2059, metadata !DIExpression()), !dbg !2060
  store i8* %2, i8** %7, align 8
  call void @llvm.dbg.declare(metadata i8** %7, metadata !2061, metadata !DIExpression()), !dbg !2062
  call void @llvm.dbg.declare(metadata %"struct.std::forward_iterator_tag"* %4, metadata !2063, metadata !DIExpression()), !dbg !2064
  %11 = load %"class.std::__cxx11::basic_string"*, %"class.std::__cxx11::basic_string"** %5, align 8
  %12 = load i8*, i8** %6, align 8, !dbg !2065
  %13 = call zeroext i1 @_ZN9__gnu_cxx17__is_null_pointerIKcEEbPT_(i8* %12), !dbg !2067
  br i1 %13, label %14, label %19, !dbg !2068

14:                                               ; preds = %3
  %15 = load i8*, i8** %6, align 8, !dbg !2069
  %16 = load i8*, i8** %7, align 8, !dbg !2070
  %17 = icmp ne i8* %15, %16, !dbg !2071
  br i1 %17, label %18, label %19, !dbg !2072

18:                                               ; preds = %14
  call void @_ZSt19__throw_logic_errorPKc(i8* getelementptr inbounds ([42 x i8], [42 x i8]* @.str.10, i64 0, i64 0)) #9, !dbg !2073
  unreachable, !dbg !2073

19:                                               ; preds = %14, %3
  call void @llvm.dbg.declare(metadata i64* %8, metadata !2074, metadata !DIExpression()), !dbg !2075
  %20 = load i8*, i8** %6, align 8, !dbg !2076
  %21 = load i8*, i8** %7, align 8, !dbg !2077
  %22 = call i64 @_ZSt8distanceIPKcENSt15iterator_traitsIT_E15difference_typeES3_S3_(i8* %20, i8* %21), !dbg !2078
  store i64 %22, i64* %8, align 8, !dbg !2075
  %23 = load i64, i64* %8, align 8, !dbg !2079
  %24 = icmp ugt i64 %23, 15, !dbg !2081
  br i1 %24, label %25, label %28, !dbg !2082

25:                                               ; preds = %19
  %26 = call i8* @_ZNSt7__cxx1112basic_stringIcSt11char_traitsIcESaIcEE9_M_createERmm(%"class.std::__cxx11::basic_string"* %11, i64* dereferenceable(8) %8, i64 0), !dbg !2083
  call void @_ZNSt7__cxx1112basic_stringIcSt11char_traitsIcESaIcEE7_M_dataEPc(%"class.std::__cxx11::basic_string"* %11, i8* %26), !dbg !2085
  %27 = load i64, i64* %8, align 8, !dbg !2086
  call void @_ZNSt7__cxx1112basic_stringIcSt11char_traitsIcESaIcEE11_M_capacityEm(%"class.std::__cxx11::basic_string"* %11, i64 %27), !dbg !2087
  br label %28, !dbg !2088

28:                                               ; preds = %25, %19
  %29 = invoke i8* @_ZNKSt7__cxx1112basic_stringIcSt11char_traitsIcESaIcEE7_M_dataEv(%"class.std::__cxx11::basic_string"* %11)
          to label %30 unwind label %33, !dbg !2089

30:                                               ; preds = %28
  %31 = load i8*, i8** %6, align 8, !dbg !2091
  %32 = load i8*, i8** %7, align 8, !dbg !2092
  call void @_ZNSt7__cxx1112basic_stringIcSt11char_traitsIcESaIcEE13_S_copy_charsEPcPKcS7_(i8* %29, i8* %31, i8* %32) #8, !dbg !2093
  br label %46, !dbg !2094

33:                                               ; preds = %28
  %34 = landingpad { i8*, i32 }
          catch i8* null, !dbg !2095
  %35 = extractvalue { i8*, i32 } %34, 0, !dbg !2095
  store i8* %35, i8** %9, align 8, !dbg !2095
  %36 = extractvalue { i8*, i32 } %34, 1, !dbg !2095
  store i32 %36, i32* %10, align 4, !dbg !2095
  br label %37, !dbg !2095

37:                                               ; preds = %33
  %38 = load i8*, i8** %9, align 8, !dbg !2094
  %39 = call i8* @__cxa_begin_catch(i8* %38) #8, !dbg !2094
  invoke void @_ZNSt7__cxx1112basic_stringIcSt11char_traitsIcESaIcEE10_M_disposeEv(%"class.std::__cxx11::basic_string"* %11)
          to label %40 unwind label %41, !dbg !2096

40:                                               ; preds = %37
  invoke void @__cxa_rethrow() #9
          to label %56 unwind label %41, !dbg !2098

41:                                               ; preds = %40, %37
  %42 = landingpad { i8*, i32 }
          cleanup, !dbg !2099
  %43 = extractvalue { i8*, i32 } %42, 0, !dbg !2099
  store i8* %43, i8** %9, align 8, !dbg !2099
  %44 = extractvalue { i8*, i32 } %42, 1, !dbg !2099
  store i32 %44, i32* %10, align 4, !dbg !2099
  invoke void @__cxa_end_catch()
          to label %45 unwind label %53, !dbg !2100

45:                                               ; preds = %41
  br label %48, !dbg !2100

46:                                               ; preds = %30
  %47 = load i64, i64* %8, align 8, !dbg !2101
  call void @_ZNSt7__cxx1112basic_stringIcSt11char_traitsIcESaIcEE13_M_set_lengthEm(%"class.std::__cxx11::basic_string"* %11, i64 %47), !dbg !2102
  ret void, !dbg !2103

48:                                               ; preds = %45
  %49 = load i8*, i8** %9, align 8, !dbg !2100
  %50 = load i32, i32* %10, align 4, !dbg !2100
  %51 = insertvalue { i8*, i32 } undef, i8* %49, 0, !dbg !2100
  %52 = insertvalue { i8*, i32 } %51, i32 %50, 1, !dbg !2100
  resume { i8*, i32 } %52, !dbg !2100

53:                                               ; preds = %41
  %54 = landingpad { i8*, i32 }
          catch i8* null, !dbg !2100
  %55 = extractvalue { i8*, i32 } %54, 0, !dbg !2100
  call void @__clang_call_terminate(i8* %55) #10, !dbg !2100
  unreachable, !dbg !2100

56:                                               ; preds = %40
  unreachable
}

; Function Attrs: noinline nounwind uwtable
define linkonce_odr zeroext i1 @_ZN9__gnu_cxx17__is_null_pointerIKcEEbPT_(i8* %0) #5 comdat !dbg !2104 {
  %2 = alloca i8*, align 8
  store i8* %0, i8** %2, align 8
  call void @llvm.dbg.declare(metadata i8** %2, metadata !2108, metadata !DIExpression()), !dbg !2109
  %3 = load i8*, i8** %2, align 8, !dbg !2110
  %4 = icmp eq i8* %3, null, !dbg !2111
  ret i1 %4, !dbg !2112
}

; Function Attrs: noreturn
declare void @_ZSt19__throw_logic_errorPKc(i8*) #6

; Function Attrs: noinline uwtable
define linkonce_odr i64 @_ZSt8distanceIPKcENSt15iterator_traitsIT_E15difference_typeES3_S3_(i8* %0, i8* %1) #0 comdat !dbg !2113 {
  %3 = alloca i8*, align 8
  %4 = alloca i8*, align 8
  %5 = alloca %"struct.std::random_access_iterator_tag", align 1
  %6 = alloca %"struct.std::random_access_iterator_tag", align 1
  store i8* %0, i8** %3, align 8
  call void @llvm.dbg.declare(metadata i8** %3, metadata !2124, metadata !DIExpression()), !dbg !2125
  store i8* %1, i8** %4, align 8
  call void @llvm.dbg.declare(metadata i8** %4, metadata !2126, metadata !DIExpression()), !dbg !2127
  %7 = load i8*, i8** %3, align 8, !dbg !2128
  %8 = load i8*, i8** %4, align 8, !dbg !2129
  call void @_ZSt19__iterator_categoryIPKcENSt15iterator_traitsIT_E17iterator_categoryERKS3_(i8** dereferenceable(8) %3), !dbg !2130
  %9 = call i64 @_ZSt10__distanceIPKcENSt15iterator_traitsIT_E15difference_typeES3_S3_St26random_access_iterator_tag(i8* %7, i8* %8), !dbg !2131
  ret i64 %9, !dbg !2132
}

declare void @_ZNSt7__cxx1112basic_stringIcSt11char_traitsIcESaIcEE7_M_dataEPc(%"class.std::__cxx11::basic_string"*, i8*) #3

declare i8* @_ZNSt7__cxx1112basic_stringIcSt11char_traitsIcESaIcEE9_M_createERmm(%"class.std::__cxx11::basic_string"*, i64* dereferenceable(8), i64) #3

declare void @_ZNSt7__cxx1112basic_stringIcSt11char_traitsIcESaIcEE11_M_capacityEm(%"class.std::__cxx11::basic_string"*, i64) #3

; Function Attrs: nounwind
declare void @_ZNSt7__cxx1112basic_stringIcSt11char_traitsIcESaIcEE13_S_copy_charsEPcPKcS7_(i8*, i8*, i8*) #2

declare i8* @_ZNKSt7__cxx1112basic_stringIcSt11char_traitsIcESaIcEE7_M_dataEv(%"class.std::__cxx11::basic_string"*) #3

declare i8* @__cxa_begin_catch(i8*)

declare void @_ZNSt7__cxx1112basic_stringIcSt11char_traitsIcESaIcEE10_M_disposeEv(%"class.std::__cxx11::basic_string"*) #3

declare void @__cxa_rethrow()

declare void @__cxa_end_catch()

; Function Attrs: noinline noreturn nounwind
define linkonce_odr hidden void @__clang_call_terminate(i8* %0) #7 comdat {
  %2 = call i8* @__cxa_begin_catch(i8* %0) #8
  call void @_ZSt9terminatev() #10
  unreachable
}

declare void @_ZSt9terminatev()

declare void @_ZNSt7__cxx1112basic_stringIcSt11char_traitsIcESaIcEE13_M_set_lengthEm(%"class.std::__cxx11::basic_string"*, i64) #3

; Function Attrs: noinline nounwind uwtable
define linkonce_odr i64 @_ZSt10__distanceIPKcENSt15iterator_traitsIT_E15difference_typeES3_S3_St26random_access_iterator_tag(i8* %0, i8* %1) #5 comdat !dbg !2133 {
  %3 = alloca %"struct.std::random_access_iterator_tag", align 1
  %4 = alloca i8*, align 8
  %5 = alloca i8*, align 8
  store i8* %0, i8** %4, align 8
  call void @llvm.dbg.declare(metadata i8** %4, metadata !2144, metadata !DIExpression()), !dbg !2145
  store i8* %1, i8** %5, align 8
  call void @llvm.dbg.declare(metadata i8** %5, metadata !2146, metadata !DIExpression()), !dbg !2147
  call void @llvm.dbg.declare(metadata %"struct.std::random_access_iterator_tag"* %3, metadata !2148, metadata !DIExpression()), !dbg !2149
  %6 = load i8*, i8** %5, align 8, !dbg !2150
  %7 = load i8*, i8** %4, align 8, !dbg !2151
  %8 = ptrtoint i8* %6 to i64, !dbg !2152
  %9 = ptrtoint i8* %7 to i64, !dbg !2152
  %10 = sub i64 %8, %9, !dbg !2152
  ret i64 %10, !dbg !2153
}

; Function Attrs: noinline nounwind uwtable
define linkonce_odr void @_ZSt19__iterator_categoryIPKcENSt15iterator_traitsIT_E17iterator_categoryERKS3_(i8** dereferenceable(8) %0) #5 comdat !dbg !2154 {
  %2 = alloca i8**, align 8
  store i8** %0, i8*** %2, align 8
  call void @llvm.dbg.declare(metadata i8*** %2, metadata !2162, metadata !DIExpression()), !dbg !2163
  ret void, !dbg !2164
}

; Function Attrs: noinline uwtable
define linkonce_odr i64 @_ZN9__gnu_cxx11char_traitsIcE6lengthEPKc(i8* %0) #0 comdat align 2 !dbg !2165 {
  %2 = alloca i8*, align 8
  %3 = alloca i64, align 8
  %4 = alloca i8, align 1
  store i8* %0, i8** %2, align 8
  call void @llvm.dbg.declare(metadata i8** %2, metadata !2217, metadata !DIExpression()), !dbg !2218
  call void @llvm.dbg.declare(metadata i64* %3, metadata !2219, metadata !DIExpression()), !dbg !2220
  store i64 0, i64* %3, align 8, !dbg !2220
  br label %5, !dbg !2221

5:                                                ; preds = %11, %1
  %6 = load i8*, i8** %2, align 8, !dbg !2222
  %7 = load i64, i64* %3, align 8, !dbg !2223
  %8 = getelementptr inbounds i8, i8* %6, i64 %7, !dbg !2222
  store i8 0, i8* %4, align 1, !dbg !2224
  %9 = call zeroext i1 @_ZN9__gnu_cxx11char_traitsIcE2eqERKcS3_(i8* dereferenceable(1) %8, i8* dereferenceable(1) %4), !dbg !2225
  %10 = xor i1 %9, true, !dbg !2226
  br i1 %10, label %11, label %14, !dbg !2221

11:                                               ; preds = %5
  %12 = load i64, i64* %3, align 8, !dbg !2227
  %13 = add i64 %12, 1, !dbg !2227
  store i64 %13, i64* %3, align 8, !dbg !2227
  br label %5, !dbg !2221, !llvm.loop !2228

14:                                               ; preds = %5
  %15 = load i64, i64* %3, align 8, !dbg !2230
  ret i64 %15, !dbg !2231
}

; Function Attrs: nounwind
declare i64 @strlen(i8*) #2

; Function Attrs: noinline nounwind uwtable
define linkonce_odr zeroext i1 @_ZN9__gnu_cxx11char_traitsIcE2eqERKcS3_(i8* dereferenceable(1) %0, i8* dereferenceable(1) %1) #5 comdat align 2 !dbg !2232 {
  %3 = alloca i8*, align 8
  %4 = alloca i8*, align 8
  store i8* %0, i8** %3, align 8
  call void @llvm.dbg.declare(metadata i8** %3, metadata !2233, metadata !DIExpression()), !dbg !2234
  store i8* %1, i8** %4, align 8
  call void @llvm.dbg.declare(metadata i8** %4, metadata !2235, metadata !DIExpression()), !dbg !2236
  %5 = load i8*, i8** %3, align 8, !dbg !2237
  %6 = load i8, i8* %5, align 1, !dbg !2237
  %7 = sext i8 %6 to i32, !dbg !2237
  %8 = load i8*, i8** %4, align 8, !dbg !2238
  %9 = load i8, i8* %8, align 1, !dbg !2238
  %10 = sext i8 %9 to i32, !dbg !2238
  %11 = icmp eq i32 %7, %10, !dbg !2239
  ret i1 %11, !dbg !2240
}

declare void @mark_pse_symbolic(i8*, i64, i8*, i64, i64) #3

; Function Attrs: noinline nounwind uwtable
define linkonce_odr dereferenceable(4) i32* @_ZSt3minIiERKT_S2_S2_(i32* dereferenceable(4) %0, i32* dereferenceable(4) %1) #5 comdat !dbg !2241 {
  %3 = alloca i32*, align 8
  %4 = alloca i32*, align 8
  %5 = alloca i32*, align 8
  store i32* %0, i32** %4, align 8
  call void @llvm.dbg.declare(metadata i32** %4, metadata !2249, metadata !DIExpression()), !dbg !2251
  store i32* %1, i32** %5, align 8
  call void @llvm.dbg.declare(metadata i32** %5, metadata !2252, metadata !DIExpression()), !dbg !2253
  %6 = load i32*, i32** %5, align 8, !dbg !2254
  %7 = load i32, i32* %6, align 4, !dbg !2254
  %8 = load i32*, i32** %4, align 8, !dbg !2256
  %9 = load i32, i32* %8, align 4, !dbg !2256
  %10 = icmp slt i32 %7, %9, !dbg !2257
  br i1 %10, label %11, label %13, !dbg !2258

11:                                               ; preds = %2
  %12 = load i32*, i32** %5, align 8, !dbg !2259
  store i32* %12, i32** %3, align 8, !dbg !2260
  br label %15, !dbg !2260

13:                                               ; preds = %2
  %14 = load i32*, i32** %4, align 8, !dbg !2261
  store i32* %14, i32** %3, align 8, !dbg !2262
  br label %15, !dbg !2262

15:                                               ; preds = %13, %11
  %16 = load i32*, i32** %3, align 8, !dbg !2263
  ret i32* %16, !dbg !2263
}

; Function Attrs: noinline nounwind uwtable
define linkonce_odr dereferenceable(4) i32* @_ZSt3maxIiERKT_S2_S2_(i32* dereferenceable(4) %0, i32* dereferenceable(4) %1) #5 comdat !dbg !2264 {
  %3 = alloca i32*, align 8
  %4 = alloca i32*, align 8
  %5 = alloca i32*, align 8
  store i32* %0, i32** %4, align 8
  call void @llvm.dbg.declare(metadata i32** %4, metadata !2265, metadata !DIExpression()), !dbg !2266
  store i32* %1, i32** %5, align 8
  call void @llvm.dbg.declare(metadata i32** %5, metadata !2267, metadata !DIExpression()), !dbg !2268
  %6 = load i32*, i32** %4, align 8, !dbg !2269
  %7 = load i32, i32* %6, align 4, !dbg !2269
  %8 = load i32*, i32** %5, align 8, !dbg !2271
  %9 = load i32, i32* %8, align 4, !dbg !2271
  %10 = icmp slt i32 %7, %9, !dbg !2272
  br i1 %10, label %11, label %13, !dbg !2273

11:                                               ; preds = %2
  %12 = load i32*, i32** %5, align 8, !dbg !2274
  store i32* %12, i32** %3, align 8, !dbg !2275
  br label %15, !dbg !2275

13:                                               ; preds = %2
  %14 = load i32*, i32** %4, align 8, !dbg !2276
  store i32* %14, i32** %3, align 8, !dbg !2277
  br label %15, !dbg !2277

15:                                               ; preds = %13, %11
  %16 = load i32*, i32** %3, align 8, !dbg !2278
  ret i32* %16, !dbg !2278
}

; Function Attrs: noinline nounwind uwtable
define linkonce_odr dereferenceable(32) %"class.std::__cxx11::basic_string"* @_ZSt4moveIRNSt7__cxx1112basic_stringIcSt11char_traitsIcESaIcEEEEONSt16remove_referenceIT_E4typeEOS8_(%"class.std::__cxx11::basic_string"* dereferenceable(32) %0) #5 comdat !dbg !2279 {
  %2 = alloca %"class.std::__cxx11::basic_string"*, align 8
  store %"class.std::__cxx11::basic_string"* %0, %"class.std::__cxx11::basic_string"** %2, align 8
  call void @llvm.dbg.declare(metadata %"class.std::__cxx11::basic_string"** %2, metadata !2290, metadata !DIExpression()), !dbg !2291
  %3 = load %"class.std::__cxx11::basic_string"*, %"class.std::__cxx11::basic_string"** %2, align 8, !dbg !2292
  ret %"class.std::__cxx11::basic_string"* %3, !dbg !2293
}

declare dereferenceable(32) %"class.std::__cxx11::basic_string"* @_ZNSt7__cxx1112basic_stringIcSt11char_traitsIcESaIcEE6insertEmPKc(%"class.std::__cxx11::basic_string"*, i64, i8*) #3

; Function Attrs: nounwind
declare void @_ZNSt7__cxx1112basic_stringIcSt11char_traitsIcESaIcEEC1EOS4_(%"class.std::__cxx11::basic_string"*, %"class.std::__cxx11::basic_string"* dereferenceable(32)) unnamed_addr #2

attributes #0 = { noinline uwtable "correctly-rounded-divide-sqrt-fp-math"="false" "disable-tail-calls"="false" "frame-pointer"="all" "less-precise-fpmad"="false" "min-legal-vector-width"="0" "no-infs-fp-math"="false" "no-jump-tables"="false" "no-nans-fp-math"="false" "no-signed-zeros-fp-math"="false" "no-trapping-math"="false" "stack-protector-buffer-size"="8" "target-cpu"="x86-64" "target-features"="+cx8,+fxsr,+mmx,+sse,+sse2,+x87" "unsafe-fp-math"="false" "use-soft-float"="false" }
attributes #1 = { nounwind readnone speculatable willreturn }
attributes #2 = { nounwind "correctly-rounded-divide-sqrt-fp-math"="false" "disable-tail-calls"="false" "frame-pointer"="all" "less-precise-fpmad"="false" "no-infs-fp-math"="false" "no-nans-fp-math"="false" "no-signed-zeros-fp-math"="false" "no-trapping-math"="false" "stack-protector-buffer-size"="8" "target-cpu"="x86-64" "target-features"="+cx8,+fxsr,+mmx,+sse,+sse2,+x87" "unsafe-fp-math"="false" "use-soft-float"="false" }
attributes #3 = { "correctly-rounded-divide-sqrt-fp-math"="false" "disable-tail-calls"="false" "frame-pointer"="all" "less-precise-fpmad"="false" "no-infs-fp-math"="false" "no-nans-fp-math"="false" "no-signed-zeros-fp-math"="false" "no-trapping-math"="false" "stack-protector-buffer-size"="8" "target-cpu"="x86-64" "target-features"="+cx8,+fxsr,+mmx,+sse,+sse2,+x87" "unsafe-fp-math"="false" "use-soft-float"="false" }
attributes #4 = { noinline norecurse uwtable "correctly-rounded-divide-sqrt-fp-math"="false" "disable-tail-calls"="false" "frame-pointer"="all" "less-precise-fpmad"="false" "min-legal-vector-width"="0" "no-infs-fp-math"="false" "no-jump-tables"="false" "no-nans-fp-math"="false" "no-signed-zeros-fp-math"="false" "no-trapping-math"="false" "stack-protector-buffer-size"="8" "target-cpu"="x86-64" "target-features"="+cx8,+fxsr,+mmx,+sse,+sse2,+x87" "unsafe-fp-math"="false" "use-soft-float"="false" }
attributes #5 = { noinline nounwind uwtable "correctly-rounded-divide-sqrt-fp-math"="false" "disable-tail-calls"="false" "frame-pointer"="all" "less-precise-fpmad"="false" "min-legal-vector-width"="0" "no-infs-fp-math"="false" "no-jump-tables"="false" "no-nans-fp-math"="false" "no-signed-zeros-fp-math"="false" "no-trapping-math"="false" "stack-protector-buffer-size"="8" "target-cpu"="x86-64" "target-features"="+cx8,+fxsr,+mmx,+sse,+sse2,+x87" "unsafe-fp-math"="false" "use-soft-float"="false" }
attributes #6 = { noreturn "correctly-rounded-divide-sqrt-fp-math"="false" "disable-tail-calls"="false" "frame-pointer"="all" "less-precise-fpmad"="false" "no-infs-fp-math"="false" "no-nans-fp-math"="false" "no-signed-zeros-fp-math"="false" "no-trapping-math"="false" "stack-protector-buffer-size"="8" "target-cpu"="x86-64" "target-features"="+cx8,+fxsr,+mmx,+sse,+sse2,+x87" "unsafe-fp-math"="false" "use-soft-float"="false" }
attributes #7 = { noinline noreturn nounwind }
attributes #8 = { nounwind }
attributes #9 = { noreturn }
attributes #10 = { noreturn nounwind }

!llvm.dbg.cu = !{!11}
!llvm.module.flags = !{!1254, !1255, !1256, !1257}
!llvm.ident = !{!1258}

!0 = !DIGlobalVariableExpression(var: !1, expr: !DIExpression())
!1 = distinct !DIGlobalVariable(name: "__digits", scope: !2, file: !3, line: 77, type: !96, isLocal: false, isDefinition: true)
!2 = distinct !DISubprogram(name: "__to_chars_10_impl<unsigned int>", linkageName: "_ZNSt8__detail18__to_chars_10_implIjEEvPcjT_", scope: !4, file: !3, line: 72, type: !6, scopeLine: 73, flags: DIFlagPrototyped, spFlags: DISPFlagDefinition, unit: !11, templateParams: !1252, retainedNodes: !93)
!3 = !DIFile(filename: "/usr/bin/../lib/gcc/x86_64-linux-gnu/10/../../../../include/c++/10/bits/charconv.h", directory: "")
!4 = !DINamespace(name: "__detail", scope: !5)
!5 = !DINamespace(name: "std", scope: null)
!6 = !DISubroutineType(types: !7)
!7 = !{null, !8, !10, !10}
!8 = !DIDerivedType(tag: DW_TAG_pointer_type, baseType: !9, size: 64)
!9 = !DIBasicType(name: "char", size: 8, encoding: DW_ATE_signed_char)
!10 = !DIBasicType(name: "unsigned int", size: 32, encoding: DW_ATE_unsigned)
!11 = distinct !DICompileUnit(language: DW_LANG_C_plus_plus_14, file: !12, producer: "clang version 10.0.0-4ubuntu1 ", isOptimized: false, runtimeVersion: 0, emissionKind: FullDebug, enums: !13, retainedTypes: !21, globals: !87, imports: !100, splitDebugInlining: false, nameTableKind: None)
!12 = !DIFile(filename: "src/extras/flips.cpp", directory: "/home/clustfuzz/Documents/Research/PSE-Program-Examples")
!13 = !{!14}
!14 = !DICompositeType(tag: DW_TAG_enumeration_type, scope: !16, file: !15, line: 169, baseType: !10, size: 32, elements: !19, identifier: "_ZTSNSt7__cxx1112basic_stringIcSt11char_traitsIcESaIcEEUt_E")
!15 = !DIFile(filename: "/usr/bin/../lib/gcc/x86_64-linux-gnu/10/../../../../include/c++/10/bits/basic_string.h", directory: "")
!16 = !DICompositeType(tag: DW_TAG_class_type, name: "basic_string<char, std::char_traits<char>, std::allocator<char> >", scope: !18, file: !17, line: 1610, flags: DIFlagFwdDecl, identifier: "_ZTSNSt7__cxx1112basic_stringIcSt11char_traitsIcESaIcEEE")
!17 = !DIFile(filename: "/usr/bin/../lib/gcc/x86_64-linux-gnu/10/../../../../include/c++/10/bits/basic_string.tcc", directory: "")
!18 = !DINamespace(name: "__cxx11", scope: !5, exportSymbols: true)
!19 = !{!20}
!20 = !DIEnumerator(name: "_S_local_capacity", value: 15, isUnsigned: true)
!21 = !{!22, !23, !10, !24, !85, !16}
!22 = !DIBasicType(name: "double", size: 64, encoding: DW_ATE_float)
!23 = !DIDerivedType(tag: DW_TAG_pointer_type, baseType: !22, size: 64)
!24 = !DIDerivedType(tag: DW_TAG_typedef, name: "size_type", scope: !16, file: !15, line: 88, baseType: !25)
!25 = !DIDerivedType(tag: DW_TAG_typedef, name: "size_type", scope: !27, file: !26, line: 59, baseType: !58)
!26 = !DIFile(filename: "/usr/bin/../lib/gcc/x86_64-linux-gnu/10/../../../../include/c++/10/ext/alloc_traits.h", directory: "")
!27 = distinct !DICompositeType(tag: DW_TAG_structure_type, name: "__alloc_traits<std::allocator<char>, char>", scope: !28, file: !26, line: 48, size: 8, flags: DIFlagTypePassByValue, elements: !29, templateParams: !83, identifier: "_ZTSN9__gnu_cxx14__alloc_traitsISaIcEcEE")
!28 = !DINamespace(name: "__gnu_cxx", scope: null)
!29 = !{!30, !66, !71, !75, !79, !80, !81, !82}
!30 = !DIDerivedType(tag: DW_TAG_inheritance, scope: !27, baseType: !31, extraData: i32 0)
!31 = distinct !DICompositeType(tag: DW_TAG_structure_type, name: "allocator_traits<std::allocator<char> >", scope: !5, file: !32, line: 407, size: 8, flags: DIFlagTypePassByValue, elements: !33, templateParams: !64, identifier: "_ZTSSt16allocator_traitsISaIcEE")
!32 = !DIFile(filename: "/usr/bin/../lib/gcc/x86_64-linux-gnu/10/../../../../include/c++/10/bits/alloc_traits.h", directory: "")
!33 = !{!34, !46, !52, !55, !61}
!34 = !DISubprogram(name: "allocate", linkageName: "_ZNSt16allocator_traitsISaIcEE8allocateERS0_m", scope: !31, file: !32, line: 459, type: !35, scopeLine: 459, flags: DIFlagPrototyped | DIFlagStaticMember, spFlags: 0)
!35 = !DISubroutineType(types: !36)
!36 = !{!37, !38, !42}
!37 = !DIDerivedType(tag: DW_TAG_typedef, name: "pointer", scope: !31, file: !32, line: 416, baseType: !8)
!38 = !DIDerivedType(tag: DW_TAG_reference_type, baseType: !39, size: 64)
!39 = !DIDerivedType(tag: DW_TAG_typedef, name: "allocator_type", scope: !31, file: !32, line: 410, baseType: !40)
!40 = !DICompositeType(tag: DW_TAG_class_type, name: "allocator<char>", scope: !5, file: !41, line: 249, flags: DIFlagFwdDecl, identifier: "_ZTSSaIcE")
!41 = !DIFile(filename: "/usr/bin/../lib/gcc/x86_64-linux-gnu/10/../../../../include/c++/10/bits/allocator.h", directory: "")
!42 = !DIDerivedType(tag: DW_TAG_typedef, name: "size_type", file: !32, line: 431, baseType: !43)
!43 = !DIDerivedType(tag: DW_TAG_typedef, name: "size_t", scope: !5, file: !44, line: 264, baseType: !45)
!44 = !DIFile(filename: "/usr/bin/../lib/gcc/x86_64-linux-gnu/10/../../../../include/x86_64-linux-gnu/c++/10/bits/c++config.h", directory: "")
!45 = !DIBasicType(name: "long unsigned int", size: 64, encoding: DW_ATE_unsigned)
!46 = !DISubprogram(name: "allocate", linkageName: "_ZNSt16allocator_traitsISaIcEE8allocateERS0_mPKv", scope: !31, file: !32, line: 473, type: !47, scopeLine: 473, flags: DIFlagPrototyped | DIFlagStaticMember, spFlags: 0)
!47 = !DISubroutineType(types: !48)
!48 = !{!37, !38, !42, !49}
!49 = !DIDerivedType(tag: DW_TAG_typedef, name: "const_void_pointer", file: !32, line: 425, baseType: !50)
!50 = !DIDerivedType(tag: DW_TAG_pointer_type, baseType: !51, size: 64)
!51 = !DIDerivedType(tag: DW_TAG_const_type, baseType: null)
!52 = !DISubprogram(name: "deallocate", linkageName: "_ZNSt16allocator_traitsISaIcEE10deallocateERS0_Pcm", scope: !31, file: !32, line: 491, type: !53, scopeLine: 491, flags: DIFlagPrototyped | DIFlagStaticMember, spFlags: 0)
!53 = !DISubroutineType(types: !54)
!54 = !{null, !38, !37, !42}
!55 = !DISubprogram(name: "max_size", linkageName: "_ZNSt16allocator_traitsISaIcEE8max_sizeERKS0_", scope: !31, file: !32, line: 543, type: !56, scopeLine: 543, flags: DIFlagPrototyped | DIFlagStaticMember, spFlags: 0)
!56 = !DISubroutineType(types: !57)
!57 = !{!58, !59}
!58 = !DIDerivedType(tag: DW_TAG_typedef, name: "size_type", scope: !31, file: !32, line: 431, baseType: !43)
!59 = !DIDerivedType(tag: DW_TAG_reference_type, baseType: !60, size: 64)
!60 = !DIDerivedType(tag: DW_TAG_const_type, baseType: !39)
!61 = !DISubprogram(name: "select_on_container_copy_construction", linkageName: "_ZNSt16allocator_traitsISaIcEE37select_on_container_copy_constructionERKS0_", scope: !31, file: !32, line: 558, type: !62, scopeLine: 558, flags: DIFlagPrototyped | DIFlagStaticMember, spFlags: 0)
!62 = !DISubroutineType(types: !63)
!63 = !{!39, !59}
!64 = !{!65}
!65 = !DITemplateTypeParameter(name: "_Alloc", type: !40)
!66 = !DISubprogram(name: "_S_select_on_copy", linkageName: "_ZN9__gnu_cxx14__alloc_traitsISaIcEcE17_S_select_on_copyERKS1_", scope: !27, file: !26, line: 97, type: !67, scopeLine: 97, flags: DIFlagPrototyped | DIFlagStaticMember, spFlags: 0)
!67 = !DISubroutineType(types: !68)
!68 = !{!40, !69}
!69 = !DIDerivedType(tag: DW_TAG_reference_type, baseType: !70, size: 64)
!70 = !DIDerivedType(tag: DW_TAG_const_type, baseType: !40)
!71 = !DISubprogram(name: "_S_on_swap", linkageName: "_ZN9__gnu_cxx14__alloc_traitsISaIcEcE10_S_on_swapERS1_S3_", scope: !27, file: !26, line: 100, type: !72, scopeLine: 100, flags: DIFlagPrototyped | DIFlagStaticMember, spFlags: 0)
!72 = !DISubroutineType(types: !73)
!73 = !{null, !74, !74}
!74 = !DIDerivedType(tag: DW_TAG_reference_type, baseType: !40, size: 64)
!75 = !DISubprogram(name: "_S_propagate_on_copy_assign", linkageName: "_ZN9__gnu_cxx14__alloc_traitsISaIcEcE27_S_propagate_on_copy_assignEv", scope: !27, file: !26, line: 103, type: !76, scopeLine: 103, flags: DIFlagPrototyped | DIFlagStaticMember, spFlags: 0)
!76 = !DISubroutineType(types: !77)
!77 = !{!78}
!78 = !DIBasicType(name: "bool", size: 8, encoding: DW_ATE_boolean)
!79 = !DISubprogram(name: "_S_propagate_on_move_assign", linkageName: "_ZN9__gnu_cxx14__alloc_traitsISaIcEcE27_S_propagate_on_move_assignEv", scope: !27, file: !26, line: 106, type: !76, scopeLine: 106, flags: DIFlagPrototyped | DIFlagStaticMember, spFlags: 0)
!80 = !DISubprogram(name: "_S_propagate_on_swap", linkageName: "_ZN9__gnu_cxx14__alloc_traitsISaIcEcE20_S_propagate_on_swapEv", scope: !27, file: !26, line: 109, type: !76, scopeLine: 109, flags: DIFlagPrototyped | DIFlagStaticMember, spFlags: 0)
!81 = !DISubprogram(name: "_S_always_equal", linkageName: "_ZN9__gnu_cxx14__alloc_traitsISaIcEcE15_S_always_equalEv", scope: !27, file: !26, line: 112, type: !76, scopeLine: 112, flags: DIFlagPrototyped | DIFlagStaticMember, spFlags: 0)
!82 = !DISubprogram(name: "_S_nothrow_move", linkageName: "_ZN9__gnu_cxx14__alloc_traitsISaIcEcE15_S_nothrow_moveEv", scope: !27, file: !26, line: 115, type: !76, scopeLine: 115, flags: DIFlagPrototyped | DIFlagStaticMember, spFlags: 0)
!83 = !{!65, !84}
!84 = !DITemplateTypeParameter(type: !9)
!85 = !DIDerivedType(tag: DW_TAG_pointer_type, baseType: !86, size: 64)
!86 = !DIBasicType(name: "int", size: 32, encoding: DW_ATE_signed)
!87 = !{!0, !88}
!88 = !DIGlobalVariableExpression(var: !89, expr: !DIExpression())
!89 = distinct !DIGlobalVariable(name: "__digits", scope: !90, file: !3, line: 77, type: !96, isLocal: false, isDefinition: true)
!90 = distinct !DISubprogram(name: "__to_chars_10_impl<unsigned long>", linkageName: "_ZNSt8__detail18__to_chars_10_implImEEvPcjT_", scope: !4, file: !3, line: 72, type: !91, scopeLine: 73, flags: DIFlagPrototyped, spFlags: DISPFlagDefinition, unit: !11, templateParams: !94, retainedNodes: !93)
!91 = !DISubroutineType(types: !92)
!92 = !{null, !8, !10, !45}
!93 = !{}
!94 = !{!95}
!95 = !DITemplateTypeParameter(name: "_Tp", type: !45)
!96 = !DIDerivedType(tag: DW_TAG_const_type, baseType: !97)
!97 = !DICompositeType(tag: DW_TAG_array_type, baseType: !9, size: 1608, elements: !98)
!98 = !{!99}
!99 = !DISubrange(count: 201)
!100 = !{!101, !105, !111, !115, !122, !126, !133, !138, !140, !146, !150, !154, !162, !164, !168, !172, !176, !180, !184, !188, !192, !196, !204, !208, !212, !214, !218, !222, !226, !232, !236, !240, !242, !250, !254, !261, !263, !267, !271, !275, !279, !284, !289, !294, !295, !296, !297, !299, !300, !301, !302, !303, !304, !305, !359, !363, !369, !371, !373, !377, !379, !381, !383, !385, !387, !389, !391, !395, !399, !401, !403, !407, !409, !411, !413, !415, !417, !419, !422, !424, !426, !430, !434, !436, !438, !440, !442, !444, !446, !448, !450, !452, !454, !458, !462, !464, !466, !468, !470, !472, !474, !476, !478, !480, !482, !484, !486, !488, !490, !492, !496, !500, !504, !506, !508, !510, !512, !514, !516, !518, !520, !522, !526, !530, !534, !536, !538, !540, !544, !548, !552, !554, !556, !558, !560, !562, !564, !566, !568, !570, !572, !574, !576, !580, !584, !588, !590, !592, !594, !596, !600, !604, !606, !608, !610, !612, !614, !616, !620, !624, !626, !628, !630, !632, !636, !640, !644, !646, !648, !650, !652, !654, !656, !660, !664, !668, !670, !674, !678, !680, !682, !684, !686, !688, !690, !707, !710, !715, !723, !728, !732, !736, !740, !744, !746, !748, !752, !758, !762, !768, !774, !776, !780, !784, !788, !792, !803, !805, !809, !813, !817, !819, !823, !827, !831, !833, !835, !839, !847, !851, !855, !859, !861, !867, !869, !875, !879, !883, !887, !891, !895, !899, !901, !903, !907, !911, !915, !917, !921, !925, !927, !929, !933, !937, !941, !945, !946, !947, !948, !949, !950, !951, !952, !953, !954, !955, !962, !966, !969, !972, !975, !977, !979, !981, !984, !987, !990, !993, !996, !998, !1003, !1007, !1010, !1013, !1015, !1017, !1019, !1021, !1024, !1027, !1030, !1033, !1036, !1038, !1042, !1046, !1051, !1055, !1057, !1059, !1061, !1063, !1065, !1067, !1069, !1071, !1073, !1075, !1077, !1079, !1081, !1085, !1091, !1096, !1100, !1102, !1104, !1106, !1108, !1115, !1119, !1123, !1127, !1131, !1135, !1140, !1144, !1146, !1150, !1156, !1160, !1165, !1167, !1169, !1173, !1177, !1179, !1181, !1183, !1185, !1189, !1191, !1193, !1197, !1201, !1205, !1209, !1213, !1217, !1219, !1223, !1227, !1231, !1235, !1237, !1239, !1243, !1247, !1248, !1249, !1250, !1251}
!101 = !DIImportedEntity(tag: DW_TAG_imported_module, scope: !102, entity: !103, file: !104, line: 58)
!102 = !DINamespace(name: "__gnu_debug", scope: null)
!103 = !DINamespace(name: "__debug", scope: !5)
!104 = !DIFile(filename: "/usr/bin/../lib/gcc/x86_64-linux-gnu/10/../../../../include/c++/10/debug/debug.h", directory: "")
!105 = !DIImportedEntity(tag: DW_TAG_imported_declaration, scope: !5, entity: !106, file: !110, line: 52)
!106 = !DISubprogram(name: "abs", scope: !107, file: !107, line: 840, type: !108, flags: DIFlagPrototyped, spFlags: 0)
!107 = !DIFile(filename: "/usr/include/stdlib.h", directory: "")
!108 = !DISubroutineType(types: !109)
!109 = !{!86, !86}
!110 = !DIFile(filename: "/usr/bin/../lib/gcc/x86_64-linux-gnu/10/../../../../include/c++/10/bits/std_abs.h", directory: "")
!111 = !DIImportedEntity(tag: DW_TAG_imported_declaration, scope: !5, entity: !112, file: !114, line: 127)
!112 = !DIDerivedType(tag: DW_TAG_typedef, name: "div_t", file: !107, line: 62, baseType: !113)
!113 = !DICompositeType(tag: DW_TAG_structure_type, file: !107, line: 58, flags: DIFlagFwdDecl, identifier: "_ZTS5div_t")
!114 = !DIFile(filename: "/usr/bin/../lib/gcc/x86_64-linux-gnu/10/../../../../include/c++/10/cstdlib", directory: "")
!115 = !DIImportedEntity(tag: DW_TAG_imported_declaration, scope: !5, entity: !116, file: !114, line: 128)
!116 = !DIDerivedType(tag: DW_TAG_typedef, name: "ldiv_t", file: !107, line: 70, baseType: !117)
!117 = distinct !DICompositeType(tag: DW_TAG_structure_type, file: !107, line: 66, size: 128, flags: DIFlagTypePassByValue, elements: !118, identifier: "_ZTS6ldiv_t")
!118 = !{!119, !121}
!119 = !DIDerivedType(tag: DW_TAG_member, name: "quot", scope: !117, file: !107, line: 68, baseType: !120, size: 64)
!120 = !DIBasicType(name: "long int", size: 64, encoding: DW_ATE_signed)
!121 = !DIDerivedType(tag: DW_TAG_member, name: "rem", scope: !117, file: !107, line: 69, baseType: !120, size: 64, offset: 64)
!122 = !DIImportedEntity(tag: DW_TAG_imported_declaration, scope: !5, entity: !123, file: !114, line: 130)
!123 = !DISubprogram(name: "abort", scope: !107, file: !107, line: 591, type: !124, flags: DIFlagPrototyped | DIFlagNoReturn, spFlags: 0)
!124 = !DISubroutineType(types: !125)
!125 = !{null}
!126 = !DIImportedEntity(tag: DW_TAG_imported_declaration, scope: !5, entity: !127, file: !114, line: 132)
!127 = !DISubprogram(name: "aligned_alloc", scope: !107, file: !107, line: 586, type: !128, flags: DIFlagPrototyped, spFlags: 0)
!128 = !DISubroutineType(types: !129)
!129 = !{!130, !131, !131}
!130 = !DIDerivedType(tag: DW_TAG_pointer_type, baseType: null, size: 64)
!131 = !DIDerivedType(tag: DW_TAG_typedef, name: "size_t", file: !132, line: 46, baseType: !45)
!132 = !DIFile(filename: "/usr/lib/llvm-10/lib/clang/10.0.0/include/stddef.h", directory: "")
!133 = !DIImportedEntity(tag: DW_TAG_imported_declaration, scope: !5, entity: !134, file: !114, line: 134)
!134 = !DISubprogram(name: "atexit", scope: !107, file: !107, line: 595, type: !135, flags: DIFlagPrototyped, spFlags: 0)
!135 = !DISubroutineType(types: !136)
!136 = !{!86, !137}
!137 = !DIDerivedType(tag: DW_TAG_pointer_type, baseType: !124, size: 64)
!138 = !DIImportedEntity(tag: DW_TAG_imported_declaration, scope: !5, entity: !139, file: !114, line: 137)
!139 = !DISubprogram(name: "at_quick_exit", scope: !107, file: !107, line: 600, type: !135, flags: DIFlagPrototyped, spFlags: 0)
!140 = !DIImportedEntity(tag: DW_TAG_imported_declaration, scope: !5, entity: !141, file: !114, line: 140)
!141 = !DISubprogram(name: "atof", scope: !107, file: !107, line: 101, type: !142, flags: DIFlagPrototyped, spFlags: 0)
!142 = !DISubroutineType(types: !143)
!143 = !{!22, !144}
!144 = !DIDerivedType(tag: DW_TAG_pointer_type, baseType: !145, size: 64)
!145 = !DIDerivedType(tag: DW_TAG_const_type, baseType: !9)
!146 = !DIImportedEntity(tag: DW_TAG_imported_declaration, scope: !5, entity: !147, file: !114, line: 141)
!147 = !DISubprogram(name: "atoi", scope: !107, file: !107, line: 104, type: !148, flags: DIFlagPrototyped, spFlags: 0)
!148 = !DISubroutineType(types: !149)
!149 = !{!86, !144}
!150 = !DIImportedEntity(tag: DW_TAG_imported_declaration, scope: !5, entity: !151, file: !114, line: 142)
!151 = !DISubprogram(name: "atol", scope: !107, file: !107, line: 107, type: !152, flags: DIFlagPrototyped, spFlags: 0)
!152 = !DISubroutineType(types: !153)
!153 = !{!120, !144}
!154 = !DIImportedEntity(tag: DW_TAG_imported_declaration, scope: !5, entity: !155, file: !114, line: 143)
!155 = !DISubprogram(name: "bsearch", scope: !107, file: !107, line: 820, type: !156, flags: DIFlagPrototyped, spFlags: 0)
!156 = !DISubroutineType(types: !157)
!157 = !{!130, !50, !50, !131, !131, !158}
!158 = !DIDerivedType(tag: DW_TAG_typedef, name: "__compar_fn_t", file: !107, line: 808, baseType: !159)
!159 = !DIDerivedType(tag: DW_TAG_pointer_type, baseType: !160, size: 64)
!160 = !DISubroutineType(types: !161)
!161 = !{!86, !50, !50}
!162 = !DIImportedEntity(tag: DW_TAG_imported_declaration, scope: !5, entity: !163, file: !114, line: 144)
!163 = !DISubprogram(name: "calloc", scope: !107, file: !107, line: 542, type: !128, flags: DIFlagPrototyped, spFlags: 0)
!164 = !DIImportedEntity(tag: DW_TAG_imported_declaration, scope: !5, entity: !165, file: !114, line: 145)
!165 = !DISubprogram(name: "div", scope: !107, file: !107, line: 852, type: !166, flags: DIFlagPrototyped, spFlags: 0)
!166 = !DISubroutineType(types: !167)
!167 = !{!112, !86, !86}
!168 = !DIImportedEntity(tag: DW_TAG_imported_declaration, scope: !5, entity: !169, file: !114, line: 146)
!169 = !DISubprogram(name: "exit", scope: !107, file: !107, line: 617, type: !170, flags: DIFlagPrototyped | DIFlagNoReturn, spFlags: 0)
!170 = !DISubroutineType(types: !171)
!171 = !{null, !86}
!172 = !DIImportedEntity(tag: DW_TAG_imported_declaration, scope: !5, entity: !173, file: !114, line: 147)
!173 = !DISubprogram(name: "free", scope: !107, file: !107, line: 565, type: !174, flags: DIFlagPrototyped, spFlags: 0)
!174 = !DISubroutineType(types: !175)
!175 = !{null, !130}
!176 = !DIImportedEntity(tag: DW_TAG_imported_declaration, scope: !5, entity: !177, file: !114, line: 148)
!177 = !DISubprogram(name: "getenv", scope: !107, file: !107, line: 634, type: !178, flags: DIFlagPrototyped, spFlags: 0)
!178 = !DISubroutineType(types: !179)
!179 = !{!8, !144}
!180 = !DIImportedEntity(tag: DW_TAG_imported_declaration, scope: !5, entity: !181, file: !114, line: 149)
!181 = !DISubprogram(name: "labs", scope: !107, file: !107, line: 841, type: !182, flags: DIFlagPrototyped, spFlags: 0)
!182 = !DISubroutineType(types: !183)
!183 = !{!120, !120}
!184 = !DIImportedEntity(tag: DW_TAG_imported_declaration, scope: !5, entity: !185, file: !114, line: 150)
!185 = !DISubprogram(name: "ldiv", scope: !107, file: !107, line: 854, type: !186, flags: DIFlagPrototyped, spFlags: 0)
!186 = !DISubroutineType(types: !187)
!187 = !{!116, !120, !120}
!188 = !DIImportedEntity(tag: DW_TAG_imported_declaration, scope: !5, entity: !189, file: !114, line: 151)
!189 = !DISubprogram(name: "malloc", scope: !107, file: !107, line: 539, type: !190, flags: DIFlagPrototyped, spFlags: 0)
!190 = !DISubroutineType(types: !191)
!191 = !{!130, !131}
!192 = !DIImportedEntity(tag: DW_TAG_imported_declaration, scope: !5, entity: !193, file: !114, line: 153)
!193 = !DISubprogram(name: "mblen", scope: !107, file: !107, line: 922, type: !194, flags: DIFlagPrototyped, spFlags: 0)
!194 = !DISubroutineType(types: !195)
!195 = !{!86, !144, !131}
!196 = !DIImportedEntity(tag: DW_TAG_imported_declaration, scope: !5, entity: !197, file: !114, line: 154)
!197 = !DISubprogram(name: "mbstowcs", scope: !107, file: !107, line: 933, type: !198, flags: DIFlagPrototyped, spFlags: 0)
!198 = !DISubroutineType(types: !199)
!199 = !{!131, !200, !203, !131}
!200 = !DIDerivedType(tag: DW_TAG_restrict_type, baseType: !201)
!201 = !DIDerivedType(tag: DW_TAG_pointer_type, baseType: !202, size: 64)
!202 = !DIBasicType(name: "wchar_t", size: 32, encoding: DW_ATE_signed)
!203 = !DIDerivedType(tag: DW_TAG_restrict_type, baseType: !144)
!204 = !DIImportedEntity(tag: DW_TAG_imported_declaration, scope: !5, entity: !205, file: !114, line: 155)
!205 = !DISubprogram(name: "mbtowc", scope: !107, file: !107, line: 925, type: !206, flags: DIFlagPrototyped, spFlags: 0)
!206 = !DISubroutineType(types: !207)
!207 = !{!86, !200, !203, !131}
!208 = !DIImportedEntity(tag: DW_TAG_imported_declaration, scope: !5, entity: !209, file: !114, line: 157)
!209 = !DISubprogram(name: "qsort", scope: !107, file: !107, line: 830, type: !210, flags: DIFlagPrototyped, spFlags: 0)
!210 = !DISubroutineType(types: !211)
!211 = !{null, !130, !131, !131, !158}
!212 = !DIImportedEntity(tag: DW_TAG_imported_declaration, scope: !5, entity: !213, file: !114, line: 160)
!213 = !DISubprogram(name: "quick_exit", scope: !107, file: !107, line: 623, type: !170, flags: DIFlagPrototyped | DIFlagNoReturn, spFlags: 0)
!214 = !DIImportedEntity(tag: DW_TAG_imported_declaration, scope: !5, entity: !215, file: !114, line: 163)
!215 = !DISubprogram(name: "rand", scope: !107, file: !107, line: 453, type: !216, flags: DIFlagPrototyped, spFlags: 0)
!216 = !DISubroutineType(types: !217)
!217 = !{!86}
!218 = !DIImportedEntity(tag: DW_TAG_imported_declaration, scope: !5, entity: !219, file: !114, line: 164)
!219 = !DISubprogram(name: "realloc", scope: !107, file: !107, line: 550, type: !220, flags: DIFlagPrototyped, spFlags: 0)
!220 = !DISubroutineType(types: !221)
!221 = !{!130, !130, !131}
!222 = !DIImportedEntity(tag: DW_TAG_imported_declaration, scope: !5, entity: !223, file: !114, line: 165)
!223 = !DISubprogram(name: "srand", scope: !107, file: !107, line: 455, type: !224, flags: DIFlagPrototyped, spFlags: 0)
!224 = !DISubroutineType(types: !225)
!225 = !{null, !10}
!226 = !DIImportedEntity(tag: DW_TAG_imported_declaration, scope: !5, entity: !227, file: !114, line: 166)
!227 = !DISubprogram(name: "strtod", scope: !107, file: !107, line: 117, type: !228, flags: DIFlagPrototyped, spFlags: 0)
!228 = !DISubroutineType(types: !229)
!229 = !{!22, !203, !230}
!230 = !DIDerivedType(tag: DW_TAG_restrict_type, baseType: !231)
!231 = !DIDerivedType(tag: DW_TAG_pointer_type, baseType: !8, size: 64)
!232 = !DIImportedEntity(tag: DW_TAG_imported_declaration, scope: !5, entity: !233, file: !114, line: 167)
!233 = !DISubprogram(name: "strtol", scope: !107, file: !107, line: 176, type: !234, flags: DIFlagPrototyped, spFlags: 0)
!234 = !DISubroutineType(types: !235)
!235 = !{!120, !203, !230, !86}
!236 = !DIImportedEntity(tag: DW_TAG_imported_declaration, scope: !5, entity: !237, file: !114, line: 168)
!237 = !DISubprogram(name: "strtoul", scope: !107, file: !107, line: 180, type: !238, flags: DIFlagPrototyped, spFlags: 0)
!238 = !DISubroutineType(types: !239)
!239 = !{!45, !203, !230, !86}
!240 = !DIImportedEntity(tag: DW_TAG_imported_declaration, scope: !5, entity: !241, file: !114, line: 169)
!241 = !DISubprogram(name: "system", scope: !107, file: !107, line: 784, type: !148, flags: DIFlagPrototyped, spFlags: 0)
!242 = !DIImportedEntity(tag: DW_TAG_imported_declaration, scope: !5, entity: !243, file: !114, line: 171)
!243 = !DISubprogram(name: "wcstombs", scope: !107, file: !107, line: 936, type: !244, flags: DIFlagPrototyped, spFlags: 0)
!244 = !DISubroutineType(types: !245)
!245 = !{!131, !246, !247, !131}
!246 = !DIDerivedType(tag: DW_TAG_restrict_type, baseType: !8)
!247 = !DIDerivedType(tag: DW_TAG_restrict_type, baseType: !248)
!248 = !DIDerivedType(tag: DW_TAG_pointer_type, baseType: !249, size: 64)
!249 = !DIDerivedType(tag: DW_TAG_const_type, baseType: !202)
!250 = !DIImportedEntity(tag: DW_TAG_imported_declaration, scope: !5, entity: !251, file: !114, line: 172)
!251 = !DISubprogram(name: "wctomb", scope: !107, file: !107, line: 929, type: !252, flags: DIFlagPrototyped, spFlags: 0)
!252 = !DISubroutineType(types: !253)
!253 = !{!86, !8, !202}
!254 = !DIImportedEntity(tag: DW_TAG_imported_declaration, scope: !28, entity: !255, file: !114, line: 200)
!255 = !DIDerivedType(tag: DW_TAG_typedef, name: "lldiv_t", file: !107, line: 80, baseType: !256)
!256 = distinct !DICompositeType(tag: DW_TAG_structure_type, file: !107, line: 76, size: 128, flags: DIFlagTypePassByValue, elements: !257, identifier: "_ZTS7lldiv_t")
!257 = !{!258, !260}
!258 = !DIDerivedType(tag: DW_TAG_member, name: "quot", scope: !256, file: !107, line: 78, baseType: !259, size: 64)
!259 = !DIBasicType(name: "long long int", size: 64, encoding: DW_ATE_signed)
!260 = !DIDerivedType(tag: DW_TAG_member, name: "rem", scope: !256, file: !107, line: 79, baseType: !259, size: 64, offset: 64)
!261 = !DIImportedEntity(tag: DW_TAG_imported_declaration, scope: !28, entity: !262, file: !114, line: 206)
!262 = !DISubprogram(name: "_Exit", scope: !107, file: !107, line: 629, type: !170, flags: DIFlagPrototyped | DIFlagNoReturn, spFlags: 0)
!263 = !DIImportedEntity(tag: DW_TAG_imported_declaration, scope: !28, entity: !264, file: !114, line: 210)
!264 = !DISubprogram(name: "llabs", scope: !107, file: !107, line: 844, type: !265, flags: DIFlagPrototyped, spFlags: 0)
!265 = !DISubroutineType(types: !266)
!266 = !{!259, !259}
!267 = !DIImportedEntity(tag: DW_TAG_imported_declaration, scope: !28, entity: !268, file: !114, line: 216)
!268 = !DISubprogram(name: "lldiv", scope: !107, file: !107, line: 858, type: !269, flags: DIFlagPrototyped, spFlags: 0)
!269 = !DISubroutineType(types: !270)
!270 = !{!255, !259, !259}
!271 = !DIImportedEntity(tag: DW_TAG_imported_declaration, scope: !28, entity: !272, file: !114, line: 227)
!272 = !DISubprogram(name: "atoll", scope: !107, file: !107, line: 112, type: !273, flags: DIFlagPrototyped, spFlags: 0)
!273 = !DISubroutineType(types: !274)
!274 = !{!259, !144}
!275 = !DIImportedEntity(tag: DW_TAG_imported_declaration, scope: !28, entity: !276, file: !114, line: 228)
!276 = !DISubprogram(name: "strtoll", scope: !107, file: !107, line: 200, type: !277, flags: DIFlagPrototyped, spFlags: 0)
!277 = !DISubroutineType(types: !278)
!278 = !{!259, !203, !230, !86}
!279 = !DIImportedEntity(tag: DW_TAG_imported_declaration, scope: !28, entity: !280, file: !114, line: 229)
!280 = !DISubprogram(name: "strtoull", scope: !107, file: !107, line: 205, type: !281, flags: DIFlagPrototyped, spFlags: 0)
!281 = !DISubroutineType(types: !282)
!282 = !{!283, !203, !230, !86}
!283 = !DIBasicType(name: "long long unsigned int", size: 64, encoding: DW_ATE_unsigned)
!284 = !DIImportedEntity(tag: DW_TAG_imported_declaration, scope: !28, entity: !285, file: !114, line: 231)
!285 = !DISubprogram(name: "strtof", scope: !107, file: !107, line: 123, type: !286, flags: DIFlagPrototyped, spFlags: 0)
!286 = !DISubroutineType(types: !287)
!287 = !{!288, !203, !230}
!288 = !DIBasicType(name: "float", size: 32, encoding: DW_ATE_float)
!289 = !DIImportedEntity(tag: DW_TAG_imported_declaration, scope: !28, entity: !290, file: !114, line: 232)
!290 = !DISubprogram(name: "strtold", scope: !107, file: !107, line: 126, type: !291, flags: DIFlagPrototyped, spFlags: 0)
!291 = !DISubroutineType(types: !292)
!292 = !{!293, !203, !230}
!293 = !DIBasicType(name: "long double", size: 128, encoding: DW_ATE_float)
!294 = !DIImportedEntity(tag: DW_TAG_imported_declaration, scope: !5, entity: !255, file: !114, line: 240)
!295 = !DIImportedEntity(tag: DW_TAG_imported_declaration, scope: !5, entity: !262, file: !114, line: 242)
!296 = !DIImportedEntity(tag: DW_TAG_imported_declaration, scope: !5, entity: !264, file: !114, line: 244)
!297 = !DIImportedEntity(tag: DW_TAG_imported_declaration, scope: !5, entity: !298, file: !114, line: 245)
!298 = !DISubprogram(name: "div", linkageName: "_ZN9__gnu_cxx3divExx", scope: !28, file: !114, line: 213, type: !269, flags: DIFlagPrototyped, spFlags: 0)
!299 = !DIImportedEntity(tag: DW_TAG_imported_declaration, scope: !5, entity: !268, file: !114, line: 246)
!300 = !DIImportedEntity(tag: DW_TAG_imported_declaration, scope: !5, entity: !272, file: !114, line: 248)
!301 = !DIImportedEntity(tag: DW_TAG_imported_declaration, scope: !5, entity: !285, file: !114, line: 249)
!302 = !DIImportedEntity(tag: DW_TAG_imported_declaration, scope: !5, entity: !276, file: !114, line: 250)
!303 = !DIImportedEntity(tag: DW_TAG_imported_declaration, scope: !5, entity: !280, file: !114, line: 251)
!304 = !DIImportedEntity(tag: DW_TAG_imported_declaration, scope: !5, entity: !290, file: !114, line: 252)
!305 = !DIImportedEntity(tag: DW_TAG_imported_declaration, scope: !5, entity: !306, file: !307, line: 58)
!306 = distinct !DICompositeType(tag: DW_TAG_class_type, name: "exception_ptr", scope: !308, file: !307, line: 80, size: 64, flags: DIFlagTypePassByReference | DIFlagNonTrivial, elements: !309, identifier: "_ZTSNSt15__exception_ptr13exception_ptrE")
!307 = !DIFile(filename: "/usr/bin/../lib/gcc/x86_64-linux-gnu/10/../../../../include/c++/10/bits/exception_ptr.h", directory: "")
!308 = !DINamespace(name: "__exception_ptr", scope: !5)
!309 = !{!310, !311, !315, !318, !319, !324, !325, !329, !334, !338, !342, !345, !346, !349, !352}
!310 = !DIDerivedType(tag: DW_TAG_member, name: "_M_exception_object", scope: !306, file: !307, line: 82, baseType: !130, size: 64)
!311 = !DISubprogram(name: "exception_ptr", scope: !306, file: !307, line: 84, type: !312, scopeLine: 84, flags: DIFlagExplicit | DIFlagPrototyped, spFlags: 0)
!312 = !DISubroutineType(types: !313)
!313 = !{null, !314, !130}
!314 = !DIDerivedType(tag: DW_TAG_pointer_type, baseType: !306, size: 64, flags: DIFlagArtificial | DIFlagObjectPointer)
!315 = !DISubprogram(name: "_M_addref", linkageName: "_ZNSt15__exception_ptr13exception_ptr9_M_addrefEv", scope: !306, file: !307, line: 86, type: !316, scopeLine: 86, flags: DIFlagPrototyped, spFlags: 0)
!316 = !DISubroutineType(types: !317)
!317 = !{null, !314}
!318 = !DISubprogram(name: "_M_release", linkageName: "_ZNSt15__exception_ptr13exception_ptr10_M_releaseEv", scope: !306, file: !307, line: 87, type: !316, scopeLine: 87, flags: DIFlagPrototyped, spFlags: 0)
!319 = !DISubprogram(name: "_M_get", linkageName: "_ZNKSt15__exception_ptr13exception_ptr6_M_getEv", scope: !306, file: !307, line: 89, type: !320, scopeLine: 89, flags: DIFlagPrototyped, spFlags: 0)
!320 = !DISubroutineType(types: !321)
!321 = !{!130, !322}
!322 = !DIDerivedType(tag: DW_TAG_pointer_type, baseType: !323, size: 64, flags: DIFlagArtificial | DIFlagObjectPointer)
!323 = !DIDerivedType(tag: DW_TAG_const_type, baseType: !306)
!324 = !DISubprogram(name: "exception_ptr", scope: !306, file: !307, line: 97, type: !316, scopeLine: 97, flags: DIFlagPublic | DIFlagPrototyped, spFlags: 0)
!325 = !DISubprogram(name: "exception_ptr", scope: !306, file: !307, line: 99, type: !326, scopeLine: 99, flags: DIFlagPublic | DIFlagPrototyped, spFlags: 0)
!326 = !DISubroutineType(types: !327)
!327 = !{null, !314, !328}
!328 = !DIDerivedType(tag: DW_TAG_reference_type, baseType: !323, size: 64)
!329 = !DISubprogram(name: "exception_ptr", scope: !306, file: !307, line: 102, type: !330, scopeLine: 102, flags: DIFlagPublic | DIFlagPrototyped, spFlags: 0)
!330 = !DISubroutineType(types: !331)
!331 = !{null, !314, !332}
!332 = !DIDerivedType(tag: DW_TAG_typedef, name: "nullptr_t", scope: !5, file: !44, line: 268, baseType: !333)
!333 = !DIBasicType(tag: DW_TAG_unspecified_type, name: "decltype(nullptr)")
!334 = !DISubprogram(name: "exception_ptr", scope: !306, file: !307, line: 106, type: !335, scopeLine: 106, flags: DIFlagPublic | DIFlagPrototyped, spFlags: 0)
!335 = !DISubroutineType(types: !336)
!336 = !{null, !314, !337}
!337 = !DIDerivedType(tag: DW_TAG_rvalue_reference_type, baseType: !306, size: 64)
!338 = !DISubprogram(name: "operator=", linkageName: "_ZNSt15__exception_ptr13exception_ptraSERKS0_", scope: !306, file: !307, line: 119, type: !339, scopeLine: 119, flags: DIFlagPublic | DIFlagPrototyped, spFlags: 0)
!339 = !DISubroutineType(types: !340)
!340 = !{!341, !314, !328}
!341 = !DIDerivedType(tag: DW_TAG_reference_type, baseType: !306, size: 64)
!342 = !DISubprogram(name: "operator=", linkageName: "_ZNSt15__exception_ptr13exception_ptraSEOS0_", scope: !306, file: !307, line: 123, type: !343, scopeLine: 123, flags: DIFlagPublic | DIFlagPrototyped, spFlags: 0)
!343 = !DISubroutineType(types: !344)
!344 = !{!341, !314, !337}
!345 = !DISubprogram(name: "~exception_ptr", scope: !306, file: !307, line: 130, type: !316, scopeLine: 130, flags: DIFlagPublic | DIFlagPrototyped, spFlags: 0)
!346 = !DISubprogram(name: "swap", linkageName: "_ZNSt15__exception_ptr13exception_ptr4swapERS0_", scope: !306, file: !307, line: 133, type: !347, scopeLine: 133, flags: DIFlagPublic | DIFlagPrototyped, spFlags: 0)
!347 = !DISubroutineType(types: !348)
!348 = !{null, !314, !341}
!349 = !DISubprogram(name: "operator bool", linkageName: "_ZNKSt15__exception_ptr13exception_ptrcvbEv", scope: !306, file: !307, line: 145, type: !350, scopeLine: 145, flags: DIFlagPublic | DIFlagExplicit | DIFlagPrototyped, spFlags: 0)
!350 = !DISubroutineType(types: !351)
!351 = !{!78, !322}
!352 = !DISubprogram(name: "__cxa_exception_type", linkageName: "_ZNKSt15__exception_ptr13exception_ptr20__cxa_exception_typeEv", scope: !306, file: !307, line: 154, type: !353, scopeLine: 154, flags: DIFlagPublic | DIFlagPrototyped, spFlags: 0)
!353 = !DISubroutineType(types: !354)
!354 = !{!355, !322}
!355 = !DIDerivedType(tag: DW_TAG_pointer_type, baseType: !356, size: 64)
!356 = !DIDerivedType(tag: DW_TAG_const_type, baseType: !357)
!357 = !DICompositeType(tag: DW_TAG_class_type, name: "type_info", scope: !5, file: !358, line: 88, flags: DIFlagFwdDecl)
!358 = !DIFile(filename: "/usr/bin/../lib/gcc/x86_64-linux-gnu/10/../../../../include/c++/10/typeinfo", directory: "")
!359 = !DIImportedEntity(tag: DW_TAG_imported_declaration, scope: !308, entity: !360, file: !307, line: 74)
!360 = !DISubprogram(name: "rethrow_exception", linkageName: "_ZSt17rethrow_exceptionNSt15__exception_ptr13exception_ptrE", scope: !5, file: !307, line: 70, type: !361, flags: DIFlagPrototyped | DIFlagNoReturn, spFlags: 0)
!361 = !DISubroutineType(types: !362)
!362 = !{null, !306}
!363 = !DIImportedEntity(tag: DW_TAG_imported_declaration, scope: !5, entity: !364, file: !368, line: 83)
!364 = !DISubprogram(name: "acos", scope: !365, file: !365, line: 53, type: !366, flags: DIFlagPrototyped, spFlags: 0)
!365 = !DIFile(filename: "/usr/include/x86_64-linux-gnu/bits/mathcalls.h", directory: "")
!366 = !DISubroutineType(types: !367)
!367 = !{!22, !22}
!368 = !DIFile(filename: "/usr/bin/../lib/gcc/x86_64-linux-gnu/10/../../../../include/c++/10/cmath", directory: "")
!369 = !DIImportedEntity(tag: DW_TAG_imported_declaration, scope: !5, entity: !370, file: !368, line: 102)
!370 = !DISubprogram(name: "asin", scope: !365, file: !365, line: 55, type: !366, flags: DIFlagPrototyped, spFlags: 0)
!371 = !DIImportedEntity(tag: DW_TAG_imported_declaration, scope: !5, entity: !372, file: !368, line: 121)
!372 = !DISubprogram(name: "atan", scope: !365, file: !365, line: 57, type: !366, flags: DIFlagPrototyped, spFlags: 0)
!373 = !DIImportedEntity(tag: DW_TAG_imported_declaration, scope: !5, entity: !374, file: !368, line: 140)
!374 = !DISubprogram(name: "atan2", scope: !365, file: !365, line: 59, type: !375, flags: DIFlagPrototyped, spFlags: 0)
!375 = !DISubroutineType(types: !376)
!376 = !{!22, !22, !22}
!377 = !DIImportedEntity(tag: DW_TAG_imported_declaration, scope: !5, entity: !378, file: !368, line: 161)
!378 = !DISubprogram(name: "ceil", scope: !365, file: !365, line: 159, type: !366, flags: DIFlagPrototyped, spFlags: 0)
!379 = !DIImportedEntity(tag: DW_TAG_imported_declaration, scope: !5, entity: !380, file: !368, line: 180)
!380 = !DISubprogram(name: "cos", scope: !365, file: !365, line: 62, type: !366, flags: DIFlagPrototyped, spFlags: 0)
!381 = !DIImportedEntity(tag: DW_TAG_imported_declaration, scope: !5, entity: !382, file: !368, line: 199)
!382 = !DISubprogram(name: "cosh", scope: !365, file: !365, line: 71, type: !366, flags: DIFlagPrototyped, spFlags: 0)
!383 = !DIImportedEntity(tag: DW_TAG_imported_declaration, scope: !5, entity: !384, file: !368, line: 218)
!384 = !DISubprogram(name: "exp", scope: !365, file: !365, line: 95, type: !366, flags: DIFlagPrototyped, spFlags: 0)
!385 = !DIImportedEntity(tag: DW_TAG_imported_declaration, scope: !5, entity: !386, file: !368, line: 237)
!386 = !DISubprogram(name: "fabs", scope: !365, file: !365, line: 162, type: !366, flags: DIFlagPrototyped, spFlags: 0)
!387 = !DIImportedEntity(tag: DW_TAG_imported_declaration, scope: !5, entity: !388, file: !368, line: 256)
!388 = !DISubprogram(name: "floor", scope: !365, file: !365, line: 165, type: !366, flags: DIFlagPrototyped, spFlags: 0)
!389 = !DIImportedEntity(tag: DW_TAG_imported_declaration, scope: !5, entity: !390, file: !368, line: 275)
!390 = !DISubprogram(name: "fmod", scope: !365, file: !365, line: 168, type: !375, flags: DIFlagPrototyped, spFlags: 0)
!391 = !DIImportedEntity(tag: DW_TAG_imported_declaration, scope: !5, entity: !392, file: !368, line: 296)
!392 = !DISubprogram(name: "frexp", scope: !365, file: !365, line: 98, type: !393, flags: DIFlagPrototyped, spFlags: 0)
!393 = !DISubroutineType(types: !394)
!394 = !{!22, !22, !85}
!395 = !DIImportedEntity(tag: DW_TAG_imported_declaration, scope: !5, entity: !396, file: !368, line: 315)
!396 = !DISubprogram(name: "ldexp", scope: !365, file: !365, line: 101, type: !397, flags: DIFlagPrototyped, spFlags: 0)
!397 = !DISubroutineType(types: !398)
!398 = !{!22, !22, !86}
!399 = !DIImportedEntity(tag: DW_TAG_imported_declaration, scope: !5, entity: !400, file: !368, line: 334)
!400 = !DISubprogram(name: "log", scope: !365, file: !365, line: 104, type: !366, flags: DIFlagPrototyped, spFlags: 0)
!401 = !DIImportedEntity(tag: DW_TAG_imported_declaration, scope: !5, entity: !402, file: !368, line: 353)
!402 = !DISubprogram(name: "log10", scope: !365, file: !365, line: 107, type: !366, flags: DIFlagPrototyped, spFlags: 0)
!403 = !DIImportedEntity(tag: DW_TAG_imported_declaration, scope: !5, entity: !404, file: !368, line: 372)
!404 = !DISubprogram(name: "modf", scope: !365, file: !365, line: 110, type: !405, flags: DIFlagPrototyped, spFlags: 0)
!405 = !DISubroutineType(types: !406)
!406 = !{!22, !22, !23}
!407 = !DIImportedEntity(tag: DW_TAG_imported_declaration, scope: !5, entity: !408, file: !368, line: 384)
!408 = !DISubprogram(name: "pow", scope: !365, file: !365, line: 140, type: !375, flags: DIFlagPrototyped, spFlags: 0)
!409 = !DIImportedEntity(tag: DW_TAG_imported_declaration, scope: !5, entity: !410, file: !368, line: 421)
!410 = !DISubprogram(name: "sin", scope: !365, file: !365, line: 64, type: !366, flags: DIFlagPrototyped, spFlags: 0)
!411 = !DIImportedEntity(tag: DW_TAG_imported_declaration, scope: !5, entity: !412, file: !368, line: 440)
!412 = !DISubprogram(name: "sinh", scope: !365, file: !365, line: 73, type: !366, flags: DIFlagPrototyped, spFlags: 0)
!413 = !DIImportedEntity(tag: DW_TAG_imported_declaration, scope: !5, entity: !414, file: !368, line: 459)
!414 = !DISubprogram(name: "sqrt", scope: !365, file: !365, line: 143, type: !366, flags: DIFlagPrototyped, spFlags: 0)
!415 = !DIImportedEntity(tag: DW_TAG_imported_declaration, scope: !5, entity: !416, file: !368, line: 478)
!416 = !DISubprogram(name: "tan", scope: !365, file: !365, line: 66, type: !366, flags: DIFlagPrototyped, spFlags: 0)
!417 = !DIImportedEntity(tag: DW_TAG_imported_declaration, scope: !5, entity: !418, file: !368, line: 497)
!418 = !DISubprogram(name: "tanh", scope: !365, file: !365, line: 75, type: !366, flags: DIFlagPrototyped, spFlags: 0)
!419 = !DIImportedEntity(tag: DW_TAG_imported_declaration, scope: !5, entity: !420, file: !368, line: 1065)
!420 = !DIDerivedType(tag: DW_TAG_typedef, name: "double_t", file: !421, line: 150, baseType: !22)
!421 = !DIFile(filename: "/usr/include/math.h", directory: "")
!422 = !DIImportedEntity(tag: DW_TAG_imported_declaration, scope: !5, entity: !423, file: !368, line: 1066)
!423 = !DIDerivedType(tag: DW_TAG_typedef, name: "float_t", file: !421, line: 149, baseType: !288)
!424 = !DIImportedEntity(tag: DW_TAG_imported_declaration, scope: !5, entity: !425, file: !368, line: 1069)
!425 = !DISubprogram(name: "acosh", scope: !365, file: !365, line: 85, type: !366, flags: DIFlagPrototyped, spFlags: 0)
!426 = !DIImportedEntity(tag: DW_TAG_imported_declaration, scope: !5, entity: !427, file: !368, line: 1070)
!427 = !DISubprogram(name: "acoshf", scope: !365, file: !365, line: 85, type: !428, flags: DIFlagPrototyped, spFlags: 0)
!428 = !DISubroutineType(types: !429)
!429 = !{!288, !288}
!430 = !DIImportedEntity(tag: DW_TAG_imported_declaration, scope: !5, entity: !431, file: !368, line: 1071)
!431 = !DISubprogram(name: "acoshl", scope: !365, file: !365, line: 85, type: !432, flags: DIFlagPrototyped, spFlags: 0)
!432 = !DISubroutineType(types: !433)
!433 = !{!293, !293}
!434 = !DIImportedEntity(tag: DW_TAG_imported_declaration, scope: !5, entity: !435, file: !368, line: 1073)
!435 = !DISubprogram(name: "asinh", scope: !365, file: !365, line: 87, type: !366, flags: DIFlagPrototyped, spFlags: 0)
!436 = !DIImportedEntity(tag: DW_TAG_imported_declaration, scope: !5, entity: !437, file: !368, line: 1074)
!437 = !DISubprogram(name: "asinhf", scope: !365, file: !365, line: 87, type: !428, flags: DIFlagPrototyped, spFlags: 0)
!438 = !DIImportedEntity(tag: DW_TAG_imported_declaration, scope: !5, entity: !439, file: !368, line: 1075)
!439 = !DISubprogram(name: "asinhl", scope: !365, file: !365, line: 87, type: !432, flags: DIFlagPrototyped, spFlags: 0)
!440 = !DIImportedEntity(tag: DW_TAG_imported_declaration, scope: !5, entity: !441, file: !368, line: 1077)
!441 = !DISubprogram(name: "atanh", scope: !365, file: !365, line: 89, type: !366, flags: DIFlagPrototyped, spFlags: 0)
!442 = !DIImportedEntity(tag: DW_TAG_imported_declaration, scope: !5, entity: !443, file: !368, line: 1078)
!443 = !DISubprogram(name: "atanhf", scope: !365, file: !365, line: 89, type: !428, flags: DIFlagPrototyped, spFlags: 0)
!444 = !DIImportedEntity(tag: DW_TAG_imported_declaration, scope: !5, entity: !445, file: !368, line: 1079)
!445 = !DISubprogram(name: "atanhl", scope: !365, file: !365, line: 89, type: !432, flags: DIFlagPrototyped, spFlags: 0)
!446 = !DIImportedEntity(tag: DW_TAG_imported_declaration, scope: !5, entity: !447, file: !368, line: 1081)
!447 = !DISubprogram(name: "cbrt", scope: !365, file: !365, line: 152, type: !366, flags: DIFlagPrototyped, spFlags: 0)
!448 = !DIImportedEntity(tag: DW_TAG_imported_declaration, scope: !5, entity: !449, file: !368, line: 1082)
!449 = !DISubprogram(name: "cbrtf", scope: !365, file: !365, line: 152, type: !428, flags: DIFlagPrototyped, spFlags: 0)
!450 = !DIImportedEntity(tag: DW_TAG_imported_declaration, scope: !5, entity: !451, file: !368, line: 1083)
!451 = !DISubprogram(name: "cbrtl", scope: !365, file: !365, line: 152, type: !432, flags: DIFlagPrototyped, spFlags: 0)
!452 = !DIImportedEntity(tag: DW_TAG_imported_declaration, scope: !5, entity: !453, file: !368, line: 1085)
!453 = !DISubprogram(name: "copysign", scope: !365, file: !365, line: 196, type: !375, flags: DIFlagPrototyped, spFlags: 0)
!454 = !DIImportedEntity(tag: DW_TAG_imported_declaration, scope: !5, entity: !455, file: !368, line: 1086)
!455 = !DISubprogram(name: "copysignf", scope: !365, file: !365, line: 196, type: !456, flags: DIFlagPrototyped, spFlags: 0)
!456 = !DISubroutineType(types: !457)
!457 = !{!288, !288, !288}
!458 = !DIImportedEntity(tag: DW_TAG_imported_declaration, scope: !5, entity: !459, file: !368, line: 1087)
!459 = !DISubprogram(name: "copysignl", scope: !365, file: !365, line: 196, type: !460, flags: DIFlagPrototyped, spFlags: 0)
!460 = !DISubroutineType(types: !461)
!461 = !{!293, !293, !293}
!462 = !DIImportedEntity(tag: DW_TAG_imported_declaration, scope: !5, entity: !463, file: !368, line: 1089)
!463 = !DISubprogram(name: "erf", scope: !365, file: !365, line: 228, type: !366, flags: DIFlagPrototyped, spFlags: 0)
!464 = !DIImportedEntity(tag: DW_TAG_imported_declaration, scope: !5, entity: !465, file: !368, line: 1090)
!465 = !DISubprogram(name: "erff", scope: !365, file: !365, line: 228, type: !428, flags: DIFlagPrototyped, spFlags: 0)
!466 = !DIImportedEntity(tag: DW_TAG_imported_declaration, scope: !5, entity: !467, file: !368, line: 1091)
!467 = !DISubprogram(name: "erfl", scope: !365, file: !365, line: 228, type: !432, flags: DIFlagPrototyped, spFlags: 0)
!468 = !DIImportedEntity(tag: DW_TAG_imported_declaration, scope: !5, entity: !469, file: !368, line: 1093)
!469 = !DISubprogram(name: "erfc", scope: !365, file: !365, line: 229, type: !366, flags: DIFlagPrototyped, spFlags: 0)
!470 = !DIImportedEntity(tag: DW_TAG_imported_declaration, scope: !5, entity: !471, file: !368, line: 1094)
!471 = !DISubprogram(name: "erfcf", scope: !365, file: !365, line: 229, type: !428, flags: DIFlagPrototyped, spFlags: 0)
!472 = !DIImportedEntity(tag: DW_TAG_imported_declaration, scope: !5, entity: !473, file: !368, line: 1095)
!473 = !DISubprogram(name: "erfcl", scope: !365, file: !365, line: 229, type: !432, flags: DIFlagPrototyped, spFlags: 0)
!474 = !DIImportedEntity(tag: DW_TAG_imported_declaration, scope: !5, entity: !475, file: !368, line: 1097)
!475 = !DISubprogram(name: "exp2", scope: !365, file: !365, line: 130, type: !366, flags: DIFlagPrototyped, spFlags: 0)
!476 = !DIImportedEntity(tag: DW_TAG_imported_declaration, scope: !5, entity: !477, file: !368, line: 1098)
!477 = !DISubprogram(name: "exp2f", scope: !365, file: !365, line: 130, type: !428, flags: DIFlagPrototyped, spFlags: 0)
!478 = !DIImportedEntity(tag: DW_TAG_imported_declaration, scope: !5, entity: !479, file: !368, line: 1099)
!479 = !DISubprogram(name: "exp2l", scope: !365, file: !365, line: 130, type: !432, flags: DIFlagPrototyped, spFlags: 0)
!480 = !DIImportedEntity(tag: DW_TAG_imported_declaration, scope: !5, entity: !481, file: !368, line: 1101)
!481 = !DISubprogram(name: "expm1", scope: !365, file: !365, line: 119, type: !366, flags: DIFlagPrototyped, spFlags: 0)
!482 = !DIImportedEntity(tag: DW_TAG_imported_declaration, scope: !5, entity: !483, file: !368, line: 1102)
!483 = !DISubprogram(name: "expm1f", scope: !365, file: !365, line: 119, type: !428, flags: DIFlagPrototyped, spFlags: 0)
!484 = !DIImportedEntity(tag: DW_TAG_imported_declaration, scope: !5, entity: !485, file: !368, line: 1103)
!485 = !DISubprogram(name: "expm1l", scope: !365, file: !365, line: 119, type: !432, flags: DIFlagPrototyped, spFlags: 0)
!486 = !DIImportedEntity(tag: DW_TAG_imported_declaration, scope: !5, entity: !487, file: !368, line: 1105)
!487 = !DISubprogram(name: "fdim", scope: !365, file: !365, line: 326, type: !375, flags: DIFlagPrototyped, spFlags: 0)
!488 = !DIImportedEntity(tag: DW_TAG_imported_declaration, scope: !5, entity: !489, file: !368, line: 1106)
!489 = !DISubprogram(name: "fdimf", scope: !365, file: !365, line: 326, type: !456, flags: DIFlagPrototyped, spFlags: 0)
!490 = !DIImportedEntity(tag: DW_TAG_imported_declaration, scope: !5, entity: !491, file: !368, line: 1107)
!491 = !DISubprogram(name: "fdiml", scope: !365, file: !365, line: 326, type: !460, flags: DIFlagPrototyped, spFlags: 0)
!492 = !DIImportedEntity(tag: DW_TAG_imported_declaration, scope: !5, entity: !493, file: !368, line: 1109)
!493 = !DISubprogram(name: "fma", scope: !365, file: !365, line: 335, type: !494, flags: DIFlagPrototyped, spFlags: 0)
!494 = !DISubroutineType(types: !495)
!495 = !{!22, !22, !22, !22}
!496 = !DIImportedEntity(tag: DW_TAG_imported_declaration, scope: !5, entity: !497, file: !368, line: 1110)
!497 = !DISubprogram(name: "fmaf", scope: !365, file: !365, line: 335, type: !498, flags: DIFlagPrototyped, spFlags: 0)
!498 = !DISubroutineType(types: !499)
!499 = !{!288, !288, !288, !288}
!500 = !DIImportedEntity(tag: DW_TAG_imported_declaration, scope: !5, entity: !501, file: !368, line: 1111)
!501 = !DISubprogram(name: "fmal", scope: !365, file: !365, line: 335, type: !502, flags: DIFlagPrototyped, spFlags: 0)
!502 = !DISubroutineType(types: !503)
!503 = !{!293, !293, !293, !293}
!504 = !DIImportedEntity(tag: DW_TAG_imported_declaration, scope: !5, entity: !505, file: !368, line: 1113)
!505 = !DISubprogram(name: "fmax", scope: !365, file: !365, line: 329, type: !375, flags: DIFlagPrototyped, spFlags: 0)
!506 = !DIImportedEntity(tag: DW_TAG_imported_declaration, scope: !5, entity: !507, file: !368, line: 1114)
!507 = !DISubprogram(name: "fmaxf", scope: !365, file: !365, line: 329, type: !456, flags: DIFlagPrototyped, spFlags: 0)
!508 = !DIImportedEntity(tag: DW_TAG_imported_declaration, scope: !5, entity: !509, file: !368, line: 1115)
!509 = !DISubprogram(name: "fmaxl", scope: !365, file: !365, line: 329, type: !460, flags: DIFlagPrototyped, spFlags: 0)
!510 = !DIImportedEntity(tag: DW_TAG_imported_declaration, scope: !5, entity: !511, file: !368, line: 1117)
!511 = !DISubprogram(name: "fmin", scope: !365, file: !365, line: 332, type: !375, flags: DIFlagPrototyped, spFlags: 0)
!512 = !DIImportedEntity(tag: DW_TAG_imported_declaration, scope: !5, entity: !513, file: !368, line: 1118)
!513 = !DISubprogram(name: "fminf", scope: !365, file: !365, line: 332, type: !456, flags: DIFlagPrototyped, spFlags: 0)
!514 = !DIImportedEntity(tag: DW_TAG_imported_declaration, scope: !5, entity: !515, file: !368, line: 1119)
!515 = !DISubprogram(name: "fminl", scope: !365, file: !365, line: 332, type: !460, flags: DIFlagPrototyped, spFlags: 0)
!516 = !DIImportedEntity(tag: DW_TAG_imported_declaration, scope: !5, entity: !517, file: !368, line: 1121)
!517 = !DISubprogram(name: "hypot", scope: !365, file: !365, line: 147, type: !375, flags: DIFlagPrototyped, spFlags: 0)
!518 = !DIImportedEntity(tag: DW_TAG_imported_declaration, scope: !5, entity: !519, file: !368, line: 1122)
!519 = !DISubprogram(name: "hypotf", scope: !365, file: !365, line: 147, type: !456, flags: DIFlagPrototyped, spFlags: 0)
!520 = !DIImportedEntity(tag: DW_TAG_imported_declaration, scope: !5, entity: !521, file: !368, line: 1123)
!521 = !DISubprogram(name: "hypotl", scope: !365, file: !365, line: 147, type: !460, flags: DIFlagPrototyped, spFlags: 0)
!522 = !DIImportedEntity(tag: DW_TAG_imported_declaration, scope: !5, entity: !523, file: !368, line: 1125)
!523 = !DISubprogram(name: "ilogb", scope: !365, file: !365, line: 280, type: !524, flags: DIFlagPrototyped, spFlags: 0)
!524 = !DISubroutineType(types: !525)
!525 = !{!86, !22}
!526 = !DIImportedEntity(tag: DW_TAG_imported_declaration, scope: !5, entity: !527, file: !368, line: 1126)
!527 = !DISubprogram(name: "ilogbf", scope: !365, file: !365, line: 280, type: !528, flags: DIFlagPrototyped, spFlags: 0)
!528 = !DISubroutineType(types: !529)
!529 = !{!86, !288}
!530 = !DIImportedEntity(tag: DW_TAG_imported_declaration, scope: !5, entity: !531, file: !368, line: 1127)
!531 = !DISubprogram(name: "ilogbl", scope: !365, file: !365, line: 280, type: !532, flags: DIFlagPrototyped, spFlags: 0)
!532 = !DISubroutineType(types: !533)
!533 = !{!86, !293}
!534 = !DIImportedEntity(tag: DW_TAG_imported_declaration, scope: !5, entity: !535, file: !368, line: 1129)
!535 = !DISubprogram(name: "lgamma", scope: !365, file: !365, line: 230, type: !366, flags: DIFlagPrototyped, spFlags: 0)
!536 = !DIImportedEntity(tag: DW_TAG_imported_declaration, scope: !5, entity: !537, file: !368, line: 1130)
!537 = !DISubprogram(name: "lgammaf", scope: !365, file: !365, line: 230, type: !428, flags: DIFlagPrototyped, spFlags: 0)
!538 = !DIImportedEntity(tag: DW_TAG_imported_declaration, scope: !5, entity: !539, file: !368, line: 1131)
!539 = !DISubprogram(name: "lgammal", scope: !365, file: !365, line: 230, type: !432, flags: DIFlagPrototyped, spFlags: 0)
!540 = !DIImportedEntity(tag: DW_TAG_imported_declaration, scope: !5, entity: !541, file: !368, line: 1134)
!541 = !DISubprogram(name: "llrint", scope: !365, file: !365, line: 316, type: !542, flags: DIFlagPrototyped, spFlags: 0)
!542 = !DISubroutineType(types: !543)
!543 = !{!259, !22}
!544 = !DIImportedEntity(tag: DW_TAG_imported_declaration, scope: !5, entity: !545, file: !368, line: 1135)
!545 = !DISubprogram(name: "llrintf", scope: !365, file: !365, line: 316, type: !546, flags: DIFlagPrototyped, spFlags: 0)
!546 = !DISubroutineType(types: !547)
!547 = !{!259, !288}
!548 = !DIImportedEntity(tag: DW_TAG_imported_declaration, scope: !5, entity: !549, file: !368, line: 1136)
!549 = !DISubprogram(name: "llrintl", scope: !365, file: !365, line: 316, type: !550, flags: DIFlagPrototyped, spFlags: 0)
!550 = !DISubroutineType(types: !551)
!551 = !{!259, !293}
!552 = !DIImportedEntity(tag: DW_TAG_imported_declaration, scope: !5, entity: !553, file: !368, line: 1138)
!553 = !DISubprogram(name: "llround", scope: !365, file: !365, line: 322, type: !542, flags: DIFlagPrototyped, spFlags: 0)
!554 = !DIImportedEntity(tag: DW_TAG_imported_declaration, scope: !5, entity: !555, file: !368, line: 1139)
!555 = !DISubprogram(name: "llroundf", scope: !365, file: !365, line: 322, type: !546, flags: DIFlagPrototyped, spFlags: 0)
!556 = !DIImportedEntity(tag: DW_TAG_imported_declaration, scope: !5, entity: !557, file: !368, line: 1140)
!557 = !DISubprogram(name: "llroundl", scope: !365, file: !365, line: 322, type: !550, flags: DIFlagPrototyped, spFlags: 0)
!558 = !DIImportedEntity(tag: DW_TAG_imported_declaration, scope: !5, entity: !559, file: !368, line: 1143)
!559 = !DISubprogram(name: "log1p", scope: !365, file: !365, line: 122, type: !366, flags: DIFlagPrototyped, spFlags: 0)
!560 = !DIImportedEntity(tag: DW_TAG_imported_declaration, scope: !5, entity: !561, file: !368, line: 1144)
!561 = !DISubprogram(name: "log1pf", scope: !365, file: !365, line: 122, type: !428, flags: DIFlagPrototyped, spFlags: 0)
!562 = !DIImportedEntity(tag: DW_TAG_imported_declaration, scope: !5, entity: !563, file: !368, line: 1145)
!563 = !DISubprogram(name: "log1pl", scope: !365, file: !365, line: 122, type: !432, flags: DIFlagPrototyped, spFlags: 0)
!564 = !DIImportedEntity(tag: DW_TAG_imported_declaration, scope: !5, entity: !565, file: !368, line: 1147)
!565 = !DISubprogram(name: "log2", scope: !365, file: !365, line: 133, type: !366, flags: DIFlagPrototyped, spFlags: 0)
!566 = !DIImportedEntity(tag: DW_TAG_imported_declaration, scope: !5, entity: !567, file: !368, line: 1148)
!567 = !DISubprogram(name: "log2f", scope: !365, file: !365, line: 133, type: !428, flags: DIFlagPrototyped, spFlags: 0)
!568 = !DIImportedEntity(tag: DW_TAG_imported_declaration, scope: !5, entity: !569, file: !368, line: 1149)
!569 = !DISubprogram(name: "log2l", scope: !365, file: !365, line: 133, type: !432, flags: DIFlagPrototyped, spFlags: 0)
!570 = !DIImportedEntity(tag: DW_TAG_imported_declaration, scope: !5, entity: !571, file: !368, line: 1151)
!571 = !DISubprogram(name: "logb", scope: !365, file: !365, line: 125, type: !366, flags: DIFlagPrototyped, spFlags: 0)
!572 = !DIImportedEntity(tag: DW_TAG_imported_declaration, scope: !5, entity: !573, file: !368, line: 1152)
!573 = !DISubprogram(name: "logbf", scope: !365, file: !365, line: 125, type: !428, flags: DIFlagPrototyped, spFlags: 0)
!574 = !DIImportedEntity(tag: DW_TAG_imported_declaration, scope: !5, entity: !575, file: !368, line: 1153)
!575 = !DISubprogram(name: "logbl", scope: !365, file: !365, line: 125, type: !432, flags: DIFlagPrototyped, spFlags: 0)
!576 = !DIImportedEntity(tag: DW_TAG_imported_declaration, scope: !5, entity: !577, file: !368, line: 1155)
!577 = !DISubprogram(name: "lrint", scope: !365, file: !365, line: 314, type: !578, flags: DIFlagPrototyped, spFlags: 0)
!578 = !DISubroutineType(types: !579)
!579 = !{!120, !22}
!580 = !DIImportedEntity(tag: DW_TAG_imported_declaration, scope: !5, entity: !581, file: !368, line: 1156)
!581 = !DISubprogram(name: "lrintf", scope: !365, file: !365, line: 314, type: !582, flags: DIFlagPrototyped, spFlags: 0)
!582 = !DISubroutineType(types: !583)
!583 = !{!120, !288}
!584 = !DIImportedEntity(tag: DW_TAG_imported_declaration, scope: !5, entity: !585, file: !368, line: 1157)
!585 = !DISubprogram(name: "lrintl", scope: !365, file: !365, line: 314, type: !586, flags: DIFlagPrototyped, spFlags: 0)
!586 = !DISubroutineType(types: !587)
!587 = !{!120, !293}
!588 = !DIImportedEntity(tag: DW_TAG_imported_declaration, scope: !5, entity: !589, file: !368, line: 1159)
!589 = !DISubprogram(name: "lround", scope: !365, file: !365, line: 320, type: !578, flags: DIFlagPrototyped, spFlags: 0)
!590 = !DIImportedEntity(tag: DW_TAG_imported_declaration, scope: !5, entity: !591, file: !368, line: 1160)
!591 = !DISubprogram(name: "lroundf", scope: !365, file: !365, line: 320, type: !582, flags: DIFlagPrototyped, spFlags: 0)
!592 = !DIImportedEntity(tag: DW_TAG_imported_declaration, scope: !5, entity: !593, file: !368, line: 1161)
!593 = !DISubprogram(name: "lroundl", scope: !365, file: !365, line: 320, type: !586, flags: DIFlagPrototyped, spFlags: 0)
!594 = !DIImportedEntity(tag: DW_TAG_imported_declaration, scope: !5, entity: !595, file: !368, line: 1163)
!595 = !DISubprogram(name: "nan", scope: !365, file: !365, line: 201, type: !142, flags: DIFlagPrototyped, spFlags: 0)
!596 = !DIImportedEntity(tag: DW_TAG_imported_declaration, scope: !5, entity: !597, file: !368, line: 1164)
!597 = !DISubprogram(name: "nanf", scope: !365, file: !365, line: 201, type: !598, flags: DIFlagPrototyped, spFlags: 0)
!598 = !DISubroutineType(types: !599)
!599 = !{!288, !144}
!600 = !DIImportedEntity(tag: DW_TAG_imported_declaration, scope: !5, entity: !601, file: !368, line: 1165)
!601 = !DISubprogram(name: "nanl", scope: !365, file: !365, line: 201, type: !602, flags: DIFlagPrototyped, spFlags: 0)
!602 = !DISubroutineType(types: !603)
!603 = !{!293, !144}
!604 = !DIImportedEntity(tag: DW_TAG_imported_declaration, scope: !5, entity: !605, file: !368, line: 1167)
!605 = !DISubprogram(name: "nearbyint", scope: !365, file: !365, line: 294, type: !366, flags: DIFlagPrototyped, spFlags: 0)
!606 = !DIImportedEntity(tag: DW_TAG_imported_declaration, scope: !5, entity: !607, file: !368, line: 1168)
!607 = !DISubprogram(name: "nearbyintf", scope: !365, file: !365, line: 294, type: !428, flags: DIFlagPrototyped, spFlags: 0)
!608 = !DIImportedEntity(tag: DW_TAG_imported_declaration, scope: !5, entity: !609, file: !368, line: 1169)
!609 = !DISubprogram(name: "nearbyintl", scope: !365, file: !365, line: 294, type: !432, flags: DIFlagPrototyped, spFlags: 0)
!610 = !DIImportedEntity(tag: DW_TAG_imported_declaration, scope: !5, entity: !611, file: !368, line: 1171)
!611 = !DISubprogram(name: "nextafter", scope: !365, file: !365, line: 259, type: !375, flags: DIFlagPrototyped, spFlags: 0)
!612 = !DIImportedEntity(tag: DW_TAG_imported_declaration, scope: !5, entity: !613, file: !368, line: 1172)
!613 = !DISubprogram(name: "nextafterf", scope: !365, file: !365, line: 259, type: !456, flags: DIFlagPrototyped, spFlags: 0)
!614 = !DIImportedEntity(tag: DW_TAG_imported_declaration, scope: !5, entity: !615, file: !368, line: 1173)
!615 = !DISubprogram(name: "nextafterl", scope: !365, file: !365, line: 259, type: !460, flags: DIFlagPrototyped, spFlags: 0)
!616 = !DIImportedEntity(tag: DW_TAG_imported_declaration, scope: !5, entity: !617, file: !368, line: 1175)
!617 = !DISubprogram(name: "nexttoward", scope: !365, file: !365, line: 261, type: !618, flags: DIFlagPrototyped, spFlags: 0)
!618 = !DISubroutineType(types: !619)
!619 = !{!22, !22, !293}
!620 = !DIImportedEntity(tag: DW_TAG_imported_declaration, scope: !5, entity: !621, file: !368, line: 1176)
!621 = !DISubprogram(name: "nexttowardf", scope: !365, file: !365, line: 261, type: !622, flags: DIFlagPrototyped, spFlags: 0)
!622 = !DISubroutineType(types: !623)
!623 = !{!288, !288, !293}
!624 = !DIImportedEntity(tag: DW_TAG_imported_declaration, scope: !5, entity: !625, file: !368, line: 1177)
!625 = !DISubprogram(name: "nexttowardl", scope: !365, file: !365, line: 261, type: !460, flags: DIFlagPrototyped, spFlags: 0)
!626 = !DIImportedEntity(tag: DW_TAG_imported_declaration, scope: !5, entity: !627, file: !368, line: 1179)
!627 = !DISubprogram(name: "remainder", scope: !365, file: !365, line: 272, type: !375, flags: DIFlagPrototyped, spFlags: 0)
!628 = !DIImportedEntity(tag: DW_TAG_imported_declaration, scope: !5, entity: !629, file: !368, line: 1180)
!629 = !DISubprogram(name: "remainderf", scope: !365, file: !365, line: 272, type: !456, flags: DIFlagPrototyped, spFlags: 0)
!630 = !DIImportedEntity(tag: DW_TAG_imported_declaration, scope: !5, entity: !631, file: !368, line: 1181)
!631 = !DISubprogram(name: "remainderl", scope: !365, file: !365, line: 272, type: !460, flags: DIFlagPrototyped, spFlags: 0)
!632 = !DIImportedEntity(tag: DW_TAG_imported_declaration, scope: !5, entity: !633, file: !368, line: 1183)
!633 = !DISubprogram(name: "remquo", scope: !365, file: !365, line: 307, type: !634, flags: DIFlagPrototyped, spFlags: 0)
!634 = !DISubroutineType(types: !635)
!635 = !{!22, !22, !22, !85}
!636 = !DIImportedEntity(tag: DW_TAG_imported_declaration, scope: !5, entity: !637, file: !368, line: 1184)
!637 = !DISubprogram(name: "remquof", scope: !365, file: !365, line: 307, type: !638, flags: DIFlagPrototyped, spFlags: 0)
!638 = !DISubroutineType(types: !639)
!639 = !{!288, !288, !288, !85}
!640 = !DIImportedEntity(tag: DW_TAG_imported_declaration, scope: !5, entity: !641, file: !368, line: 1185)
!641 = !DISubprogram(name: "remquol", scope: !365, file: !365, line: 307, type: !642, flags: DIFlagPrototyped, spFlags: 0)
!642 = !DISubroutineType(types: !643)
!643 = !{!293, !293, !293, !85}
!644 = !DIImportedEntity(tag: DW_TAG_imported_declaration, scope: !5, entity: !645, file: !368, line: 1187)
!645 = !DISubprogram(name: "rint", scope: !365, file: !365, line: 256, type: !366, flags: DIFlagPrototyped, spFlags: 0)
!646 = !DIImportedEntity(tag: DW_TAG_imported_declaration, scope: !5, entity: !647, file: !368, line: 1188)
!647 = !DISubprogram(name: "rintf", scope: !365, file: !365, line: 256, type: !428, flags: DIFlagPrototyped, spFlags: 0)
!648 = !DIImportedEntity(tag: DW_TAG_imported_declaration, scope: !5, entity: !649, file: !368, line: 1189)
!649 = !DISubprogram(name: "rintl", scope: !365, file: !365, line: 256, type: !432, flags: DIFlagPrototyped, spFlags: 0)
!650 = !DIImportedEntity(tag: DW_TAG_imported_declaration, scope: !5, entity: !651, file: !368, line: 1191)
!651 = !DISubprogram(name: "round", scope: !365, file: !365, line: 298, type: !366, flags: DIFlagPrototyped, spFlags: 0)
!652 = !DIImportedEntity(tag: DW_TAG_imported_declaration, scope: !5, entity: !653, file: !368, line: 1192)
!653 = !DISubprogram(name: "roundf", scope: !365, file: !365, line: 298, type: !428, flags: DIFlagPrototyped, spFlags: 0)
!654 = !DIImportedEntity(tag: DW_TAG_imported_declaration, scope: !5, entity: !655, file: !368, line: 1193)
!655 = !DISubprogram(name: "roundl", scope: !365, file: !365, line: 298, type: !432, flags: DIFlagPrototyped, spFlags: 0)
!656 = !DIImportedEntity(tag: DW_TAG_imported_declaration, scope: !5, entity: !657, file: !368, line: 1195)
!657 = !DISubprogram(name: "scalbln", scope: !365, file: !365, line: 290, type: !658, flags: DIFlagPrototyped, spFlags: 0)
!658 = !DISubroutineType(types: !659)
!659 = !{!22, !22, !120}
!660 = !DIImportedEntity(tag: DW_TAG_imported_declaration, scope: !5, entity: !661, file: !368, line: 1196)
!661 = !DISubprogram(name: "scalblnf", scope: !365, file: !365, line: 290, type: !662, flags: DIFlagPrototyped, spFlags: 0)
!662 = !DISubroutineType(types: !663)
!663 = !{!288, !288, !120}
!664 = !DIImportedEntity(tag: DW_TAG_imported_declaration, scope: !5, entity: !665, file: !368, line: 1197)
!665 = !DISubprogram(name: "scalblnl", scope: !365, file: !365, line: 290, type: !666, flags: DIFlagPrototyped, spFlags: 0)
!666 = !DISubroutineType(types: !667)
!667 = !{!293, !293, !120}
!668 = !DIImportedEntity(tag: DW_TAG_imported_declaration, scope: !5, entity: !669, file: !368, line: 1199)
!669 = !DISubprogram(name: "scalbn", scope: !365, file: !365, line: 276, type: !397, flags: DIFlagPrototyped, spFlags: 0)
!670 = !DIImportedEntity(tag: DW_TAG_imported_declaration, scope: !5, entity: !671, file: !368, line: 1200)
!671 = !DISubprogram(name: "scalbnf", scope: !365, file: !365, line: 276, type: !672, flags: DIFlagPrototyped, spFlags: 0)
!672 = !DISubroutineType(types: !673)
!673 = !{!288, !288, !86}
!674 = !DIImportedEntity(tag: DW_TAG_imported_declaration, scope: !5, entity: !675, file: !368, line: 1201)
!675 = !DISubprogram(name: "scalbnl", scope: !365, file: !365, line: 276, type: !676, flags: DIFlagPrototyped, spFlags: 0)
!676 = !DISubroutineType(types: !677)
!677 = !{!293, !293, !86}
!678 = !DIImportedEntity(tag: DW_TAG_imported_declaration, scope: !5, entity: !679, file: !368, line: 1203)
!679 = !DISubprogram(name: "tgamma", scope: !365, file: !365, line: 235, type: !366, flags: DIFlagPrototyped, spFlags: 0)
!680 = !DIImportedEntity(tag: DW_TAG_imported_declaration, scope: !5, entity: !681, file: !368, line: 1204)
!681 = !DISubprogram(name: "tgammaf", scope: !365, file: !365, line: 235, type: !428, flags: DIFlagPrototyped, spFlags: 0)
!682 = !DIImportedEntity(tag: DW_TAG_imported_declaration, scope: !5, entity: !683, file: !368, line: 1205)
!683 = !DISubprogram(name: "tgammal", scope: !365, file: !365, line: 235, type: !432, flags: DIFlagPrototyped, spFlags: 0)
!684 = !DIImportedEntity(tag: DW_TAG_imported_declaration, scope: !5, entity: !685, file: !368, line: 1207)
!685 = !DISubprogram(name: "trunc", scope: !365, file: !365, line: 302, type: !366, flags: DIFlagPrototyped, spFlags: 0)
!686 = !DIImportedEntity(tag: DW_TAG_imported_declaration, scope: !5, entity: !687, file: !368, line: 1208)
!687 = !DISubprogram(name: "truncf", scope: !365, file: !365, line: 302, type: !428, flags: DIFlagPrototyped, spFlags: 0)
!688 = !DIImportedEntity(tag: DW_TAG_imported_declaration, scope: !5, entity: !689, file: !368, line: 1209)
!689 = !DISubprogram(name: "truncl", scope: !365, file: !365, line: 302, type: !432, flags: DIFlagPrototyped, spFlags: 0)
!690 = !DIImportedEntity(tag: DW_TAG_imported_declaration, scope: !5, entity: !691, file: !706, line: 64)
!691 = !DIDerivedType(tag: DW_TAG_typedef, name: "mbstate_t", file: !692, line: 6, baseType: !693)
!692 = !DIFile(filename: "/usr/include/x86_64-linux-gnu/bits/types/mbstate_t.h", directory: "")
!693 = !DIDerivedType(tag: DW_TAG_typedef, name: "__mbstate_t", file: !694, line: 21, baseType: !695)
!694 = !DIFile(filename: "/usr/include/x86_64-linux-gnu/bits/types/__mbstate_t.h", directory: "")
!695 = distinct !DICompositeType(tag: DW_TAG_structure_type, file: !694, line: 13, size: 64, flags: DIFlagTypePassByValue, elements: !696, identifier: "_ZTS11__mbstate_t")
!696 = !{!697, !698}
!697 = !DIDerivedType(tag: DW_TAG_member, name: "__count", scope: !695, file: !694, line: 15, baseType: !86, size: 32)
!698 = !DIDerivedType(tag: DW_TAG_member, name: "__value", scope: !695, file: !694, line: 20, baseType: !699, size: 32, offset: 32)
!699 = distinct !DICompositeType(tag: DW_TAG_union_type, scope: !695, file: !694, line: 16, size: 32, flags: DIFlagTypePassByValue, elements: !700, identifier: "_ZTSN11__mbstate_tUt_E")
!700 = !{!701, !702}
!701 = !DIDerivedType(tag: DW_TAG_member, name: "__wch", scope: !699, file: !694, line: 18, baseType: !10, size: 32)
!702 = !DIDerivedType(tag: DW_TAG_member, name: "__wchb", scope: !699, file: !694, line: 19, baseType: !703, size: 32)
!703 = !DICompositeType(tag: DW_TAG_array_type, baseType: !9, size: 32, elements: !704)
!704 = !{!705}
!705 = !DISubrange(count: 4)
!706 = !DIFile(filename: "/usr/bin/../lib/gcc/x86_64-linux-gnu/10/../../../../include/c++/10/cwchar", directory: "")
!707 = !DIImportedEntity(tag: DW_TAG_imported_declaration, scope: !5, entity: !708, file: !706, line: 141)
!708 = !DIDerivedType(tag: DW_TAG_typedef, name: "wint_t", file: !709, line: 20, baseType: !10)
!709 = !DIFile(filename: "/usr/include/x86_64-linux-gnu/bits/types/wint_t.h", directory: "")
!710 = !DIImportedEntity(tag: DW_TAG_imported_declaration, scope: !5, entity: !711, file: !706, line: 143)
!711 = !DISubprogram(name: "btowc", scope: !712, file: !712, line: 284, type: !713, flags: DIFlagPrototyped, spFlags: 0)
!712 = !DIFile(filename: "/usr/include/wchar.h", directory: "")
!713 = !DISubroutineType(types: !714)
!714 = !{!708, !86}
!715 = !DIImportedEntity(tag: DW_TAG_imported_declaration, scope: !5, entity: !716, file: !706, line: 144)
!716 = !DISubprogram(name: "fgetwc", scope: !712, file: !712, line: 726, type: !717, flags: DIFlagPrototyped, spFlags: 0)
!717 = !DISubroutineType(types: !718)
!718 = !{!708, !719}
!719 = !DIDerivedType(tag: DW_TAG_pointer_type, baseType: !720, size: 64)
!720 = !DIDerivedType(tag: DW_TAG_typedef, name: "__FILE", file: !721, line: 5, baseType: !722)
!721 = !DIFile(filename: "/usr/include/x86_64-linux-gnu/bits/types/__FILE.h", directory: "")
!722 = !DICompositeType(tag: DW_TAG_structure_type, name: "_IO_FILE", file: !721, line: 4, flags: DIFlagFwdDecl, identifier: "_ZTS8_IO_FILE")
!723 = !DIImportedEntity(tag: DW_TAG_imported_declaration, scope: !5, entity: !724, file: !706, line: 145)
!724 = !DISubprogram(name: "fgetws", scope: !712, file: !712, line: 755, type: !725, flags: DIFlagPrototyped, spFlags: 0)
!725 = !DISubroutineType(types: !726)
!726 = !{!201, !200, !86, !727}
!727 = !DIDerivedType(tag: DW_TAG_restrict_type, baseType: !719)
!728 = !DIImportedEntity(tag: DW_TAG_imported_declaration, scope: !5, entity: !729, file: !706, line: 146)
!729 = !DISubprogram(name: "fputwc", scope: !712, file: !712, line: 740, type: !730, flags: DIFlagPrototyped, spFlags: 0)
!730 = !DISubroutineType(types: !731)
!731 = !{!708, !202, !719}
!732 = !DIImportedEntity(tag: DW_TAG_imported_declaration, scope: !5, entity: !733, file: !706, line: 147)
!733 = !DISubprogram(name: "fputws", scope: !712, file: !712, line: 762, type: !734, flags: DIFlagPrototyped, spFlags: 0)
!734 = !DISubroutineType(types: !735)
!735 = !{!86, !247, !727}
!736 = !DIImportedEntity(tag: DW_TAG_imported_declaration, scope: !5, entity: !737, file: !706, line: 148)
!737 = !DISubprogram(name: "fwide", scope: !712, file: !712, line: 573, type: !738, flags: DIFlagPrototyped, spFlags: 0)
!738 = !DISubroutineType(types: !739)
!739 = !{!86, !719, !86}
!740 = !DIImportedEntity(tag: DW_TAG_imported_declaration, scope: !5, entity: !741, file: !706, line: 149)
!741 = !DISubprogram(name: "fwprintf", scope: !712, file: !712, line: 580, type: !742, flags: DIFlagPrototyped, spFlags: 0)
!742 = !DISubroutineType(types: !743)
!743 = !{!86, !727, !247, null}
!744 = !DIImportedEntity(tag: DW_TAG_imported_declaration, scope: !5, entity: !745, file: !706, line: 150)
!745 = !DISubprogram(name: "fwscanf", linkageName: "__isoc99_fwscanf", scope: !712, file: !712, line: 640, type: !742, flags: DIFlagPrototyped, spFlags: 0)
!746 = !DIImportedEntity(tag: DW_TAG_imported_declaration, scope: !5, entity: !747, file: !706, line: 151)
!747 = !DISubprogram(name: "getwc", scope: !712, file: !712, line: 727, type: !717, flags: DIFlagPrototyped, spFlags: 0)
!748 = !DIImportedEntity(tag: DW_TAG_imported_declaration, scope: !5, entity: !749, file: !706, line: 152)
!749 = !DISubprogram(name: "getwchar", scope: !712, file: !712, line: 733, type: !750, flags: DIFlagPrototyped, spFlags: 0)
!750 = !DISubroutineType(types: !751)
!751 = !{!708}
!752 = !DIImportedEntity(tag: DW_TAG_imported_declaration, scope: !5, entity: !753, file: !706, line: 153)
!753 = !DISubprogram(name: "mbrlen", scope: !712, file: !712, line: 307, type: !754, flags: DIFlagPrototyped, spFlags: 0)
!754 = !DISubroutineType(types: !755)
!755 = !{!131, !203, !131, !756}
!756 = !DIDerivedType(tag: DW_TAG_restrict_type, baseType: !757)
!757 = !DIDerivedType(tag: DW_TAG_pointer_type, baseType: !691, size: 64)
!758 = !DIImportedEntity(tag: DW_TAG_imported_declaration, scope: !5, entity: !759, file: !706, line: 154)
!759 = !DISubprogram(name: "mbrtowc", scope: !712, file: !712, line: 296, type: !760, flags: DIFlagPrototyped, spFlags: 0)
!760 = !DISubroutineType(types: !761)
!761 = !{!131, !200, !203, !131, !756}
!762 = !DIImportedEntity(tag: DW_TAG_imported_declaration, scope: !5, entity: !763, file: !706, line: 155)
!763 = !DISubprogram(name: "mbsinit", scope: !712, file: !712, line: 292, type: !764, flags: DIFlagPrototyped, spFlags: 0)
!764 = !DISubroutineType(types: !765)
!765 = !{!86, !766}
!766 = !DIDerivedType(tag: DW_TAG_pointer_type, baseType: !767, size: 64)
!767 = !DIDerivedType(tag: DW_TAG_const_type, baseType: !691)
!768 = !DIImportedEntity(tag: DW_TAG_imported_declaration, scope: !5, entity: !769, file: !706, line: 156)
!769 = !DISubprogram(name: "mbsrtowcs", scope: !712, file: !712, line: 337, type: !770, flags: DIFlagPrototyped, spFlags: 0)
!770 = !DISubroutineType(types: !771)
!771 = !{!131, !200, !772, !131, !756}
!772 = !DIDerivedType(tag: DW_TAG_restrict_type, baseType: !773)
!773 = !DIDerivedType(tag: DW_TAG_pointer_type, baseType: !144, size: 64)
!774 = !DIImportedEntity(tag: DW_TAG_imported_declaration, scope: !5, entity: !775, file: !706, line: 157)
!775 = !DISubprogram(name: "putwc", scope: !712, file: !712, line: 741, type: !730, flags: DIFlagPrototyped, spFlags: 0)
!776 = !DIImportedEntity(tag: DW_TAG_imported_declaration, scope: !5, entity: !777, file: !706, line: 158)
!777 = !DISubprogram(name: "putwchar", scope: !712, file: !712, line: 747, type: !778, flags: DIFlagPrototyped, spFlags: 0)
!778 = !DISubroutineType(types: !779)
!779 = !{!708, !202}
!780 = !DIImportedEntity(tag: DW_TAG_imported_declaration, scope: !5, entity: !781, file: !706, line: 160)
!781 = !DISubprogram(name: "swprintf", scope: !712, file: !712, line: 590, type: !782, flags: DIFlagPrototyped, spFlags: 0)
!782 = !DISubroutineType(types: !783)
!783 = !{!86, !200, !131, !247, null}
!784 = !DIImportedEntity(tag: DW_TAG_imported_declaration, scope: !5, entity: !785, file: !706, line: 162)
!785 = !DISubprogram(name: "swscanf", linkageName: "__isoc99_swscanf", scope: !712, file: !712, line: 647, type: !786, flags: DIFlagPrototyped, spFlags: 0)
!786 = !DISubroutineType(types: !787)
!787 = !{!86, !247, !247, null}
!788 = !DIImportedEntity(tag: DW_TAG_imported_declaration, scope: !5, entity: !789, file: !706, line: 163)
!789 = !DISubprogram(name: "ungetwc", scope: !712, file: !712, line: 770, type: !790, flags: DIFlagPrototyped, spFlags: 0)
!790 = !DISubroutineType(types: !791)
!791 = !{!708, !708, !719}
!792 = !DIImportedEntity(tag: DW_TAG_imported_declaration, scope: !5, entity: !793, file: !706, line: 164)
!793 = !DISubprogram(name: "vfwprintf", scope: !712, file: !712, line: 598, type: !794, flags: DIFlagPrototyped, spFlags: 0)
!794 = !DISubroutineType(types: !795)
!795 = !{!86, !727, !247, !796}
!796 = !DIDerivedType(tag: DW_TAG_pointer_type, baseType: !797, size: 64)
!797 = distinct !DICompositeType(tag: DW_TAG_structure_type, name: "__va_list_tag", file: !12, size: 192, flags: DIFlagTypePassByValue, elements: !798, identifier: "_ZTS13__va_list_tag")
!798 = !{!799, !800, !801, !802}
!799 = !DIDerivedType(tag: DW_TAG_member, name: "gp_offset", scope: !797, file: !12, baseType: !10, size: 32)
!800 = !DIDerivedType(tag: DW_TAG_member, name: "fp_offset", scope: !797, file: !12, baseType: !10, size: 32, offset: 32)
!801 = !DIDerivedType(tag: DW_TAG_member, name: "overflow_arg_area", scope: !797, file: !12, baseType: !130, size: 64, offset: 64)
!802 = !DIDerivedType(tag: DW_TAG_member, name: "reg_save_area", scope: !797, file: !12, baseType: !130, size: 64, offset: 128)
!803 = !DIImportedEntity(tag: DW_TAG_imported_declaration, scope: !5, entity: !804, file: !706, line: 166)
!804 = !DISubprogram(name: "vfwscanf", linkageName: "__isoc99_vfwscanf", scope: !712, file: !712, line: 693, type: !794, flags: DIFlagPrototyped, spFlags: 0)
!805 = !DIImportedEntity(tag: DW_TAG_imported_declaration, scope: !5, entity: !806, file: !706, line: 169)
!806 = !DISubprogram(name: "vswprintf", scope: !712, file: !712, line: 611, type: !807, flags: DIFlagPrototyped, spFlags: 0)
!807 = !DISubroutineType(types: !808)
!808 = !{!86, !200, !131, !247, !796}
!809 = !DIImportedEntity(tag: DW_TAG_imported_declaration, scope: !5, entity: !810, file: !706, line: 172)
!810 = !DISubprogram(name: "vswscanf", linkageName: "__isoc99_vswscanf", scope: !712, file: !712, line: 700, type: !811, flags: DIFlagPrototyped, spFlags: 0)
!811 = !DISubroutineType(types: !812)
!812 = !{!86, !247, !247, !796}
!813 = !DIImportedEntity(tag: DW_TAG_imported_declaration, scope: !5, entity: !814, file: !706, line: 174)
!814 = !DISubprogram(name: "vwprintf", scope: !712, file: !712, line: 606, type: !815, flags: DIFlagPrototyped, spFlags: 0)
!815 = !DISubroutineType(types: !816)
!816 = !{!86, !247, !796}
!817 = !DIImportedEntity(tag: DW_TAG_imported_declaration, scope: !5, entity: !818, file: !706, line: 176)
!818 = !DISubprogram(name: "vwscanf", linkageName: "__isoc99_vwscanf", scope: !712, file: !712, line: 697, type: !815, flags: DIFlagPrototyped, spFlags: 0)
!819 = !DIImportedEntity(tag: DW_TAG_imported_declaration, scope: !5, entity: !820, file: !706, line: 178)
!820 = !DISubprogram(name: "wcrtomb", scope: !712, file: !712, line: 301, type: !821, flags: DIFlagPrototyped, spFlags: 0)
!821 = !DISubroutineType(types: !822)
!822 = !{!131, !246, !202, !756}
!823 = !DIImportedEntity(tag: DW_TAG_imported_declaration, scope: !5, entity: !824, file: !706, line: 179)
!824 = !DISubprogram(name: "wcscat", scope: !712, file: !712, line: 97, type: !825, flags: DIFlagPrototyped, spFlags: 0)
!825 = !DISubroutineType(types: !826)
!826 = !{!201, !200, !247}
!827 = !DIImportedEntity(tag: DW_TAG_imported_declaration, scope: !5, entity: !828, file: !706, line: 180)
!828 = !DISubprogram(name: "wcscmp", scope: !712, file: !712, line: 106, type: !829, flags: DIFlagPrototyped, spFlags: 0)
!829 = !DISubroutineType(types: !830)
!830 = !{!86, !248, !248}
!831 = !DIImportedEntity(tag: DW_TAG_imported_declaration, scope: !5, entity: !832, file: !706, line: 181)
!832 = !DISubprogram(name: "wcscoll", scope: !712, file: !712, line: 131, type: !829, flags: DIFlagPrototyped, spFlags: 0)
!833 = !DIImportedEntity(tag: DW_TAG_imported_declaration, scope: !5, entity: !834, file: !706, line: 182)
!834 = !DISubprogram(name: "wcscpy", scope: !712, file: !712, line: 87, type: !825, flags: DIFlagPrototyped, spFlags: 0)
!835 = !DIImportedEntity(tag: DW_TAG_imported_declaration, scope: !5, entity: !836, file: !706, line: 183)
!836 = !DISubprogram(name: "wcscspn", scope: !712, file: !712, line: 187, type: !837, flags: DIFlagPrototyped, spFlags: 0)
!837 = !DISubroutineType(types: !838)
!838 = !{!131, !248, !248}
!839 = !DIImportedEntity(tag: DW_TAG_imported_declaration, scope: !5, entity: !840, file: !706, line: 184)
!840 = !DISubprogram(name: "wcsftime", scope: !712, file: !712, line: 834, type: !841, flags: DIFlagPrototyped, spFlags: 0)
!841 = !DISubroutineType(types: !842)
!842 = !{!131, !200, !131, !247, !843}
!843 = !DIDerivedType(tag: DW_TAG_restrict_type, baseType: !844)
!844 = !DIDerivedType(tag: DW_TAG_pointer_type, baseType: !845, size: 64)
!845 = !DIDerivedType(tag: DW_TAG_const_type, baseType: !846)
!846 = !DICompositeType(tag: DW_TAG_structure_type, name: "tm", file: !712, line: 83, flags: DIFlagFwdDecl, identifier: "_ZTS2tm")
!847 = !DIImportedEntity(tag: DW_TAG_imported_declaration, scope: !5, entity: !848, file: !706, line: 185)
!848 = !DISubprogram(name: "wcslen", scope: !712, file: !712, line: 222, type: !849, flags: DIFlagPrototyped, spFlags: 0)
!849 = !DISubroutineType(types: !850)
!850 = !{!131, !248}
!851 = !DIImportedEntity(tag: DW_TAG_imported_declaration, scope: !5, entity: !852, file: !706, line: 186)
!852 = !DISubprogram(name: "wcsncat", scope: !712, file: !712, line: 101, type: !853, flags: DIFlagPrototyped, spFlags: 0)
!853 = !DISubroutineType(types: !854)
!854 = !{!201, !200, !247, !131}
!855 = !DIImportedEntity(tag: DW_TAG_imported_declaration, scope: !5, entity: !856, file: !706, line: 187)
!856 = !DISubprogram(name: "wcsncmp", scope: !712, file: !712, line: 109, type: !857, flags: DIFlagPrototyped, spFlags: 0)
!857 = !DISubroutineType(types: !858)
!858 = !{!86, !248, !248, !131}
!859 = !DIImportedEntity(tag: DW_TAG_imported_declaration, scope: !5, entity: !860, file: !706, line: 188)
!860 = !DISubprogram(name: "wcsncpy", scope: !712, file: !712, line: 92, type: !853, flags: DIFlagPrototyped, spFlags: 0)
!861 = !DIImportedEntity(tag: DW_TAG_imported_declaration, scope: !5, entity: !862, file: !706, line: 189)
!862 = !DISubprogram(name: "wcsrtombs", scope: !712, file: !712, line: 343, type: !863, flags: DIFlagPrototyped, spFlags: 0)
!863 = !DISubroutineType(types: !864)
!864 = !{!131, !246, !865, !131, !756}
!865 = !DIDerivedType(tag: DW_TAG_restrict_type, baseType: !866)
!866 = !DIDerivedType(tag: DW_TAG_pointer_type, baseType: !248, size: 64)
!867 = !DIImportedEntity(tag: DW_TAG_imported_declaration, scope: !5, entity: !868, file: !706, line: 190)
!868 = !DISubprogram(name: "wcsspn", scope: !712, file: !712, line: 191, type: !837, flags: DIFlagPrototyped, spFlags: 0)
!869 = !DIImportedEntity(tag: DW_TAG_imported_declaration, scope: !5, entity: !870, file: !706, line: 191)
!870 = !DISubprogram(name: "wcstod", scope: !712, file: !712, line: 377, type: !871, flags: DIFlagPrototyped, spFlags: 0)
!871 = !DISubroutineType(types: !872)
!872 = !{!22, !247, !873}
!873 = !DIDerivedType(tag: DW_TAG_restrict_type, baseType: !874)
!874 = !DIDerivedType(tag: DW_TAG_pointer_type, baseType: !201, size: 64)
!875 = !DIImportedEntity(tag: DW_TAG_imported_declaration, scope: !5, entity: !876, file: !706, line: 193)
!876 = !DISubprogram(name: "wcstof", scope: !712, file: !712, line: 382, type: !877, flags: DIFlagPrototyped, spFlags: 0)
!877 = !DISubroutineType(types: !878)
!878 = !{!288, !247, !873}
!879 = !DIImportedEntity(tag: DW_TAG_imported_declaration, scope: !5, entity: !880, file: !706, line: 195)
!880 = !DISubprogram(name: "wcstok", scope: !712, file: !712, line: 217, type: !881, flags: DIFlagPrototyped, spFlags: 0)
!881 = !DISubroutineType(types: !882)
!882 = !{!201, !200, !247, !873}
!883 = !DIImportedEntity(tag: DW_TAG_imported_declaration, scope: !5, entity: !884, file: !706, line: 196)
!884 = !DISubprogram(name: "wcstol", scope: !712, file: !712, line: 428, type: !885, flags: DIFlagPrototyped, spFlags: 0)
!885 = !DISubroutineType(types: !886)
!886 = !{!120, !247, !873, !86}
!887 = !DIImportedEntity(tag: DW_TAG_imported_declaration, scope: !5, entity: !888, file: !706, line: 197)
!888 = !DISubprogram(name: "wcstoul", scope: !712, file: !712, line: 433, type: !889, flags: DIFlagPrototyped, spFlags: 0)
!889 = !DISubroutineType(types: !890)
!890 = !{!45, !247, !873, !86}
!891 = !DIImportedEntity(tag: DW_TAG_imported_declaration, scope: !5, entity: !892, file: !706, line: 198)
!892 = !DISubprogram(name: "wcsxfrm", scope: !712, file: !712, line: 135, type: !893, flags: DIFlagPrototyped, spFlags: 0)
!893 = !DISubroutineType(types: !894)
!894 = !{!131, !200, !247, !131}
!895 = !DIImportedEntity(tag: DW_TAG_imported_declaration, scope: !5, entity: !896, file: !706, line: 199)
!896 = !DISubprogram(name: "wctob", scope: !712, file: !712, line: 288, type: !897, flags: DIFlagPrototyped, spFlags: 0)
!897 = !DISubroutineType(types: !898)
!898 = !{!86, !708}
!899 = !DIImportedEntity(tag: DW_TAG_imported_declaration, scope: !5, entity: !900, file: !706, line: 200)
!900 = !DISubprogram(name: "wmemcmp", scope: !712, file: !712, line: 258, type: !857, flags: DIFlagPrototyped, spFlags: 0)
!901 = !DIImportedEntity(tag: DW_TAG_imported_declaration, scope: !5, entity: !902, file: !706, line: 201)
!902 = !DISubprogram(name: "wmemcpy", scope: !712, file: !712, line: 262, type: !853, flags: DIFlagPrototyped, spFlags: 0)
!903 = !DIImportedEntity(tag: DW_TAG_imported_declaration, scope: !5, entity: !904, file: !706, line: 202)
!904 = !DISubprogram(name: "wmemmove", scope: !712, file: !712, line: 267, type: !905, flags: DIFlagPrototyped, spFlags: 0)
!905 = !DISubroutineType(types: !906)
!906 = !{!201, !201, !248, !131}
!907 = !DIImportedEntity(tag: DW_TAG_imported_declaration, scope: !5, entity: !908, file: !706, line: 203)
!908 = !DISubprogram(name: "wmemset", scope: !712, file: !712, line: 271, type: !909, flags: DIFlagPrototyped, spFlags: 0)
!909 = !DISubroutineType(types: !910)
!910 = !{!201, !201, !202, !131}
!911 = !DIImportedEntity(tag: DW_TAG_imported_declaration, scope: !5, entity: !912, file: !706, line: 204)
!912 = !DISubprogram(name: "wprintf", scope: !712, file: !712, line: 587, type: !913, flags: DIFlagPrototyped, spFlags: 0)
!913 = !DISubroutineType(types: !914)
!914 = !{!86, !247, null}
!915 = !DIImportedEntity(tag: DW_TAG_imported_declaration, scope: !5, entity: !916, file: !706, line: 205)
!916 = !DISubprogram(name: "wscanf", linkageName: "__isoc99_wscanf", scope: !712, file: !712, line: 644, type: !913, flags: DIFlagPrototyped, spFlags: 0)
!917 = !DIImportedEntity(tag: DW_TAG_imported_declaration, scope: !5, entity: !918, file: !706, line: 206)
!918 = !DISubprogram(name: "wcschr", scope: !712, file: !712, line: 164, type: !919, flags: DIFlagPrototyped, spFlags: 0)
!919 = !DISubroutineType(types: !920)
!920 = !{!201, !248, !202}
!921 = !DIImportedEntity(tag: DW_TAG_imported_declaration, scope: !5, entity: !922, file: !706, line: 207)
!922 = !DISubprogram(name: "wcspbrk", scope: !712, file: !712, line: 201, type: !923, flags: DIFlagPrototyped, spFlags: 0)
!923 = !DISubroutineType(types: !924)
!924 = !{!201, !248, !248}
!925 = !DIImportedEntity(tag: DW_TAG_imported_declaration, scope: !5, entity: !926, file: !706, line: 208)
!926 = !DISubprogram(name: "wcsrchr", scope: !712, file: !712, line: 174, type: !919, flags: DIFlagPrototyped, spFlags: 0)
!927 = !DIImportedEntity(tag: DW_TAG_imported_declaration, scope: !5, entity: !928, file: !706, line: 209)
!928 = !DISubprogram(name: "wcsstr", scope: !712, file: !712, line: 212, type: !923, flags: DIFlagPrototyped, spFlags: 0)
!929 = !DIImportedEntity(tag: DW_TAG_imported_declaration, scope: !5, entity: !930, file: !706, line: 210)
!930 = !DISubprogram(name: "wmemchr", scope: !712, file: !712, line: 253, type: !931, flags: DIFlagPrototyped, spFlags: 0)
!931 = !DISubroutineType(types: !932)
!932 = !{!201, !248, !202, !131}
!933 = !DIImportedEntity(tag: DW_TAG_imported_declaration, scope: !28, entity: !934, file: !706, line: 251)
!934 = !DISubprogram(name: "wcstold", scope: !712, file: !712, line: 384, type: !935, flags: DIFlagPrototyped, spFlags: 0)
!935 = !DISubroutineType(types: !936)
!936 = !{!293, !247, !873}
!937 = !DIImportedEntity(tag: DW_TAG_imported_declaration, scope: !28, entity: !938, file: !706, line: 260)
!938 = !DISubprogram(name: "wcstoll", scope: !712, file: !712, line: 441, type: !939, flags: DIFlagPrototyped, spFlags: 0)
!939 = !DISubroutineType(types: !940)
!940 = !{!259, !247, !873, !86}
!941 = !DIImportedEntity(tag: DW_TAG_imported_declaration, scope: !28, entity: !942, file: !706, line: 261)
!942 = !DISubprogram(name: "wcstoull", scope: !712, file: !712, line: 448, type: !943, flags: DIFlagPrototyped, spFlags: 0)
!943 = !DISubroutineType(types: !944)
!944 = !{!283, !247, !873, !86}
!945 = !DIImportedEntity(tag: DW_TAG_imported_declaration, scope: !5, entity: !934, file: !706, line: 267)
!946 = !DIImportedEntity(tag: DW_TAG_imported_declaration, scope: !5, entity: !938, file: !706, line: 268)
!947 = !DIImportedEntity(tag: DW_TAG_imported_declaration, scope: !5, entity: !942, file: !706, line: 269)
!948 = !DIImportedEntity(tag: DW_TAG_imported_declaration, scope: !5, entity: !876, file: !706, line: 283)
!949 = !DIImportedEntity(tag: DW_TAG_imported_declaration, scope: !5, entity: !804, file: !706, line: 286)
!950 = !DIImportedEntity(tag: DW_TAG_imported_declaration, scope: !5, entity: !810, file: !706, line: 289)
!951 = !DIImportedEntity(tag: DW_TAG_imported_declaration, scope: !5, entity: !818, file: !706, line: 292)
!952 = !DIImportedEntity(tag: DW_TAG_imported_declaration, scope: !5, entity: !934, file: !706, line: 296)
!953 = !DIImportedEntity(tag: DW_TAG_imported_declaration, scope: !5, entity: !938, file: !706, line: 297)
!954 = !DIImportedEntity(tag: DW_TAG_imported_declaration, scope: !5, entity: !942, file: !706, line: 298)
!955 = !DIImportedEntity(tag: DW_TAG_imported_declaration, scope: !5, entity: !956, file: !961, line: 47)
!956 = !DIDerivedType(tag: DW_TAG_typedef, name: "int8_t", file: !957, line: 24, baseType: !958)
!957 = !DIFile(filename: "/usr/include/x86_64-linux-gnu/bits/stdint-intn.h", directory: "")
!958 = !DIDerivedType(tag: DW_TAG_typedef, name: "__int8_t", file: !959, line: 37, baseType: !960)
!959 = !DIFile(filename: "/usr/include/x86_64-linux-gnu/bits/types.h", directory: "")
!960 = !DIBasicType(name: "signed char", size: 8, encoding: DW_ATE_signed_char)
!961 = !DIFile(filename: "/usr/bin/../lib/gcc/x86_64-linux-gnu/10/../../../../include/c++/10/cstdint", directory: "")
!962 = !DIImportedEntity(tag: DW_TAG_imported_declaration, scope: !5, entity: !963, file: !961, line: 48)
!963 = !DIDerivedType(tag: DW_TAG_typedef, name: "int16_t", file: !957, line: 25, baseType: !964)
!964 = !DIDerivedType(tag: DW_TAG_typedef, name: "__int16_t", file: !959, line: 39, baseType: !965)
!965 = !DIBasicType(name: "short", size: 16, encoding: DW_ATE_signed)
!966 = !DIImportedEntity(tag: DW_TAG_imported_declaration, scope: !5, entity: !967, file: !961, line: 49)
!967 = !DIDerivedType(tag: DW_TAG_typedef, name: "int32_t", file: !957, line: 26, baseType: !968)
!968 = !DIDerivedType(tag: DW_TAG_typedef, name: "__int32_t", file: !959, line: 41, baseType: !86)
!969 = !DIImportedEntity(tag: DW_TAG_imported_declaration, scope: !5, entity: !970, file: !961, line: 50)
!970 = !DIDerivedType(tag: DW_TAG_typedef, name: "int64_t", file: !957, line: 27, baseType: !971)
!971 = !DIDerivedType(tag: DW_TAG_typedef, name: "__int64_t", file: !959, line: 44, baseType: !120)
!972 = !DIImportedEntity(tag: DW_TAG_imported_declaration, scope: !5, entity: !973, file: !961, line: 52)
!973 = !DIDerivedType(tag: DW_TAG_typedef, name: "int_fast8_t", file: !974, line: 58, baseType: !960)
!974 = !DIFile(filename: "/usr/include/stdint.h", directory: "")
!975 = !DIImportedEntity(tag: DW_TAG_imported_declaration, scope: !5, entity: !976, file: !961, line: 53)
!976 = !DIDerivedType(tag: DW_TAG_typedef, name: "int_fast16_t", file: !974, line: 60, baseType: !120)
!977 = !DIImportedEntity(tag: DW_TAG_imported_declaration, scope: !5, entity: !978, file: !961, line: 54)
!978 = !DIDerivedType(tag: DW_TAG_typedef, name: "int_fast32_t", file: !974, line: 61, baseType: !120)
!979 = !DIImportedEntity(tag: DW_TAG_imported_declaration, scope: !5, entity: !980, file: !961, line: 55)
!980 = !DIDerivedType(tag: DW_TAG_typedef, name: "int_fast64_t", file: !974, line: 62, baseType: !120)
!981 = !DIImportedEntity(tag: DW_TAG_imported_declaration, scope: !5, entity: !982, file: !961, line: 57)
!982 = !DIDerivedType(tag: DW_TAG_typedef, name: "int_least8_t", file: !974, line: 43, baseType: !983)
!983 = !DIDerivedType(tag: DW_TAG_typedef, name: "__int_least8_t", file: !959, line: 52, baseType: !958)
!984 = !DIImportedEntity(tag: DW_TAG_imported_declaration, scope: !5, entity: !985, file: !961, line: 58)
!985 = !DIDerivedType(tag: DW_TAG_typedef, name: "int_least16_t", file: !974, line: 44, baseType: !986)
!986 = !DIDerivedType(tag: DW_TAG_typedef, name: "__int_least16_t", file: !959, line: 54, baseType: !964)
!987 = !DIImportedEntity(tag: DW_TAG_imported_declaration, scope: !5, entity: !988, file: !961, line: 59)
!988 = !DIDerivedType(tag: DW_TAG_typedef, name: "int_least32_t", file: !974, line: 45, baseType: !989)
!989 = !DIDerivedType(tag: DW_TAG_typedef, name: "__int_least32_t", file: !959, line: 56, baseType: !968)
!990 = !DIImportedEntity(tag: DW_TAG_imported_declaration, scope: !5, entity: !991, file: !961, line: 60)
!991 = !DIDerivedType(tag: DW_TAG_typedef, name: "int_least64_t", file: !974, line: 46, baseType: !992)
!992 = !DIDerivedType(tag: DW_TAG_typedef, name: "__int_least64_t", file: !959, line: 58, baseType: !971)
!993 = !DIImportedEntity(tag: DW_TAG_imported_declaration, scope: !5, entity: !994, file: !961, line: 62)
!994 = !DIDerivedType(tag: DW_TAG_typedef, name: "intmax_t", file: !974, line: 101, baseType: !995)
!995 = !DIDerivedType(tag: DW_TAG_typedef, name: "__intmax_t", file: !959, line: 72, baseType: !120)
!996 = !DIImportedEntity(tag: DW_TAG_imported_declaration, scope: !5, entity: !997, file: !961, line: 63)
!997 = !DIDerivedType(tag: DW_TAG_typedef, name: "intptr_t", file: !974, line: 87, baseType: !120)
!998 = !DIImportedEntity(tag: DW_TAG_imported_declaration, scope: !5, entity: !999, file: !961, line: 65)
!999 = !DIDerivedType(tag: DW_TAG_typedef, name: "uint8_t", file: !1000, line: 24, baseType: !1001)
!1000 = !DIFile(filename: "/usr/include/x86_64-linux-gnu/bits/stdint-uintn.h", directory: "")
!1001 = !DIDerivedType(tag: DW_TAG_typedef, name: "__uint8_t", file: !959, line: 38, baseType: !1002)
!1002 = !DIBasicType(name: "unsigned char", size: 8, encoding: DW_ATE_unsigned_char)
!1003 = !DIImportedEntity(tag: DW_TAG_imported_declaration, scope: !5, entity: !1004, file: !961, line: 66)
!1004 = !DIDerivedType(tag: DW_TAG_typedef, name: "uint16_t", file: !1000, line: 25, baseType: !1005)
!1005 = !DIDerivedType(tag: DW_TAG_typedef, name: "__uint16_t", file: !959, line: 40, baseType: !1006)
!1006 = !DIBasicType(name: "unsigned short", size: 16, encoding: DW_ATE_unsigned)
!1007 = !DIImportedEntity(tag: DW_TAG_imported_declaration, scope: !5, entity: !1008, file: !961, line: 67)
!1008 = !DIDerivedType(tag: DW_TAG_typedef, name: "uint32_t", file: !1000, line: 26, baseType: !1009)
!1009 = !DIDerivedType(tag: DW_TAG_typedef, name: "__uint32_t", file: !959, line: 42, baseType: !10)
!1010 = !DIImportedEntity(tag: DW_TAG_imported_declaration, scope: !5, entity: !1011, file: !961, line: 68)
!1011 = !DIDerivedType(tag: DW_TAG_typedef, name: "uint64_t", file: !1000, line: 27, baseType: !1012)
!1012 = !DIDerivedType(tag: DW_TAG_typedef, name: "__uint64_t", file: !959, line: 45, baseType: !45)
!1013 = !DIImportedEntity(tag: DW_TAG_imported_declaration, scope: !5, entity: !1014, file: !961, line: 70)
!1014 = !DIDerivedType(tag: DW_TAG_typedef, name: "uint_fast8_t", file: !974, line: 71, baseType: !1002)
!1015 = !DIImportedEntity(tag: DW_TAG_imported_declaration, scope: !5, entity: !1016, file: !961, line: 71)
!1016 = !DIDerivedType(tag: DW_TAG_typedef, name: "uint_fast16_t", file: !974, line: 73, baseType: !45)
!1017 = !DIImportedEntity(tag: DW_TAG_imported_declaration, scope: !5, entity: !1018, file: !961, line: 72)
!1018 = !DIDerivedType(tag: DW_TAG_typedef, name: "uint_fast32_t", file: !974, line: 74, baseType: !45)
!1019 = !DIImportedEntity(tag: DW_TAG_imported_declaration, scope: !5, entity: !1020, file: !961, line: 73)
!1020 = !DIDerivedType(tag: DW_TAG_typedef, name: "uint_fast64_t", file: !974, line: 75, baseType: !45)
!1021 = !DIImportedEntity(tag: DW_TAG_imported_declaration, scope: !5, entity: !1022, file: !961, line: 75)
!1022 = !DIDerivedType(tag: DW_TAG_typedef, name: "uint_least8_t", file: !974, line: 49, baseType: !1023)
!1023 = !DIDerivedType(tag: DW_TAG_typedef, name: "__uint_least8_t", file: !959, line: 53, baseType: !1001)
!1024 = !DIImportedEntity(tag: DW_TAG_imported_declaration, scope: !5, entity: !1025, file: !961, line: 76)
!1025 = !DIDerivedType(tag: DW_TAG_typedef, name: "uint_least16_t", file: !974, line: 50, baseType: !1026)
!1026 = !DIDerivedType(tag: DW_TAG_typedef, name: "__uint_least16_t", file: !959, line: 55, baseType: !1005)
!1027 = !DIImportedEntity(tag: DW_TAG_imported_declaration, scope: !5, entity: !1028, file: !961, line: 77)
!1028 = !DIDerivedType(tag: DW_TAG_typedef, name: "uint_least32_t", file: !974, line: 51, baseType: !1029)
!1029 = !DIDerivedType(tag: DW_TAG_typedef, name: "__uint_least32_t", file: !959, line: 57, baseType: !1009)
!1030 = !DIImportedEntity(tag: DW_TAG_imported_declaration, scope: !5, entity: !1031, file: !961, line: 78)
!1031 = !DIDerivedType(tag: DW_TAG_typedef, name: "uint_least64_t", file: !974, line: 52, baseType: !1032)
!1032 = !DIDerivedType(tag: DW_TAG_typedef, name: "__uint_least64_t", file: !959, line: 59, baseType: !1012)
!1033 = !DIImportedEntity(tag: DW_TAG_imported_declaration, scope: !5, entity: !1034, file: !961, line: 80)
!1034 = !DIDerivedType(tag: DW_TAG_typedef, name: "uintmax_t", file: !974, line: 102, baseType: !1035)
!1035 = !DIDerivedType(tag: DW_TAG_typedef, name: "__uintmax_t", file: !959, line: 73, baseType: !45)
!1036 = !DIImportedEntity(tag: DW_TAG_imported_declaration, scope: !5, entity: !1037, file: !961, line: 81)
!1037 = !DIDerivedType(tag: DW_TAG_typedef, name: "uintptr_t", file: !974, line: 90, baseType: !45)
!1038 = !DIImportedEntity(tag: DW_TAG_imported_declaration, scope: !5, entity: !1039, file: !1041, line: 53)
!1039 = !DICompositeType(tag: DW_TAG_structure_type, name: "lconv", file: !1040, line: 51, flags: DIFlagFwdDecl, identifier: "_ZTS5lconv")
!1040 = !DIFile(filename: "/usr/include/locale.h", directory: "")
!1041 = !DIFile(filename: "/usr/bin/../lib/gcc/x86_64-linux-gnu/10/../../../../include/c++/10/clocale", directory: "")
!1042 = !DIImportedEntity(tag: DW_TAG_imported_declaration, scope: !5, entity: !1043, file: !1041, line: 54)
!1043 = !DISubprogram(name: "setlocale", scope: !1040, file: !1040, line: 122, type: !1044, flags: DIFlagPrototyped, spFlags: 0)
!1044 = !DISubroutineType(types: !1045)
!1045 = !{!8, !86, !144}
!1046 = !DIImportedEntity(tag: DW_TAG_imported_declaration, scope: !5, entity: !1047, file: !1041, line: 55)
!1047 = !DISubprogram(name: "localeconv", scope: !1040, file: !1040, line: 125, type: !1048, flags: DIFlagPrototyped, spFlags: 0)
!1048 = !DISubroutineType(types: !1049)
!1049 = !{!1050}
!1050 = !DIDerivedType(tag: DW_TAG_pointer_type, baseType: !1039, size: 64)
!1051 = !DIImportedEntity(tag: DW_TAG_imported_declaration, scope: !5, entity: !1052, file: !1054, line: 64)
!1052 = !DISubprogram(name: "isalnum", scope: !1053, file: !1053, line: 108, type: !108, flags: DIFlagPrototyped, spFlags: 0)
!1053 = !DIFile(filename: "/usr/include/ctype.h", directory: "")
!1054 = !DIFile(filename: "/usr/bin/../lib/gcc/x86_64-linux-gnu/10/../../../../include/c++/10/cctype", directory: "")
!1055 = !DIImportedEntity(tag: DW_TAG_imported_declaration, scope: !5, entity: !1056, file: !1054, line: 65)
!1056 = !DISubprogram(name: "isalpha", scope: !1053, file: !1053, line: 109, type: !108, flags: DIFlagPrototyped, spFlags: 0)
!1057 = !DIImportedEntity(tag: DW_TAG_imported_declaration, scope: !5, entity: !1058, file: !1054, line: 66)
!1058 = !DISubprogram(name: "iscntrl", scope: !1053, file: !1053, line: 110, type: !108, flags: DIFlagPrototyped, spFlags: 0)
!1059 = !DIImportedEntity(tag: DW_TAG_imported_declaration, scope: !5, entity: !1060, file: !1054, line: 67)
!1060 = !DISubprogram(name: "isdigit", scope: !1053, file: !1053, line: 111, type: !108, flags: DIFlagPrototyped, spFlags: 0)
!1061 = !DIImportedEntity(tag: DW_TAG_imported_declaration, scope: !5, entity: !1062, file: !1054, line: 68)
!1062 = !DISubprogram(name: "isgraph", scope: !1053, file: !1053, line: 113, type: !108, flags: DIFlagPrototyped, spFlags: 0)
!1063 = !DIImportedEntity(tag: DW_TAG_imported_declaration, scope: !5, entity: !1064, file: !1054, line: 69)
!1064 = !DISubprogram(name: "islower", scope: !1053, file: !1053, line: 112, type: !108, flags: DIFlagPrototyped, spFlags: 0)
!1065 = !DIImportedEntity(tag: DW_TAG_imported_declaration, scope: !5, entity: !1066, file: !1054, line: 70)
!1066 = !DISubprogram(name: "isprint", scope: !1053, file: !1053, line: 114, type: !108, flags: DIFlagPrototyped, spFlags: 0)
!1067 = !DIImportedEntity(tag: DW_TAG_imported_declaration, scope: !5, entity: !1068, file: !1054, line: 71)
!1068 = !DISubprogram(name: "ispunct", scope: !1053, file: !1053, line: 115, type: !108, flags: DIFlagPrototyped, spFlags: 0)
!1069 = !DIImportedEntity(tag: DW_TAG_imported_declaration, scope: !5, entity: !1070, file: !1054, line: 72)
!1070 = !DISubprogram(name: "isspace", scope: !1053, file: !1053, line: 116, type: !108, flags: DIFlagPrototyped, spFlags: 0)
!1071 = !DIImportedEntity(tag: DW_TAG_imported_declaration, scope: !5, entity: !1072, file: !1054, line: 73)
!1072 = !DISubprogram(name: "isupper", scope: !1053, file: !1053, line: 117, type: !108, flags: DIFlagPrototyped, spFlags: 0)
!1073 = !DIImportedEntity(tag: DW_TAG_imported_declaration, scope: !5, entity: !1074, file: !1054, line: 74)
!1074 = !DISubprogram(name: "isxdigit", scope: !1053, file: !1053, line: 118, type: !108, flags: DIFlagPrototyped, spFlags: 0)
!1075 = !DIImportedEntity(tag: DW_TAG_imported_declaration, scope: !5, entity: !1076, file: !1054, line: 75)
!1076 = !DISubprogram(name: "tolower", scope: !1053, file: !1053, line: 122, type: !108, flags: DIFlagPrototyped, spFlags: 0)
!1077 = !DIImportedEntity(tag: DW_TAG_imported_declaration, scope: !5, entity: !1078, file: !1054, line: 76)
!1078 = !DISubprogram(name: "toupper", scope: !1053, file: !1053, line: 125, type: !108, flags: DIFlagPrototyped, spFlags: 0)
!1079 = !DIImportedEntity(tag: DW_TAG_imported_declaration, scope: !5, entity: !1080, file: !1054, line: 87)
!1080 = !DISubprogram(name: "isblank", scope: !1053, file: !1053, line: 130, type: !108, flags: DIFlagPrototyped, spFlags: 0)
!1081 = !DIImportedEntity(tag: DW_TAG_imported_declaration, scope: !5, entity: !1082, file: !1084, line: 98)
!1082 = !DIDerivedType(tag: DW_TAG_typedef, name: "FILE", file: !1083, line: 7, baseType: !722)
!1083 = !DIFile(filename: "/usr/include/x86_64-linux-gnu/bits/types/FILE.h", directory: "")
!1084 = !DIFile(filename: "/usr/bin/../lib/gcc/x86_64-linux-gnu/10/../../../../include/c++/10/cstdio", directory: "")
!1085 = !DIImportedEntity(tag: DW_TAG_imported_declaration, scope: !5, entity: !1086, file: !1084, line: 99)
!1086 = !DIDerivedType(tag: DW_TAG_typedef, name: "fpos_t", file: !1087, line: 84, baseType: !1088)
!1087 = !DIFile(filename: "/usr/include/stdio.h", directory: "")
!1088 = !DIDerivedType(tag: DW_TAG_typedef, name: "__fpos_t", file: !1089, line: 14, baseType: !1090)
!1089 = !DIFile(filename: "/usr/include/x86_64-linux-gnu/bits/types/__fpos_t.h", directory: "")
!1090 = !DICompositeType(tag: DW_TAG_structure_type, name: "_G_fpos_t", file: !1089, line: 10, flags: DIFlagFwdDecl, identifier: "_ZTS9_G_fpos_t")
!1091 = !DIImportedEntity(tag: DW_TAG_imported_declaration, scope: !5, entity: !1092, file: !1084, line: 101)
!1092 = !DISubprogram(name: "clearerr", scope: !1087, file: !1087, line: 757, type: !1093, flags: DIFlagPrototyped, spFlags: 0)
!1093 = !DISubroutineType(types: !1094)
!1094 = !{null, !1095}
!1095 = !DIDerivedType(tag: DW_TAG_pointer_type, baseType: !1082, size: 64)
!1096 = !DIImportedEntity(tag: DW_TAG_imported_declaration, scope: !5, entity: !1097, file: !1084, line: 102)
!1097 = !DISubprogram(name: "fclose", scope: !1087, file: !1087, line: 213, type: !1098, flags: DIFlagPrototyped, spFlags: 0)
!1098 = !DISubroutineType(types: !1099)
!1099 = !{!86, !1095}
!1100 = !DIImportedEntity(tag: DW_TAG_imported_declaration, scope: !5, entity: !1101, file: !1084, line: 103)
!1101 = !DISubprogram(name: "feof", scope: !1087, file: !1087, line: 759, type: !1098, flags: DIFlagPrototyped, spFlags: 0)
!1102 = !DIImportedEntity(tag: DW_TAG_imported_declaration, scope: !5, entity: !1103, file: !1084, line: 104)
!1103 = !DISubprogram(name: "ferror", scope: !1087, file: !1087, line: 761, type: !1098, flags: DIFlagPrototyped, spFlags: 0)
!1104 = !DIImportedEntity(tag: DW_TAG_imported_declaration, scope: !5, entity: !1105, file: !1084, line: 105)
!1105 = !DISubprogram(name: "fflush", scope: !1087, file: !1087, line: 218, type: !1098, flags: DIFlagPrototyped, spFlags: 0)
!1106 = !DIImportedEntity(tag: DW_TAG_imported_declaration, scope: !5, entity: !1107, file: !1084, line: 106)
!1107 = !DISubprogram(name: "fgetc", scope: !1087, file: !1087, line: 485, type: !1098, flags: DIFlagPrototyped, spFlags: 0)
!1108 = !DIImportedEntity(tag: DW_TAG_imported_declaration, scope: !5, entity: !1109, file: !1084, line: 107)
!1109 = !DISubprogram(name: "fgetpos", scope: !1087, file: !1087, line: 731, type: !1110, flags: DIFlagPrototyped, spFlags: 0)
!1110 = !DISubroutineType(types: !1111)
!1111 = !{!86, !1112, !1113}
!1112 = !DIDerivedType(tag: DW_TAG_restrict_type, baseType: !1095)
!1113 = !DIDerivedType(tag: DW_TAG_restrict_type, baseType: !1114)
!1114 = !DIDerivedType(tag: DW_TAG_pointer_type, baseType: !1086, size: 64)
!1115 = !DIImportedEntity(tag: DW_TAG_imported_declaration, scope: !5, entity: !1116, file: !1084, line: 108)
!1116 = !DISubprogram(name: "fgets", scope: !1087, file: !1087, line: 564, type: !1117, flags: DIFlagPrototyped, spFlags: 0)
!1117 = !DISubroutineType(types: !1118)
!1118 = !{!8, !246, !86, !1112}
!1119 = !DIImportedEntity(tag: DW_TAG_imported_declaration, scope: !5, entity: !1120, file: !1084, line: 109)
!1120 = !DISubprogram(name: "fopen", scope: !1087, file: !1087, line: 246, type: !1121, flags: DIFlagPrototyped, spFlags: 0)
!1121 = !DISubroutineType(types: !1122)
!1122 = !{!1095, !203, !203}
!1123 = !DIImportedEntity(tag: DW_TAG_imported_declaration, scope: !5, entity: !1124, file: !1084, line: 110)
!1124 = !DISubprogram(name: "fprintf", scope: !1087, file: !1087, line: 326, type: !1125, flags: DIFlagPrototyped, spFlags: 0)
!1125 = !DISubroutineType(types: !1126)
!1126 = !{!86, !1112, !203, null}
!1127 = !DIImportedEntity(tag: DW_TAG_imported_declaration, scope: !5, entity: !1128, file: !1084, line: 111)
!1128 = !DISubprogram(name: "fputc", scope: !1087, file: !1087, line: 521, type: !1129, flags: DIFlagPrototyped, spFlags: 0)
!1129 = !DISubroutineType(types: !1130)
!1130 = !{!86, !86, !1095}
!1131 = !DIImportedEntity(tag: DW_TAG_imported_declaration, scope: !5, entity: !1132, file: !1084, line: 112)
!1132 = !DISubprogram(name: "fputs", scope: !1087, file: !1087, line: 626, type: !1133, flags: DIFlagPrototyped, spFlags: 0)
!1133 = !DISubroutineType(types: !1134)
!1134 = !{!86, !203, !1112}
!1135 = !DIImportedEntity(tag: DW_TAG_imported_declaration, scope: !5, entity: !1136, file: !1084, line: 113)
!1136 = !DISubprogram(name: "fread", scope: !1087, file: !1087, line: 646, type: !1137, flags: DIFlagPrototyped, spFlags: 0)
!1137 = !DISubroutineType(types: !1138)
!1138 = !{!131, !1139, !131, !131, !1112}
!1139 = !DIDerivedType(tag: DW_TAG_restrict_type, baseType: !130)
!1140 = !DIImportedEntity(tag: DW_TAG_imported_declaration, scope: !5, entity: !1141, file: !1084, line: 114)
!1141 = !DISubprogram(name: "freopen", scope: !1087, file: !1087, line: 252, type: !1142, flags: DIFlagPrototyped, spFlags: 0)
!1142 = !DISubroutineType(types: !1143)
!1143 = !{!1095, !203, !203, !1112}
!1144 = !DIImportedEntity(tag: DW_TAG_imported_declaration, scope: !5, entity: !1145, file: !1084, line: 115)
!1145 = !DISubprogram(name: "fscanf", linkageName: "__isoc99_fscanf", scope: !1087, file: !1087, line: 407, type: !1125, flags: DIFlagPrototyped, spFlags: 0)
!1146 = !DIImportedEntity(tag: DW_TAG_imported_declaration, scope: !5, entity: !1147, file: !1084, line: 116)
!1147 = !DISubprogram(name: "fseek", scope: !1087, file: !1087, line: 684, type: !1148, flags: DIFlagPrototyped, spFlags: 0)
!1148 = !DISubroutineType(types: !1149)
!1149 = !{!86, !1095, !120, !86}
!1150 = !DIImportedEntity(tag: DW_TAG_imported_declaration, scope: !5, entity: !1151, file: !1084, line: 117)
!1151 = !DISubprogram(name: "fsetpos", scope: !1087, file: !1087, line: 736, type: !1152, flags: DIFlagPrototyped, spFlags: 0)
!1152 = !DISubroutineType(types: !1153)
!1153 = !{!86, !1095, !1154}
!1154 = !DIDerivedType(tag: DW_TAG_pointer_type, baseType: !1155, size: 64)
!1155 = !DIDerivedType(tag: DW_TAG_const_type, baseType: !1086)
!1156 = !DIImportedEntity(tag: DW_TAG_imported_declaration, scope: !5, entity: !1157, file: !1084, line: 118)
!1157 = !DISubprogram(name: "ftell", scope: !1087, file: !1087, line: 689, type: !1158, flags: DIFlagPrototyped, spFlags: 0)
!1158 = !DISubroutineType(types: !1159)
!1159 = !{!120, !1095}
!1160 = !DIImportedEntity(tag: DW_TAG_imported_declaration, scope: !5, entity: !1161, file: !1084, line: 119)
!1161 = !DISubprogram(name: "fwrite", scope: !1087, file: !1087, line: 652, type: !1162, flags: DIFlagPrototyped, spFlags: 0)
!1162 = !DISubroutineType(types: !1163)
!1163 = !{!131, !1164, !131, !131, !1112}
!1164 = !DIDerivedType(tag: DW_TAG_restrict_type, baseType: !50)
!1165 = !DIImportedEntity(tag: DW_TAG_imported_declaration, scope: !5, entity: !1166, file: !1084, line: 120)
!1166 = !DISubprogram(name: "getc", scope: !1087, file: !1087, line: 486, type: !1098, flags: DIFlagPrototyped, spFlags: 0)
!1167 = !DIImportedEntity(tag: DW_TAG_imported_declaration, scope: !5, entity: !1168, file: !1084, line: 121)
!1168 = !DISubprogram(name: "getchar", scope: !1087, file: !1087, line: 492, type: !216, flags: DIFlagPrototyped, spFlags: 0)
!1169 = !DIImportedEntity(tag: DW_TAG_imported_declaration, scope: !5, entity: !1170, file: !1084, line: 126)
!1170 = !DISubprogram(name: "perror", scope: !1087, file: !1087, line: 775, type: !1171, flags: DIFlagPrototyped, spFlags: 0)
!1171 = !DISubroutineType(types: !1172)
!1172 = !{null, !144}
!1173 = !DIImportedEntity(tag: DW_TAG_imported_declaration, scope: !5, entity: !1174, file: !1084, line: 127)
!1174 = !DISubprogram(name: "printf", scope: !1087, file: !1087, line: 332, type: !1175, flags: DIFlagPrototyped, spFlags: 0)
!1175 = !DISubroutineType(types: !1176)
!1176 = !{!86, !203, null}
!1177 = !DIImportedEntity(tag: DW_TAG_imported_declaration, scope: !5, entity: !1178, file: !1084, line: 128)
!1178 = !DISubprogram(name: "putc", scope: !1087, file: !1087, line: 522, type: !1129, flags: DIFlagPrototyped, spFlags: 0)
!1179 = !DIImportedEntity(tag: DW_TAG_imported_declaration, scope: !5, entity: !1180, file: !1084, line: 129)
!1180 = !DISubprogram(name: "putchar", scope: !1087, file: !1087, line: 528, type: !108, flags: DIFlagPrototyped, spFlags: 0)
!1181 = !DIImportedEntity(tag: DW_TAG_imported_declaration, scope: !5, entity: !1182, file: !1084, line: 130)
!1182 = !DISubprogram(name: "puts", scope: !1087, file: !1087, line: 632, type: !148, flags: DIFlagPrototyped, spFlags: 0)
!1183 = !DIImportedEntity(tag: DW_TAG_imported_declaration, scope: !5, entity: !1184, file: !1084, line: 131)
!1184 = !DISubprogram(name: "remove", scope: !1087, file: !1087, line: 146, type: !148, flags: DIFlagPrototyped, spFlags: 0)
!1185 = !DIImportedEntity(tag: DW_TAG_imported_declaration, scope: !5, entity: !1186, file: !1084, line: 132)
!1186 = !DISubprogram(name: "rename", scope: !1087, file: !1087, line: 148, type: !1187, flags: DIFlagPrototyped, spFlags: 0)
!1187 = !DISubroutineType(types: !1188)
!1188 = !{!86, !144, !144}
!1189 = !DIImportedEntity(tag: DW_TAG_imported_declaration, scope: !5, entity: !1190, file: !1084, line: 133)
!1190 = !DISubprogram(name: "rewind", scope: !1087, file: !1087, line: 694, type: !1093, flags: DIFlagPrototyped, spFlags: 0)
!1191 = !DIImportedEntity(tag: DW_TAG_imported_declaration, scope: !5, entity: !1192, file: !1084, line: 134)
!1192 = !DISubprogram(name: "scanf", linkageName: "__isoc99_scanf", scope: !1087, file: !1087, line: 410, type: !1175, flags: DIFlagPrototyped, spFlags: 0)
!1193 = !DIImportedEntity(tag: DW_TAG_imported_declaration, scope: !5, entity: !1194, file: !1084, line: 135)
!1194 = !DISubprogram(name: "setbuf", scope: !1087, file: !1087, line: 304, type: !1195, flags: DIFlagPrototyped, spFlags: 0)
!1195 = !DISubroutineType(types: !1196)
!1196 = !{null, !1112, !246}
!1197 = !DIImportedEntity(tag: DW_TAG_imported_declaration, scope: !5, entity: !1198, file: !1084, line: 136)
!1198 = !DISubprogram(name: "setvbuf", scope: !1087, file: !1087, line: 308, type: !1199, flags: DIFlagPrototyped, spFlags: 0)
!1199 = !DISubroutineType(types: !1200)
!1200 = !{!86, !1112, !246, !86, !131}
!1201 = !DIImportedEntity(tag: DW_TAG_imported_declaration, scope: !5, entity: !1202, file: !1084, line: 137)
!1202 = !DISubprogram(name: "sprintf", scope: !1087, file: !1087, line: 334, type: !1203, flags: DIFlagPrototyped, spFlags: 0)
!1203 = !DISubroutineType(types: !1204)
!1204 = !{!86, !246, !203, null}
!1205 = !DIImportedEntity(tag: DW_TAG_imported_declaration, scope: !5, entity: !1206, file: !1084, line: 138)
!1206 = !DISubprogram(name: "sscanf", linkageName: "__isoc99_sscanf", scope: !1087, file: !1087, line: 412, type: !1207, flags: DIFlagPrototyped, spFlags: 0)
!1207 = !DISubroutineType(types: !1208)
!1208 = !{!86, !203, !203, null}
!1209 = !DIImportedEntity(tag: DW_TAG_imported_declaration, scope: !5, entity: !1210, file: !1084, line: 139)
!1210 = !DISubprogram(name: "tmpfile", scope: !1087, file: !1087, line: 173, type: !1211, flags: DIFlagPrototyped, spFlags: 0)
!1211 = !DISubroutineType(types: !1212)
!1212 = !{!1095}
!1213 = !DIImportedEntity(tag: DW_TAG_imported_declaration, scope: !5, entity: !1214, file: !1084, line: 141)
!1214 = !DISubprogram(name: "tmpnam", scope: !1087, file: !1087, line: 187, type: !1215, flags: DIFlagPrototyped, spFlags: 0)
!1215 = !DISubroutineType(types: !1216)
!1216 = !{!8, !8}
!1217 = !DIImportedEntity(tag: DW_TAG_imported_declaration, scope: !5, entity: !1218, file: !1084, line: 143)
!1218 = !DISubprogram(name: "ungetc", scope: !1087, file: !1087, line: 639, type: !1129, flags: DIFlagPrototyped, spFlags: 0)
!1219 = !DIImportedEntity(tag: DW_TAG_imported_declaration, scope: !5, entity: !1220, file: !1084, line: 144)
!1220 = !DISubprogram(name: "vfprintf", scope: !1087, file: !1087, line: 341, type: !1221, flags: DIFlagPrototyped, spFlags: 0)
!1221 = !DISubroutineType(types: !1222)
!1222 = !{!86, !1112, !203, !796}
!1223 = !DIImportedEntity(tag: DW_TAG_imported_declaration, scope: !5, entity: !1224, file: !1084, line: 145)
!1224 = !DISubprogram(name: "vprintf", scope: !1087, file: !1087, line: 347, type: !1225, flags: DIFlagPrototyped, spFlags: 0)
!1225 = !DISubroutineType(types: !1226)
!1226 = !{!86, !203, !796}
!1227 = !DIImportedEntity(tag: DW_TAG_imported_declaration, scope: !5, entity: !1228, file: !1084, line: 146)
!1228 = !DISubprogram(name: "vsprintf", scope: !1087, file: !1087, line: 349, type: !1229, flags: DIFlagPrototyped, spFlags: 0)
!1229 = !DISubroutineType(types: !1230)
!1230 = !{!86, !246, !203, !796}
!1231 = !DIImportedEntity(tag: DW_TAG_imported_declaration, scope: !28, entity: !1232, file: !1084, line: 175)
!1232 = !DISubprogram(name: "snprintf", scope: !1087, file: !1087, line: 354, type: !1233, flags: DIFlagPrototyped, spFlags: 0)
!1233 = !DISubroutineType(types: !1234)
!1234 = !{!86, !246, !131, !203, null}
!1235 = !DIImportedEntity(tag: DW_TAG_imported_declaration, scope: !28, entity: !1236, file: !1084, line: 176)
!1236 = !DISubprogram(name: "vfscanf", linkageName: "__isoc99_vfscanf", scope: !1087, file: !1087, line: 451, type: !1221, flags: DIFlagPrototyped, spFlags: 0)
!1237 = !DIImportedEntity(tag: DW_TAG_imported_declaration, scope: !28, entity: !1238, file: !1084, line: 177)
!1238 = !DISubprogram(name: "vscanf", linkageName: "__isoc99_vscanf", scope: !1087, file: !1087, line: 456, type: !1225, flags: DIFlagPrototyped, spFlags: 0)
!1239 = !DIImportedEntity(tag: DW_TAG_imported_declaration, scope: !28, entity: !1240, file: !1084, line: 178)
!1240 = !DISubprogram(name: "vsnprintf", scope: !1087, file: !1087, line: 358, type: !1241, flags: DIFlagPrototyped, spFlags: 0)
!1241 = !DISubroutineType(types: !1242)
!1242 = !{!86, !246, !131, !203, !796}
!1243 = !DIImportedEntity(tag: DW_TAG_imported_declaration, scope: !28, entity: !1244, file: !1084, line: 179)
!1244 = !DISubprogram(name: "vsscanf", linkageName: "__isoc99_vsscanf", scope: !1087, file: !1087, line: 459, type: !1245, flags: DIFlagPrototyped, spFlags: 0)
!1245 = !DISubroutineType(types: !1246)
!1246 = !{!86, !203, !203, !796}
!1247 = !DIImportedEntity(tag: DW_TAG_imported_declaration, scope: !5, entity: !1232, file: !1084, line: 185)
!1248 = !DIImportedEntity(tag: DW_TAG_imported_declaration, scope: !5, entity: !1236, file: !1084, line: 186)
!1249 = !DIImportedEntity(tag: DW_TAG_imported_declaration, scope: !5, entity: !1238, file: !1084, line: 187)
!1250 = !DIImportedEntity(tag: DW_TAG_imported_declaration, scope: !5, entity: !1240, file: !1084, line: 188)
!1251 = !DIImportedEntity(tag: DW_TAG_imported_declaration, scope: !5, entity: !1244, file: !1084, line: 189)
!1252 = !{!1253}
!1253 = !DITemplateTypeParameter(name: "_Tp", type: !10)
!1254 = !{i32 7, !"Dwarf Version", i32 4}
!1255 = !{i32 2, !"Debug Info Version", i32 3}
!1256 = !{i32 1, !"wchar_size", i32 4}
!1257 = !{i32 7, !"PIC Level", i32 2}
!1258 = !{!"clang version 10.0.0-4ubuntu1 "}
!1259 = distinct !DISubprogram(name: "setFractionValue", linkageName: "_Z16setFractionValuePviii", scope: !1260, file: !1260, line: 15, type: !1261, scopeLine: 15, flags: DIFlagPrototyped, spFlags: DISPFlagDefinition, unit: !11, retainedNodes: !93)
!1260 = !DIFile(filename: "include/PSE.h", directory: "/home/clustfuzz/Documents/Research/PSE-Program-Examples")
!1261 = !DISubroutineType(types: !1262)
!1262 = !{null, !130, !86, !86, !86}
!1263 = !DILocalVariable(name: "addr", arg: 1, scope: !1259, file: !1260, line: 15, type: !130)
!1264 = !DILocation(line: 15, column: 29, scope: !1259)
!1265 = !DILocalVariable(name: "numerator", arg: 2, scope: !1259, file: !1260, line: 15, type: !86)
!1266 = !DILocation(line: 15, column: 39, scope: !1259)
!1267 = !DILocalVariable(name: "denominator", arg: 3, scope: !1259, file: !1260, line: 15, type: !86)
!1268 = !DILocation(line: 15, column: 54, scope: !1259)
!1269 = !DILocalVariable(name: "index", arg: 4, scope: !1259, file: !1260, line: 15, type: !86)
!1270 = !DILocation(line: 15, column: 71, scope: !1259)
!1271 = !DILocalVariable(name: "choice_num", scope: !1259, file: !1260, line: 16, type: !86)
!1272 = !DILocation(line: 16, column: 7, scope: !1259)
!1273 = !DILocalVariable(name: "choice_denom", scope: !1259, file: !1260, line: 16, type: !86)
!1274 = !DILocation(line: 16, column: 19, scope: !1259)
!1275 = !DILocalVariable(name: "index_str", scope: !1259, file: !1260, line: 17, type: !1276)
!1276 = !DIDerivedType(tag: DW_TAG_typedef, name: "string", scope: !5, file: !1277, line: 79, baseType: !16)
!1277 = !DIFile(filename: "/usr/bin/../lib/gcc/x86_64-linux-gnu/10/../../../../include/c++/10/bits/stringfwd.h", directory: "")
!1278 = !DILocation(line: 17, column: 15, scope: !1259)
!1279 = !DILocation(line: 17, column: 42, scope: !1259)
!1280 = !DILocation(line: 17, column: 27, scope: !1259)
!1281 = !DILocalVariable(name: "numerator_str", scope: !1259, file: !1260, line: 19, type: !1276)
!1282 = !DILocation(line: 19, column: 15, scope: !1259)
!1283 = !DILocation(line: 20, column: 17, scope: !1259)
!1284 = !DILocation(line: 21, column: 17, scope: !1259)
!1285 = !DILocalVariable(name: "denom_str", scope: !1259, file: !1260, line: 23, type: !1276)
!1286 = !DILocation(line: 23, column: 15, scope: !1259)
!1287 = !DILocation(line: 24, column: 13, scope: !1259)
!1288 = !DILocation(line: 25, column: 13, scope: !1259)
!1289 = !DILocalVariable(name: "setFractionPlaceholder", scope: !1259, file: !1260, line: 27, type: !1276)
!1290 = !DILocation(line: 27, column: 15, scope: !1259)
!1291 = !DILocation(line: 28, column: 26, scope: !1259)
!1292 = !DILocation(line: 30, column: 22, scope: !1259)
!1293 = !DILocation(line: 30, column: 69, scope: !1259)
!1294 = !DILocation(line: 30, column: 3, scope: !1259)
!1295 = !DILocation(line: 31, column: 22, scope: !1259)
!1296 = !DILocation(line: 31, column: 69, scope: !1259)
!1297 = !DILocation(line: 31, column: 3, scope: !1259)
!1298 = !DILocation(line: 33, column: 16, scope: !1259)
!1299 = !DILocation(line: 33, column: 14, scope: !1259)
!1300 = !DILocation(line: 34, column: 18, scope: !1259)
!1301 = !DILocation(line: 34, column: 16, scope: !1259)
!1302 = !DILocation(line: 35, column: 29, scope: !1259)
!1303 = !DILocation(line: 35, column: 42, scope: !1259)
!1304 = !DILocation(line: 35, column: 40, scope: !1259)
!1305 = !DILocation(line: 35, column: 14, scope: !1259)
!1306 = !DILocation(line: 35, column: 4, scope: !1259)
!1307 = !DILocation(line: 35, column: 19, scope: !1259)
!1308 = !DILocation(line: 37, column: 30, scope: !1259)
!1309 = !DILocation(line: 37, column: 57, scope: !1259)
!1310 = !DILocation(line: 37, column: 3, scope: !1259)
!1311 = !DILocation(line: 38, column: 30, scope: !1259)
!1312 = !DILocation(line: 38, column: 55, scope: !1259)
!1313 = !DILocation(line: 38, column: 3, scope: !1259)
!1314 = !DILocation(line: 39, column: 30, scope: !1259)
!1315 = !DILocation(line: 39, column: 59, scope: !1259)
!1316 = !DILocation(line: 39, column: 3, scope: !1259)
!1317 = !DILocation(line: 40, column: 3, scope: !1259)
!1318 = !DILocation(line: 41, column: 1, scope: !1259)
!1319 = distinct !DISubprogram(name: "to_string", linkageName: "_ZNSt7__cxx119to_stringEi", scope: !18, file: !15, line: 6597, type: !1320, scopeLine: 6598, flags: DIFlagPrototyped, spFlags: DISPFlagDefinition, unit: !11, retainedNodes: !93)
!1320 = !DISubroutineType(types: !1321)
!1321 = !{!1276, !86}
!1322 = !DILocalVariable(name: "__val", arg: 1, scope: !1319, file: !15, line: 6597, type: !86)
!1323 = !DILocation(line: 6597, column: 17, scope: !1319)
!1324 = !DILocalVariable(name: "__neg", scope: !1319, file: !15, line: 6599, type: !1325)
!1325 = !DIDerivedType(tag: DW_TAG_const_type, baseType: !78)
!1326 = !DILocation(line: 6599, column: 16, scope: !1319)
!1327 = !DILocation(line: 6599, column: 24, scope: !1319)
!1328 = !DILocation(line: 6599, column: 30, scope: !1319)
!1329 = !DILocalVariable(name: "__uval", scope: !1319, file: !15, line: 6600, type: !1330)
!1330 = !DIDerivedType(tag: DW_TAG_const_type, baseType: !10)
!1331 = !DILocation(line: 6600, column: 20, scope: !1319)
!1332 = !DILocation(line: 6600, column: 29, scope: !1319)
!1333 = !DILocation(line: 6600, column: 48, scope: !1319)
!1334 = !DILocation(line: 6600, column: 47, scope: !1319)
!1335 = !DILocation(line: 6600, column: 54, scope: !1319)
!1336 = !DILocation(line: 6600, column: 61, scope: !1319)
!1337 = !DILocalVariable(name: "__len", scope: !1319, file: !15, line: 6601, type: !1330)
!1338 = !DILocation(line: 6601, column: 16, scope: !1319)
!1339 = !DILocation(line: 6601, column: 49, scope: !1319)
!1340 = !DILocation(line: 6601, column: 24, scope: !1319)
!1341 = !DILocation(line: 6602, column: 5, scope: !1319)
!1342 = !DILocalVariable(name: "__str", scope: !1319, file: !15, line: 6602, type: !1276)
!1343 = !DILocation(line: 6602, column: 12, scope: !1319)
!1344 = !DILocation(line: 6602, column: 18, scope: !1319)
!1345 = !DILocation(line: 6602, column: 26, scope: !1319)
!1346 = !DILocation(line: 6602, column: 24, scope: !1319)
!1347 = !DILocation(line: 6603, column: 41, scope: !1319)
!1348 = !DILocation(line: 6603, column: 35, scope: !1319)
!1349 = !DILocation(line: 6603, column: 49, scope: !1319)
!1350 = !DILocation(line: 6603, column: 56, scope: !1319)
!1351 = !DILocation(line: 6603, column: 5, scope: !1319)
!1352 = !DILocation(line: 6604, column: 5, scope: !1319)
!1353 = !DILocation(line: 6605, column: 3, scope: !1319)
!1354 = distinct !DISubprogram(name: "basic_string<std::allocator<char> >", linkageName: "_ZNSt7__cxx1112basic_stringIcSt11char_traitsIcESaIcEEC2IS3_EEPKcRKS3_", scope: !16, file: !15, line: 525, type: !1355, scopeLine: 527, flags: DIFlagPrototyped, spFlags: DISPFlagDefinition, unit: !11, templateParams: !1359, declaration: !1358, retainedNodes: !93)
!1355 = !DISubroutineType(types: !1356)
!1356 = !{null, !1357, !144, !69}
!1357 = !DIDerivedType(tag: DW_TAG_pointer_type, baseType: !16, size: 64, flags: DIFlagArtificial | DIFlagObjectPointer)
!1358 = !DISubprogram(name: "basic_string<std::allocator<char> >", scope: !16, file: !15, line: 525, type: !1355, scopeLine: 525, flags: DIFlagPublic | DIFlagPrototyped, spFlags: 0, templateParams: !1359)
!1359 = !{!1360}
!1360 = !DITemplateTypeParameter(type: !40)
!1361 = !DILocalVariable(name: "this", arg: 1, scope: !1354, type: !1362, flags: DIFlagArtificial | DIFlagObjectPointer)
!1362 = !DIDerivedType(tag: DW_TAG_pointer_type, baseType: !16, size: 64)
!1363 = !DILocation(line: 0, scope: !1354)
!1364 = !DILocalVariable(name: "__s", arg: 2, scope: !1354, file: !15, line: 525, type: !144)
!1365 = !DILocation(line: 525, column: 34, scope: !1354)
!1366 = !DILocalVariable(name: "__a", arg: 3, scope: !1354, file: !15, line: 525, type: !69)
!1367 = !DILocation(line: 525, column: 53, scope: !1354)
!1368 = !DILocation(line: 526, column: 9, scope: !1354)
!1369 = !DILocation(line: 526, column: 21, scope: !1354)
!1370 = !DILocation(line: 526, column: 38, scope: !1354)
!1371 = !DILocation(line: 527, column: 22, scope: !1372)
!1372 = distinct !DILexicalBlock(scope: !1354, file: !15, line: 527, column: 7)
!1373 = !DILocation(line: 527, column: 27, scope: !1372)
!1374 = !DILocation(line: 527, column: 33, scope: !1372)
!1375 = !DILocation(line: 527, column: 59, scope: !1372)
!1376 = !DILocation(line: 527, column: 39, scope: !1372)
!1377 = !DILocation(line: 527, column: 37, scope: !1372)
!1378 = !DILocation(line: 527, column: 66, scope: !1372)
!1379 = !DILocation(line: 527, column: 69, scope: !1372)
!1380 = !DILocation(line: 527, column: 9, scope: !1372)
!1381 = !DILocation(line: 527, column: 77, scope: !1354)
!1382 = !DILocation(line: 527, column: 77, scope: !1372)
!1383 = distinct !DISubprogram(name: "main", scope: !12, file: !12, line: 7, type: !1384, scopeLine: 7, flags: DIFlagPrototyped, spFlags: DISPFlagDefinition, unit: !11, retainedNodes: !93)
!1384 = !DISubroutineType(types: !1385)
!1385 = !{!86, !86, !231}
!1386 = !DILocalVariable(name: "argc", arg: 1, scope: !1383, file: !12, line: 7, type: !86)
!1387 = !DILocation(line: 7, column: 14, scope: !1383)
!1388 = !DILocalVariable(name: "argv", arg: 2, scope: !1383, file: !12, line: 7, type: !231)
!1389 = !DILocation(line: 7, column: 26, scope: !1383)
!1390 = !DILocalVariable(name: "sum1", scope: !1383, file: !12, line: 9, type: !86)
!1391 = !DILocation(line: 9, column: 7, scope: !1383)
!1392 = !DILocalVariable(name: "sum2", scope: !1383, file: !12, line: 9, type: !86)
!1393 = !DILocation(line: 9, column: 17, scope: !1383)
!1394 = !DILocalVariable(name: "b1", scope: !1383, file: !12, line: 9, type: !86)
!1395 = !DILocation(line: 9, column: 27, scope: !1383)
!1396 = !DILocalVariable(name: "b2", scope: !1383, file: !12, line: 9, type: !86)
!1397 = !DILocation(line: 9, column: 31, scope: !1383)
!1398 = !DILocalVariable(name: "SUM", scope: !1383, file: !12, line: 9, type: !86)
!1399 = !DILocation(line: 9, column: 35, scope: !1383)
!1400 = !DILocalVariable(name: "tmp1", scope: !1383, file: !12, line: 9, type: !1401)
!1401 = !DICompositeType(tag: DW_TAG_array_type, baseType: !86, size: 96, elements: !1402)
!1402 = !{!1403}
!1403 = !DISubrange(count: 3)
!1404 = !DILocation(line: 9, column: 40, scope: !1383)
!1405 = !DILocalVariable(name: "tmp2", scope: !1383, file: !12, line: 9, type: !1401)
!1406 = !DILocation(line: 9, column: 53, scope: !1383)
!1407 = !DILocation(line: 11, column: 22, scope: !1383)
!1408 = !DILocation(line: 11, column: 3, scope: !1383)
!1409 = !DILocation(line: 12, column: 22, scope: !1383)
!1410 = !DILocation(line: 12, column: 3, scope: !1383)
!1411 = !DILocation(line: 13, column: 15, scope: !1383)
!1412 = !DILocation(line: 13, column: 18, scope: !1383)
!1413 = !DILocation(line: 13, column: 23, scope: !1383)
!1414 = !DILocation(line: 13, column: 26, scope: !1383)
!1415 = !DILocation(line: 13, column: 29, scope: !1383)
!1416 = !DILocation(line: 0, scope: !1383)
!1417 = !DILocation(line: 13, column: 3, scope: !1383)
!1418 = !DILocation(line: 14, column: 15, scope: !1383)
!1419 = !DILocation(line: 14, column: 18, scope: !1383)
!1420 = !DILocation(line: 14, column: 23, scope: !1383)
!1421 = !DILocation(line: 14, column: 26, scope: !1383)
!1422 = !DILocation(line: 14, column: 29, scope: !1383)
!1423 = !DILocation(line: 14, column: 3, scope: !1383)
!1424 = !DILocation(line: 16, column: 21, scope: !1383)
!1425 = !DILocation(line: 16, column: 51, scope: !1383)
!1426 = !DILocation(line: 16, column: 54, scope: !1383)
!1427 = !DILocation(line: 16, column: 3, scope: !1383)
!1428 = !DILocation(line: 17, column: 7, scope: !1383)
!1429 = !DILocalVariable(name: "i", scope: !1430, file: !12, line: 22, type: !43)
!1430 = distinct !DILexicalBlock(scope: !1383, file: !12, line: 22, column: 3)
!1431 = !DILocation(line: 22, column: 20, scope: !1430)
!1432 = !DILocation(line: 22, column: 8, scope: !1430)
!1433 = !DILocation(line: 22, column: 27, scope: !1434)
!1434 = distinct !DILexicalBlock(scope: !1430, file: !12, line: 22, column: 3)
!1435 = !DILocation(line: 22, column: 29, scope: !1434)
!1436 = !DILocation(line: 22, column: 3, scope: !1430)
!1437 = !DILocalVariable(name: "temp1", scope: !1438, file: !12, line: 24, type: !86)
!1438 = distinct !DILexicalBlock(scope: !1434, file: !12, line: 22, column: 43)
!1439 = !DILocation(line: 24, column: 9, scope: !1438)
!1440 = !DILocalVariable(name: "coin_curr1", scope: !1438, file: !12, line: 24, type: !86)
!1441 = !DILocation(line: 24, column: 16, scope: !1438)
!1442 = !DILocalVariable(name: "name", scope: !1438, file: !12, line: 25, type: !1276)
!1443 = !DILocation(line: 25, column: 17, scope: !1438)
!1444 = !DILocation(line: 25, column: 52, scope: !1438)
!1445 = !DILocation(line: 25, column: 37, scope: !1438)
!1446 = !DILocation(line: 25, column: 35, scope: !1438)
!1447 = !DILocation(line: 25, column: 24, scope: !1438)
!1448 = !DILocation(line: 26, column: 24, scope: !1438)
!1449 = !DILocation(line: 26, column: 52, scope: !1438)
!1450 = !DILocation(line: 26, column: 5, scope: !1438)
!1451 = !DILocation(line: 27, column: 17, scope: !1438)
!1452 = !DILocation(line: 27, column: 23, scope: !1438)
!1453 = !DILocation(line: 27, column: 28, scope: !1438)
!1454 = !DILocation(line: 27, column: 31, scope: !1438)
!1455 = !DILocation(line: 27, column: 37, scope: !1438)
!1456 = !DILocation(line: 0, scope: !1438)
!1457 = !DILocation(line: 27, column: 5, scope: !1438)
!1458 = !DILocation(line: 28, column: 17, scope: !1438)
!1459 = !DILocation(line: 28, column: 23, scope: !1438)
!1460 = !DILocation(line: 28, column: 28, scope: !1438)
!1461 = !DILocation(line: 28, column: 31, scope: !1438)
!1462 = !DILocation(line: 28, column: 37, scope: !1438)
!1463 = !DILocation(line: 28, column: 5, scope: !1438)
!1464 = !DILocation(line: 32, column: 15, scope: !1438)
!1465 = !DILocation(line: 32, column: 10, scope: !1438)
!1466 = !DILocation(line: 32, column: 5, scope: !1438)
!1467 = !DILocation(line: 32, column: 13, scope: !1438)
!1468 = !DILocation(line: 33, column: 9, scope: !1469)
!1469 = distinct !DILexicalBlock(scope: !1438, file: !12, line: 33, column: 9)
!1470 = !DILocation(line: 33, column: 18, scope: !1469)
!1471 = !DILocation(line: 33, column: 15, scope: !1469)
!1472 = !DILocation(line: 33, column: 9, scope: !1438)
!1473 = !DILocation(line: 34, column: 18, scope: !1469)
!1474 = !DILocation(line: 34, column: 7, scope: !1469)
!1475 = !DILocation(line: 68, column: 1, scope: !1438)
!1476 = !DILocation(line: 38, column: 3, scope: !1434)
!1477 = !DILocation(line: 36, column: 18, scope: !1469)
!1478 = !DILocation(line: 37, column: 13, scope: !1438)
!1479 = !DILocation(line: 37, column: 10, scope: !1438)
!1480 = !DILocation(line: 38, column: 3, scope: !1438)
!1481 = !DILocation(line: 22, column: 38, scope: !1434)
!1482 = !DILocation(line: 22, column: 3, scope: !1434)
!1483 = distinct !{!1483, !1436, !1484}
!1484 = !DILocation(line: 38, column: 3, scope: !1430)
!1485 = !DILocalVariable(name: "i", scope: !1486, file: !12, line: 41, type: !43)
!1486 = distinct !DILexicalBlock(scope: !1383, file: !12, line: 41, column: 3)
!1487 = !DILocation(line: 41, column: 20, scope: !1486)
!1488 = !DILocation(line: 41, column: 8, scope: !1486)
!1489 = !DILocation(line: 41, column: 27, scope: !1490)
!1490 = distinct !DILexicalBlock(scope: !1486, file: !12, line: 41, column: 3)
!1491 = !DILocation(line: 41, column: 29, scope: !1490)
!1492 = !DILocation(line: 41, column: 3, scope: !1486)
!1493 = !DILocalVariable(name: "temp2", scope: !1494, file: !12, line: 43, type: !86)
!1494 = distinct !DILexicalBlock(scope: !1490, file: !12, line: 41, column: 43)
!1495 = !DILocation(line: 43, column: 9, scope: !1494)
!1496 = !DILocalVariable(name: "coin_curr2", scope: !1494, file: !12, line: 43, type: !86)
!1497 = !DILocation(line: 43, column: 16, scope: !1494)
!1498 = !DILocalVariable(name: "name", scope: !1494, file: !12, line: 44, type: !1276)
!1499 = !DILocation(line: 44, column: 17, scope: !1494)
!1500 = !DILocation(line: 44, column: 52, scope: !1494)
!1501 = !DILocation(line: 44, column: 37, scope: !1494)
!1502 = !DILocation(line: 44, column: 35, scope: !1494)
!1503 = !DILocation(line: 44, column: 24, scope: !1494)
!1504 = !DILocation(line: 45, column: 24, scope: !1494)
!1505 = !DILocation(line: 45, column: 52, scope: !1494)
!1506 = !DILocation(line: 45, column: 5, scope: !1494)
!1507 = !DILocation(line: 46, column: 17, scope: !1494)
!1508 = !DILocation(line: 46, column: 23, scope: !1494)
!1509 = !DILocation(line: 46, column: 28, scope: !1494)
!1510 = !DILocation(line: 46, column: 31, scope: !1494)
!1511 = !DILocation(line: 46, column: 37, scope: !1494)
!1512 = !DILocation(line: 0, scope: !1494)
!1513 = !DILocation(line: 46, column: 5, scope: !1494)
!1514 = !DILocation(line: 47, column: 17, scope: !1494)
!1515 = !DILocation(line: 47, column: 23, scope: !1494)
!1516 = !DILocation(line: 47, column: 28, scope: !1494)
!1517 = !DILocation(line: 47, column: 31, scope: !1494)
!1518 = !DILocation(line: 47, column: 37, scope: !1494)
!1519 = !DILocation(line: 47, column: 5, scope: !1494)
!1520 = !DILocation(line: 51, column: 15, scope: !1494)
!1521 = !DILocation(line: 51, column: 10, scope: !1494)
!1522 = !DILocation(line: 51, column: 5, scope: !1494)
!1523 = !DILocation(line: 51, column: 13, scope: !1494)
!1524 = !DILocation(line: 52, column: 9, scope: !1525)
!1525 = distinct !DILexicalBlock(scope: !1494, file: !12, line: 52, column: 9)
!1526 = !DILocation(line: 52, column: 18, scope: !1525)
!1527 = !DILocation(line: 52, column: 15, scope: !1525)
!1528 = !DILocation(line: 52, column: 9, scope: !1494)
!1529 = !DILocation(line: 53, column: 18, scope: !1525)
!1530 = !DILocation(line: 53, column: 7, scope: !1525)
!1531 = !DILocation(line: 68, column: 1, scope: !1494)
!1532 = !DILocation(line: 57, column: 3, scope: !1490)
!1533 = !DILocation(line: 55, column: 18, scope: !1525)
!1534 = !DILocation(line: 56, column: 13, scope: !1494)
!1535 = !DILocation(line: 56, column: 10, scope: !1494)
!1536 = !DILocation(line: 57, column: 3, scope: !1494)
!1537 = !DILocation(line: 41, column: 38, scope: !1490)
!1538 = !DILocation(line: 41, column: 3, scope: !1490)
!1539 = distinct !{!1539, !1492, !1540}
!1540 = !DILocation(line: 57, column: 3, scope: !1486)
!1541 = !DILocation(line: 59, column: 9, scope: !1383)
!1542 = !DILocation(line: 59, column: 16, scope: !1383)
!1543 = !DILocation(line: 59, column: 14, scope: !1383)
!1544 = !DILocation(line: 59, column: 7, scope: !1383)
!1545 = !DILocation(line: 62, column: 26, scope: !1383)
!1546 = !DILocation(line: 62, column: 3, scope: !1383)
!1547 = !DILocation(line: 63, column: 3, scope: !1383)
!1548 = !DILocation(line: 64, column: 3, scope: !1383)
!1549 = !DILocation(line: 65, column: 29, scope: !1383)
!1550 = !DILocation(line: 65, column: 3, scope: !1383)
!1551 = !DILocation(line: 67, column: 3, scope: !1383)
!1552 = distinct !DISubprogram(name: "make_pse_symbolic<int>", linkageName: "_Z17make_pse_symbolicIiEvPvmPKcOT_S4_", scope: !1260, file: !1260, line: 54, type: !1553, scopeLine: 55, flags: DIFlagPrototyped, spFlags: DISPFlagDefinition, unit: !11, templateParams: !1556, retainedNodes: !93)
!1553 = !DISubroutineType(types: !1554)
!1554 = !{null, !130, !131, !144, !1555, !1555}
!1555 = !DIDerivedType(tag: DW_TAG_rvalue_reference_type, baseType: !86, size: 64)
!1556 = !{!1557}
!1557 = !DITemplateTypeParameter(name: "T", type: !86)
!1558 = !DILocalVariable(name: "addr", arg: 1, scope: !1552, file: !1260, line: 54, type: !130)
!1559 = !DILocation(line: 54, column: 30, scope: !1552)
!1560 = !DILocalVariable(name: "bytes", arg: 2, scope: !1552, file: !1260, line: 54, type: !131)
!1561 = !DILocation(line: 54, column: 43, scope: !1552)
!1562 = !DILocalVariable(name: "name", arg: 3, scope: !1552, file: !1260, line: 54, type: !144)
!1563 = !DILocation(line: 54, column: 62, scope: !1552)
!1564 = !DILocalVariable(name: "min_elem", arg: 4, scope: !1552, file: !1260, line: 54, type: !1555)
!1565 = !DILocation(line: 54, column: 72, scope: !1552)
!1566 = !DILocalVariable(name: "max_elem", arg: 5, scope: !1552, file: !1260, line: 55, type: !1555)
!1567 = !DILocation(line: 55, column: 28, scope: !1552)
!1568 = !DILocation(line: 56, column: 21, scope: !1552)
!1569 = !DILocation(line: 56, column: 31, scope: !1552)
!1570 = !DILocation(line: 56, column: 29, scope: !1552)
!1571 = !DILocation(line: 56, column: 38, scope: !1552)
!1572 = !DILocation(line: 56, column: 53, scope: !1552)
!1573 = !DILocation(line: 56, column: 63, scope: !1552)
!1574 = !DILocation(line: 56, column: 44, scope: !1552)
!1575 = !DILocation(line: 57, column: 30, scope: !1552)
!1576 = !DILocation(line: 57, column: 40, scope: !1552)
!1577 = !DILocation(line: 57, column: 21, scope: !1552)
!1578 = !DILocation(line: 56, column: 3, scope: !1552)
!1579 = !DILocation(line: 58, column: 22, scope: !1552)
!1580 = !DILocation(line: 58, column: 28, scope: !1552)
!1581 = !DILocation(line: 58, column: 35, scope: !1552)
!1582 = !DILocation(line: 58, column: 3, scope: !1552)
!1583 = !DILocation(line: 59, column: 21, scope: !1552)
!1584 = !DILocation(line: 59, column: 16, scope: !1552)
!1585 = !DILocation(line: 59, column: 15, scope: !1552)
!1586 = !DILocation(line: 59, column: 38, scope: !1552)
!1587 = !DILocation(line: 59, column: 48, scope: !1552)
!1588 = !DILocation(line: 59, column: 29, scope: !1552)
!1589 = !DILocation(line: 59, column: 26, scope: !1552)
!1590 = !DILocation(line: 59, column: 3, scope: !1552)
!1591 = !DILocation(line: 60, column: 21, scope: !1552)
!1592 = !DILocation(line: 60, column: 16, scope: !1552)
!1593 = !DILocation(line: 60, column: 15, scope: !1552)
!1594 = !DILocation(line: 60, column: 38, scope: !1552)
!1595 = !DILocation(line: 60, column: 48, scope: !1552)
!1596 = !DILocation(line: 60, column: 29, scope: !1552)
!1597 = !DILocation(line: 60, column: 26, scope: !1552)
!1598 = !DILocation(line: 60, column: 3, scope: !1552)
!1599 = !DILocation(line: 61, column: 1, scope: !1552)
!1600 = distinct !DISubprogram(name: "operator+<char, std::char_traits<char>, std::allocator<char> >", linkageName: "_ZStplIcSt11char_traitsIcESaIcEENSt7__cxx1112basic_stringIT_T0_T1_EEPKS5_OS8_", scope: !5, file: !15, line: 6131, type: !1601, scopeLine: 6133, flags: DIFlagPrototyped, spFlags: DISPFlagDefinition, unit: !11, templateParams: !1604, retainedNodes: !93)
!1601 = !DISubroutineType(types: !1602)
!1602 = !{!16, !144, !1603}
!1603 = !DIDerivedType(tag: DW_TAG_rvalue_reference_type, baseType: !16, size: 64)
!1604 = !{!1605, !1606, !65}
!1605 = !DITemplateTypeParameter(name: "_CharT", type: !9)
!1606 = !DITemplateTypeParameter(name: "_Traits", type: !1607)
!1607 = distinct !DICompositeType(tag: DW_TAG_structure_type, name: "char_traits<char>", scope: !5, file: !1608, line: 316, size: 8, flags: DIFlagTypePassByValue, elements: !1609, templateParams: !1657, identifier: "_ZTSSt11char_traitsIcE")
!1608 = !DIFile(filename: "/usr/bin/../lib/gcc/x86_64-linux-gnu/10/../../../../include/c++/10/bits/char_traits.h", directory: "")
!1609 = !{!1610, !1617, !1620, !1621, !1625, !1628, !1631, !1635, !1636, !1639, !1645, !1648, !1651, !1654}
!1610 = !DISubprogram(name: "assign", linkageName: "_ZNSt11char_traitsIcE6assignERcRKc", scope: !1607, file: !1608, line: 328, type: !1611, scopeLine: 328, flags: DIFlagPrototyped | DIFlagStaticMember, spFlags: 0)
!1611 = !DISubroutineType(types: !1612)
!1612 = !{null, !1613, !1615}
!1613 = !DIDerivedType(tag: DW_TAG_reference_type, baseType: !1614, size: 64)
!1614 = !DIDerivedType(tag: DW_TAG_typedef, name: "char_type", scope: !1607, file: !1608, line: 318, baseType: !9)
!1615 = !DIDerivedType(tag: DW_TAG_reference_type, baseType: !1616, size: 64)
!1616 = !DIDerivedType(tag: DW_TAG_const_type, baseType: !1614)
!1617 = !DISubprogram(name: "eq", linkageName: "_ZNSt11char_traitsIcE2eqERKcS2_", scope: !1607, file: !1608, line: 332, type: !1618, scopeLine: 332, flags: DIFlagPrototyped | DIFlagStaticMember, spFlags: 0)
!1618 = !DISubroutineType(types: !1619)
!1619 = !{!78, !1615, !1615}
!1620 = !DISubprogram(name: "lt", linkageName: "_ZNSt11char_traitsIcE2ltERKcS2_", scope: !1607, file: !1608, line: 336, type: !1618, scopeLine: 336, flags: DIFlagPrototyped | DIFlagStaticMember, spFlags: 0)
!1621 = !DISubprogram(name: "compare", linkageName: "_ZNSt11char_traitsIcE7compareEPKcS2_m", scope: !1607, file: !1608, line: 344, type: !1622, scopeLine: 344, flags: DIFlagPrototyped | DIFlagStaticMember, spFlags: 0)
!1622 = !DISubroutineType(types: !1623)
!1623 = !{!86, !1624, !1624, !43}
!1624 = !DIDerivedType(tag: DW_TAG_pointer_type, baseType: !1616, size: 64)
!1625 = !DISubprogram(name: "length", linkageName: "_ZNSt11char_traitsIcE6lengthEPKc", scope: !1607, file: !1608, line: 365, type: !1626, scopeLine: 365, flags: DIFlagPrototyped | DIFlagStaticMember, spFlags: 0)
!1626 = !DISubroutineType(types: !1627)
!1627 = !{!43, !1624}
!1628 = !DISubprogram(name: "find", linkageName: "_ZNSt11char_traitsIcE4findEPKcmRS1_", scope: !1607, file: !1608, line: 375, type: !1629, scopeLine: 375, flags: DIFlagPrototyped | DIFlagStaticMember, spFlags: 0)
!1629 = !DISubroutineType(types: !1630)
!1630 = !{!1624, !1624, !43, !1615}
!1631 = !DISubprogram(name: "move", linkageName: "_ZNSt11char_traitsIcE4moveEPcPKcm", scope: !1607, file: !1608, line: 389, type: !1632, scopeLine: 389, flags: DIFlagPrototyped | DIFlagStaticMember, spFlags: 0)
!1632 = !DISubroutineType(types: !1633)
!1633 = !{!1634, !1634, !1624, !43}
!1634 = !DIDerivedType(tag: DW_TAG_pointer_type, baseType: !1614, size: 64)
!1635 = !DISubprogram(name: "copy", linkageName: "_ZNSt11char_traitsIcE4copyEPcPKcm", scope: !1607, file: !1608, line: 401, type: !1632, scopeLine: 401, flags: DIFlagPrototyped | DIFlagStaticMember, spFlags: 0)
!1636 = !DISubprogram(name: "assign", linkageName: "_ZNSt11char_traitsIcE6assignEPcmc", scope: !1607, file: !1608, line: 413, type: !1637, scopeLine: 413, flags: DIFlagPrototyped | DIFlagStaticMember, spFlags: 0)
!1637 = !DISubroutineType(types: !1638)
!1638 = !{!1634, !1634, !43, !1614}
!1639 = !DISubprogram(name: "to_char_type", linkageName: "_ZNSt11char_traitsIcE12to_char_typeERKi", scope: !1607, file: !1608, line: 425, type: !1640, scopeLine: 425, flags: DIFlagPrototyped | DIFlagStaticMember, spFlags: 0)
!1640 = !DISubroutineType(types: !1641)
!1641 = !{!1614, !1642}
!1642 = !DIDerivedType(tag: DW_TAG_reference_type, baseType: !1643, size: 64)
!1643 = !DIDerivedType(tag: DW_TAG_const_type, baseType: !1644)
!1644 = !DIDerivedType(tag: DW_TAG_typedef, name: "int_type", scope: !1607, file: !1608, line: 319, baseType: !86)
!1645 = !DISubprogram(name: "to_int_type", linkageName: "_ZNSt11char_traitsIcE11to_int_typeERKc", scope: !1607, file: !1608, line: 431, type: !1646, scopeLine: 431, flags: DIFlagPrototyped | DIFlagStaticMember, spFlags: 0)
!1646 = !DISubroutineType(types: !1647)
!1647 = !{!1644, !1615}
!1648 = !DISubprogram(name: "eq_int_type", linkageName: "_ZNSt11char_traitsIcE11eq_int_typeERKiS2_", scope: !1607, file: !1608, line: 435, type: !1649, scopeLine: 435, flags: DIFlagPrototyped | DIFlagStaticMember, spFlags: 0)
!1649 = !DISubroutineType(types: !1650)
!1650 = !{!78, !1642, !1642}
!1651 = !DISubprogram(name: "eof", linkageName: "_ZNSt11char_traitsIcE3eofEv", scope: !1607, file: !1608, line: 439, type: !1652, scopeLine: 439, flags: DIFlagPrototyped | DIFlagStaticMember, spFlags: 0)
!1652 = !DISubroutineType(types: !1653)
!1653 = !{!1644}
!1654 = !DISubprogram(name: "not_eof", linkageName: "_ZNSt11char_traitsIcE7not_eofERKi", scope: !1607, file: !1608, line: 443, type: !1655, scopeLine: 443, flags: DIFlagPrototyped | DIFlagStaticMember, spFlags: 0)
!1655 = !DISubroutineType(types: !1656)
!1656 = !{!1644, !1642}
!1657 = !{!1605}
!1658 = !DILocalVariable(name: "__lhs", arg: 1, scope: !1600, file: !15, line: 6131, type: !144)
!1659 = !DILocation(line: 6131, column: 29, scope: !1600)
!1660 = !DILocalVariable(name: "__rhs", arg: 2, scope: !1600, file: !15, line: 6132, type: !1603)
!1661 = !DILocation(line: 6132, column: 48, scope: !1600)
!1662 = !DILocation(line: 6133, column: 24, scope: !1600)
!1663 = !DILocation(line: 6133, column: 40, scope: !1600)
!1664 = !DILocation(line: 6133, column: 30, scope: !1600)
!1665 = !DILocation(line: 6133, column: 14, scope: !1600)
!1666 = !DILocation(line: 6133, column: 7, scope: !1600)
!1667 = distinct !DISubprogram(name: "to_string", linkageName: "_ZNSt7__cxx119to_stringEm", scope: !18, file: !15, line: 6627, type: !1668, scopeLine: 6628, flags: DIFlagPrototyped, spFlags: DISPFlagDefinition, unit: !11, retainedNodes: !93)
!1668 = !DISubroutineType(types: !1669)
!1669 = !{!1276, !45}
!1670 = !DILocalVariable(name: "__val", arg: 1, scope: !1667, file: !15, line: 6627, type: !45)
!1671 = !DILocation(line: 6627, column: 27, scope: !1667)
!1672 = !DILocation(line: 6629, column: 5, scope: !1667)
!1673 = !DILocalVariable(name: "__str", scope: !1667, file: !15, line: 6629, type: !1276)
!1674 = !DILocation(line: 6629, column: 12, scope: !1667)
!1675 = !DILocation(line: 6629, column: 43, scope: !1667)
!1676 = !DILocation(line: 6629, column: 18, scope: !1667)
!1677 = !DILocation(line: 6630, column: 35, scope: !1667)
!1678 = !DILocation(line: 6630, column: 51, scope: !1667)
!1679 = !DILocation(line: 6630, column: 45, scope: !1667)
!1680 = !DILocation(line: 6630, column: 59, scope: !1667)
!1681 = !DILocation(line: 6630, column: 5, scope: !1667)
!1682 = !DILocation(line: 6631, column: 5, scope: !1667)
!1683 = !DILocation(line: 6632, column: 3, scope: !1667)
!1684 = distinct !DISubprogram(name: "__to_chars_len<unsigned int>", linkageName: "_ZNSt8__detail14__to_chars_lenIjEEjT_i", scope: !4, file: !3, line: 47, type: !1685, scopeLine: 48, flags: DIFlagPrototyped, spFlags: DISPFlagDefinition, unit: !11, templateParams: !1252, retainedNodes: !93)
!1685 = !DISubroutineType(types: !1686)
!1686 = !{!10, !10, !86}
!1687 = !DILocalVariable(name: "__value", arg: 1, scope: !1684, file: !3, line: 47, type: !10)
!1688 = !DILocation(line: 47, column: 24, scope: !1684)
!1689 = !DILocalVariable(name: "__base", arg: 2, scope: !1684, file: !3, line: 47, type: !86)
!1690 = !DILocation(line: 47, column: 37, scope: !1684)
!1691 = !DILocalVariable(name: "__n", scope: !1684, file: !3, line: 52, type: !10)
!1692 = !DILocation(line: 52, column: 16, scope: !1684)
!1693 = !DILocalVariable(name: "__b2", scope: !1684, file: !3, line: 53, type: !1330)
!1694 = !DILocation(line: 53, column: 22, scope: !1684)
!1695 = !DILocation(line: 53, column: 29, scope: !1684)
!1696 = !DILocation(line: 53, column: 39, scope: !1684)
!1697 = !DILocation(line: 53, column: 37, scope: !1684)
!1698 = !DILocalVariable(name: "__b3", scope: !1684, file: !3, line: 54, type: !1330)
!1699 = !DILocation(line: 54, column: 22, scope: !1684)
!1700 = !DILocation(line: 54, column: 29, scope: !1684)
!1701 = !DILocation(line: 54, column: 36, scope: !1684)
!1702 = !DILocation(line: 54, column: 34, scope: !1684)
!1703 = !DILocalVariable(name: "__b4", scope: !1684, file: !3, line: 55, type: !1704)
!1704 = !DIDerivedType(tag: DW_TAG_const_type, baseType: !45)
!1705 = !DILocation(line: 55, column: 27, scope: !1684)
!1706 = !DILocation(line: 55, column: 34, scope: !1684)
!1707 = !DILocation(line: 55, column: 41, scope: !1684)
!1708 = !DILocation(line: 55, column: 39, scope: !1684)
!1709 = !DILocation(line: 56, column: 7, scope: !1684)
!1710 = !DILocation(line: 58, column: 8, scope: !1711)
!1711 = distinct !DILexicalBlock(scope: !1712, file: !3, line: 58, column: 8)
!1712 = distinct !DILexicalBlock(scope: !1713, file: !3, line: 57, column: 2)
!1713 = distinct !DILexicalBlock(scope: !1714, file: !3, line: 56, column: 7)
!1714 = distinct !DILexicalBlock(scope: !1684, file: !3, line: 56, column: 7)
!1715 = !DILocation(line: 58, column: 28, scope: !1711)
!1716 = !DILocation(line: 58, column: 16, scope: !1711)
!1717 = !DILocation(line: 58, column: 8, scope: !1712)
!1718 = !DILocation(line: 58, column: 43, scope: !1711)
!1719 = !DILocation(line: 58, column: 36, scope: !1711)
!1720 = !DILocation(line: 59, column: 8, scope: !1721)
!1721 = distinct !DILexicalBlock(scope: !1712, file: !3, line: 59, column: 8)
!1722 = !DILocation(line: 59, column: 18, scope: !1721)
!1723 = !DILocation(line: 59, column: 16, scope: !1721)
!1724 = !DILocation(line: 59, column: 8, scope: !1712)
!1725 = !DILocation(line: 59, column: 31, scope: !1721)
!1726 = !DILocation(line: 59, column: 35, scope: !1721)
!1727 = !DILocation(line: 59, column: 24, scope: !1721)
!1728 = !DILocation(line: 60, column: 8, scope: !1729)
!1729 = distinct !DILexicalBlock(scope: !1712, file: !3, line: 60, column: 8)
!1730 = !DILocation(line: 60, column: 18, scope: !1729)
!1731 = !DILocation(line: 60, column: 16, scope: !1729)
!1732 = !DILocation(line: 60, column: 8, scope: !1712)
!1733 = !DILocation(line: 60, column: 31, scope: !1729)
!1734 = !DILocation(line: 60, column: 35, scope: !1729)
!1735 = !DILocation(line: 60, column: 24, scope: !1729)
!1736 = !DILocation(line: 61, column: 8, scope: !1737)
!1737 = distinct !DILexicalBlock(scope: !1712, file: !3, line: 61, column: 8)
!1738 = !DILocation(line: 61, column: 18, scope: !1737)
!1739 = !DILocation(line: 61, column: 16, scope: !1737)
!1740 = !DILocation(line: 61, column: 8, scope: !1712)
!1741 = !DILocation(line: 61, column: 31, scope: !1737)
!1742 = !DILocation(line: 61, column: 35, scope: !1737)
!1743 = !DILocation(line: 61, column: 24, scope: !1737)
!1744 = !DILocation(line: 62, column: 15, scope: !1712)
!1745 = !DILocation(line: 62, column: 12, scope: !1712)
!1746 = !DILocation(line: 63, column: 8, scope: !1712)
!1747 = !DILocation(line: 56, column: 7, scope: !1713)
!1748 = distinct !{!1748, !1749, !1750}
!1749 = !DILocation(line: 56, column: 7, scope: !1714)
!1750 = !DILocation(line: 64, column: 2, scope: !1714)
!1751 = !DILocation(line: 65, column: 5, scope: !1684)
!1752 = distinct !DISubprogram(name: "basic_string<std::allocator<char> >", linkageName: "_ZNSt7__cxx1112basic_stringIcSt11char_traitsIcESaIcEEC2IS3_EEmcRKS3_", scope: !16, file: !15, line: 540, type: !1753, scopeLine: 542, flags: DIFlagPrototyped, spFlags: DISPFlagDefinition, unit: !11, templateParams: !1359, declaration: !1755, retainedNodes: !93)
!1753 = !DISubroutineType(types: !1754)
!1754 = !{null, !1357, !24, !9, !69}
!1755 = !DISubprogram(name: "basic_string<std::allocator<char> >", scope: !16, file: !15, line: 540, type: !1753, scopeLine: 540, flags: DIFlagPublic | DIFlagPrototyped, spFlags: 0, templateParams: !1359)
!1756 = !DILocalVariable(name: "this", arg: 1, scope: !1752, type: !1362, flags: DIFlagArtificial | DIFlagObjectPointer)
!1757 = !DILocation(line: 0, scope: !1752)
!1758 = !DILocalVariable(name: "__n", arg: 2, scope: !1752, file: !15, line: 540, type: !24)
!1759 = !DILocation(line: 540, column: 30, scope: !1752)
!1760 = !DILocalVariable(name: "__c", arg: 3, scope: !1752, file: !15, line: 540, type: !9)
!1761 = !DILocation(line: 540, column: 42, scope: !1752)
!1762 = !DILocalVariable(name: "__a", arg: 4, scope: !1752, file: !15, line: 540, type: !69)
!1763 = !DILocation(line: 540, column: 61, scope: !1752)
!1764 = !DILocation(line: 541, column: 9, scope: !1752)
!1765 = !DILocation(line: 541, column: 21, scope: !1752)
!1766 = !DILocation(line: 541, column: 38, scope: !1752)
!1767 = !DILocation(line: 542, column: 22, scope: !1768)
!1768 = distinct !DILexicalBlock(scope: !1752, file: !15, line: 542, column: 7)
!1769 = !DILocation(line: 542, column: 27, scope: !1768)
!1770 = !DILocation(line: 542, column: 9, scope: !1768)
