; ModuleID = 'src/montyhall.cpp'
source_filename = "src/montyhall.cpp"
target datalayout = "e-m:e-p270:32:32-p271:32:32-p272:64:64-i64:64-f80:128-n8:16:32:64-S128"
target triple = "x86_64-pc-linux-gnu"

%"class.std::__cxx11::basic_string" = type { %"struct.std::__cxx11::basic_string<char, std::char_traits<char>, std::allocator<char> >::_Alloc_hider", i64, %union.anon }
%"struct.std::__cxx11::basic_string<char, std::char_traits<char>, std::allocator<char> >::_Alloc_hider" = type { i8* }
%union.anon = type { i64, [8 x i8] }
%"class.std::allocator" = type { i8 }
%"class.std::vector" = type { %"struct.std::_Vector_base" }
%"struct.std::_Vector_base" = type { %"struct.std::_Vector_base<int, std::allocator<int> >::_Vector_impl" }
%"struct.std::_Vector_base<int, std::allocator<int> >::_Vector_impl" = type { %"struct.std::_Vector_base<int, std::allocator<int> >::_Vector_impl_data" }
%"struct.std::_Vector_base<int, std::allocator<int> >::_Vector_impl_data" = type { i32*, i32*, i32* }
%"class.std::initializer_list" = type { i32*, i64 }
%"class.std::allocator.0" = type { i8 }
%"class.__gnu_cxx::new_allocator.1" = type { i8 }
%"struct.std::forward_iterator_tag" = type { i8 }
%"struct.std::random_access_iterator_tag" = type { i8 }
%"struct.std::__false_type" = type { i8 }

$_ZNSt7__cxx119to_stringEi = comdat any

$_ZNSt7__cxx1112basic_stringIcSt11char_traitsIcESaIcEEC2IS3_EEPKcRKS3_ = comdat any

$_Z17make_pse_symbolicIiEvPvmPKcOT_S4_ = comdat any

$_ZNSaIiEC2Ev = comdat any

$_ZNSt6vectorIiSaIiEEC2ESt16initializer_listIiERKS0_ = comdat any

$_ZNSaIiED2Ev = comdat any

$_ZNSt6vectorIiSaIiEED2Ev = comdat any

$_ZNSt8__detail14__to_chars_lenIjEEjT_i = comdat any

$_ZNSt7__cxx1112basic_stringIcSt11char_traitsIcESaIcEEC2IS3_EEmcRKS3_ = comdat any

$_ZNSt8__detail18__to_chars_10_implIjEEvPcjT_ = comdat any

$_ZNSt7__cxx1112basic_stringIcSt11char_traitsIcESaIcEE12_Alloc_hiderD2Ev = comdat any

$_ZNSt7__cxx1112basic_stringIcSt11char_traitsIcESaIcEE12_M_constructIPKcEEvT_S8_ = comdat any

$_ZNSt11char_traitsIcE6lengthEPKc = comdat any

$_ZNSt7__cxx1112basic_stringIcSt11char_traitsIcESaIcEE16_M_construct_auxIPKcEEvT_S8_St12__false_type = comdat any

$_ZNSt7__cxx1112basic_stringIcSt11char_traitsIcESaIcEE12_M_constructIPKcEEvT_S8_St20forward_iterator_tag = comdat any

$_ZN9__gnu_cxx17__is_null_pointerIKcEEbPT_ = comdat any

$_ZSt8distanceIPKcENSt15iterator_traitsIT_E15difference_typeES3_S3_ = comdat any

$__clang_call_terminate = comdat any

$_ZSt10__distanceIPKcENSt15iterator_traitsIT_E15difference_typeES3_S3_St26random_access_iterator_tag = comdat any

$_ZSt19__iterator_categoryIPKcENSt15iterator_traitsIT_E17iterator_categoryERKS3_ = comdat any

$_ZN9__gnu_cxx11char_traitsIcE6lengthEPKc = comdat any

$_ZN9__gnu_cxx11char_traitsIcE2eqERKcS3_ = comdat any

$_ZSt3minIiERKT_S2_S2_ = comdat any

$_ZSt3maxIiERKT_S2_S2_ = comdat any

$_ZN9__gnu_cxx13new_allocatorIiEC2Ev = comdat any

$_ZN9__gnu_cxx13new_allocatorIiED2Ev = comdat any

$_ZNSt12_Vector_baseIiSaIiEEC2ERKS0_ = comdat any

$_ZNSt6vectorIiSaIiEE19_M_range_initializeIPKiEEvT_S5_St20forward_iterator_tag = comdat any

$_ZNKSt16initializer_listIiE5beginEv = comdat any

$_ZNKSt16initializer_listIiE3endEv = comdat any

$_ZNSt12_Vector_baseIiSaIiEED2Ev = comdat any

$_ZNSt12_Vector_baseIiSaIiEE12_Vector_implC2ERKS0_ = comdat any

$_ZNSt12_Vector_baseIiSaIiEE17_Vector_impl_dataC2Ev = comdat any

$_ZN9__gnu_cxx13new_allocatorIiEC2ERKS1_ = comdat any

$_ZSt8distanceIPKiENSt15iterator_traitsIT_E15difference_typeES3_S3_ = comdat any

$_ZNSt12_Vector_baseIiSaIiEE11_M_allocateEm = comdat any

$_ZNSt6vectorIiSaIiEE17_S_check_init_lenEmRKS0_ = comdat any

$_ZNSt12_Vector_baseIiSaIiEE19_M_get_Tp_allocatorEv = comdat any

$_ZSt22__uninitialized_copy_aIPKiPiiET0_T_S4_S3_RSaIT1_E = comdat any

$_ZSt10__distanceIPKiENSt15iterator_traitsIT_E15difference_typeES3_S3_St26random_access_iterator_tag = comdat any

$_ZSt19__iterator_categoryIPKiENSt15iterator_traitsIT_E17iterator_categoryERKS3_ = comdat any

$_ZNSt16allocator_traitsISaIiEE8allocateERS0_m = comdat any

$_ZN9__gnu_cxx13new_allocatorIiE8allocateEmPKv = comdat any

$_ZNK9__gnu_cxx13new_allocatorIiE11_M_max_sizeEv = comdat any

$_ZNSt6vectorIiSaIiEE11_S_max_sizeERKS0_ = comdat any

$_ZNSaIiEC2ERKS_ = comdat any

$_ZNSt16allocator_traitsISaIiEE8max_sizeERKS0_ = comdat any

$_ZSt3minImERKT_S2_S2_ = comdat any

$_ZNK9__gnu_cxx13new_allocatorIiE8max_sizeEv = comdat any

$_ZSt18uninitialized_copyIPKiPiET0_T_S4_S3_ = comdat any

$_ZNSt20__uninitialized_copyILb1EE13__uninit_copyIPKiPiEET0_T_S6_S5_ = comdat any

$_ZSt4copyIPKiPiET0_T_S4_S3_ = comdat any

$_ZSt13__copy_move_aILb0EPKiPiET1_T0_S4_S3_ = comdat any

$_ZSt12__miter_baseIPKiET_S2_ = comdat any

$_ZSt12__niter_wrapIPiET_RKS1_S1_ = comdat any

$_ZSt14__copy_move_a1ILb0EPKiPiET1_T0_S4_S3_ = comdat any

$_ZSt12__niter_baseIPKiET_S2_ = comdat any

$_ZSt12__niter_baseIPiET_S1_ = comdat any

$_ZSt14__copy_move_a2ILb0EPKiPiET1_T0_S4_S3_ = comdat any

$_ZNSt11__copy_moveILb0ELb1ESt26random_access_iterator_tagE8__copy_mIiEEPT_PKS3_S6_S4_ = comdat any

$_ZNKSt16initializer_listIiE4sizeEv = comdat any

$_ZNSt12_Vector_baseIiSaIiEE13_M_deallocateEPim = comdat any

$_ZNSt12_Vector_baseIiSaIiEE12_Vector_implD2Ev = comdat any

$_ZNSt16allocator_traitsISaIiEE10deallocateERS0_Pim = comdat any

$_ZN9__gnu_cxx13new_allocatorIiE10deallocateEPim = comdat any

$_ZSt8_DestroyIPiiEvT_S1_RSaIT0_E = comdat any

$_ZSt8_DestroyIPiEvT_S1_ = comdat any

$_ZNSt12_Destroy_auxILb1EE9__destroyIPiEEvT_S3_ = comdat any

$_ZZNSt8__detail18__to_chars_10_implIjEEvPcjT_E8__digits = comdat any

@.str = private unnamed_addr constant [5 x i8] c"num_\00", align 1
@.str.1 = private unnamed_addr constant [5 x i8] c"_sym\00", align 1
@.str.2 = private unnamed_addr constant [7 x i8] c"denom_\00", align 1
@.str.3 = private unnamed_addr constant [13 x i8] c"setFraction_\00", align 1
@.str.4 = private unnamed_addr constant [15 x i8] c"choice_pse_sym\00", align 1
@.str.5 = private unnamed_addr constant [17 x i8] c"car_door_pse_sym\00", align 1
@.str.6 = private unnamed_addr constant [14 x i8] c"host_door_sym\00", align 1
@.str.7 = private unnamed_addr constant [20 x i8] c"door_switch_pse_sym\00", align 1
@.str.8 = private unnamed_addr constant [7 x i8] c"Ret : \00", align 1
@_ZZNSt8__detail18__to_chars_10_implIjEEvPcjT_E8__digits = linkonce_odr constant [201 x i8] c"00010203040506070809101112131415161718192021222324252627282930313233343536373839404142434445464748495051525354555657585960616263646566676869707172737475767778798081828384858687888990919293949596979899\00", comdat, align 16, !dbg !0
@.str.9 = private unnamed_addr constant [42 x i8] c"basic_string::_M_construct null not valid\00", align 1
@.str.10 = private unnamed_addr constant [49 x i8] c"cannot create std::vector larger than max_size()\00", align 1

; Function Attrs: noinline uwtable
define void @_Z16setFractionValuePviii(i8* %0, i32 %1, i32 %2, i32 %3) #0 personality i8* bitcast (i32 (...)* @__gxx_personality_v0 to i8*) !dbg !1744 {
  %5 = alloca i8*, align 8
  %6 = alloca i32, align 4
  %7 = alloca i32, align 4
  %8 = alloca i32, align 4
  %9 = alloca i32, align 4
  %10 = alloca i32, align 4
  %11 = alloca %"class.std::__cxx11::basic_string", align 8
  %12 = alloca %"class.std::__cxx11::basic_string", align 8
  %13 = alloca %"class.std::allocator", align 1
  %14 = alloca i8*
  %15 = alloca i32
  %16 = alloca %"class.std::__cxx11::basic_string", align 8
  %17 = alloca %"class.std::allocator", align 1
  %18 = alloca %"class.std::__cxx11::basic_string", align 8
  %19 = alloca %"class.std::allocator", align 1
  store i8* %0, i8** %5, align 8
  call void @llvm.dbg.declare(metadata i8** %5, metadata !1748, metadata !DIExpression()), !dbg !1749
  store i32 %1, i32* %6, align 4
  call void @llvm.dbg.declare(metadata i32* %6, metadata !1750, metadata !DIExpression()), !dbg !1751
  store i32 %2, i32* %7, align 4
  call void @llvm.dbg.declare(metadata i32* %7, metadata !1752, metadata !DIExpression()), !dbg !1753
  store i32 %3, i32* %8, align 4
  call void @llvm.dbg.declare(metadata i32* %8, metadata !1754, metadata !DIExpression()), !dbg !1755
  call void @llvm.dbg.declare(metadata i32* %9, metadata !1756, metadata !DIExpression()), !dbg !1757
  call void @llvm.dbg.declare(metadata i32* %10, metadata !1758, metadata !DIExpression()), !dbg !1759
  call void @llvm.dbg.declare(metadata %"class.std::__cxx11::basic_string"* %11, metadata !1760, metadata !DIExpression()), !dbg !1763
  %20 = load i32, i32* %8, align 4, !dbg !1764
  call void @_ZNSt7__cxx119to_stringEi(%"class.std::__cxx11::basic_string"* sret %11, i32 %20), !dbg !1765
  call void @llvm.dbg.declare(metadata %"class.std::__cxx11::basic_string"* %12, metadata !1766, metadata !DIExpression()), !dbg !1767
  call void @_ZNSaIcEC1Ev(%"class.std::allocator"* %13) #11, !dbg !1767
  invoke void @_ZNSt7__cxx1112basic_stringIcSt11char_traitsIcESaIcEEC2IS3_EEPKcRKS3_(%"class.std::__cxx11::basic_string"* %12, i8* getelementptr inbounds ([5 x i8], [5 x i8]* @.str, i64 0, i64 0), %"class.std::allocator"* dereferenceable(1) %13)
          to label %21 unwind label %59, !dbg !1767

21:                                               ; preds = %4
  call void @_ZNSaIcED1Ev(%"class.std::allocator"* %13) #11, !dbg !1767
  %22 = invoke dereferenceable(32) %"class.std::__cxx11::basic_string"* @_ZNSt7__cxx1112basic_stringIcSt11char_traitsIcESaIcEEpLERKS4_(%"class.std::__cxx11::basic_string"* %12, %"class.std::__cxx11::basic_string"* dereferenceable(32) %11)
          to label %23 unwind label %63, !dbg !1768

23:                                               ; preds = %21
  %24 = invoke dereferenceable(32) %"class.std::__cxx11::basic_string"* @_ZNSt7__cxx1112basic_stringIcSt11char_traitsIcESaIcEEpLEPKc(%"class.std::__cxx11::basic_string"* %12, i8* getelementptr inbounds ([5 x i8], [5 x i8]* @.str.1, i64 0, i64 0))
          to label %25 unwind label %63, !dbg !1769

25:                                               ; preds = %23
  call void @llvm.dbg.declare(metadata %"class.std::__cxx11::basic_string"* %16, metadata !1770, metadata !DIExpression()), !dbg !1771
  call void @_ZNSaIcEC1Ev(%"class.std::allocator"* %17) #11, !dbg !1771
  invoke void @_ZNSt7__cxx1112basic_stringIcSt11char_traitsIcESaIcEEC2IS3_EEPKcRKS3_(%"class.std::__cxx11::basic_string"* %16, i8* getelementptr inbounds ([7 x i8], [7 x i8]* @.str.2, i64 0, i64 0), %"class.std::allocator"* dereferenceable(1) %17)
          to label %26 unwind label %67, !dbg !1771

26:                                               ; preds = %25
  call void @_ZNSaIcED1Ev(%"class.std::allocator"* %17) #11, !dbg !1771
  %27 = invoke dereferenceable(32) %"class.std::__cxx11::basic_string"* @_ZNSt7__cxx1112basic_stringIcSt11char_traitsIcESaIcEEpLERKS4_(%"class.std::__cxx11::basic_string"* %16, %"class.std::__cxx11::basic_string"* dereferenceable(32) %11)
          to label %28 unwind label %71, !dbg !1772

28:                                               ; preds = %26
  %29 = invoke dereferenceable(32) %"class.std::__cxx11::basic_string"* @_ZNSt7__cxx1112basic_stringIcSt11char_traitsIcESaIcEEpLEPKc(%"class.std::__cxx11::basic_string"* %16, i8* getelementptr inbounds ([5 x i8], [5 x i8]* @.str.1, i64 0, i64 0))
          to label %30 unwind label %71, !dbg !1773

30:                                               ; preds = %28
  call void @llvm.dbg.declare(metadata %"class.std::__cxx11::basic_string"* %18, metadata !1774, metadata !DIExpression()), !dbg !1775
  call void @_ZNSaIcEC1Ev(%"class.std::allocator"* %19) #11, !dbg !1775
  invoke void @_ZNSt7__cxx1112basic_stringIcSt11char_traitsIcESaIcEEC2IS3_EEPKcRKS3_(%"class.std::__cxx11::basic_string"* %18, i8* getelementptr inbounds ([13 x i8], [13 x i8]* @.str.3, i64 0, i64 0), %"class.std::allocator"* dereferenceable(1) %19)
          to label %31 unwind label %75, !dbg !1775

31:                                               ; preds = %30
  call void @_ZNSaIcED1Ev(%"class.std::allocator"* %19) #11, !dbg !1775
  %32 = invoke dereferenceable(32) %"class.std::__cxx11::basic_string"* @_ZNSt7__cxx1112basic_stringIcSt11char_traitsIcESaIcEEpLERKS4_(%"class.std::__cxx11::basic_string"* %18, %"class.std::__cxx11::basic_string"* dereferenceable(32) %11)
          to label %33 unwind label %79, !dbg !1776

33:                                               ; preds = %31
  %34 = bitcast i32* %9 to i8*, !dbg !1777
  %35 = call i8* @_ZNKSt7__cxx1112basic_stringIcSt11char_traitsIcESaIcEE5c_strEv(%"class.std::__cxx11::basic_string"* %12) #11, !dbg !1778
  invoke void @klee_make_symbolic(i8* %34, i64 4, i8* %35)
          to label %36 unwind label %79, !dbg !1779

36:                                               ; preds = %33
  %37 = bitcast i32* %10 to i8*, !dbg !1780
  %38 = call i8* @_ZNKSt7__cxx1112basic_stringIcSt11char_traitsIcESaIcEE5c_strEv(%"class.std::__cxx11::basic_string"* %16) #11, !dbg !1781
  invoke void @klee_make_symbolic(i8* %37, i64 4, i8* %38)
          to label %39 unwind label %79, !dbg !1782

39:                                               ; preds = %36
  %40 = load i32, i32* %6, align 4, !dbg !1783
  store i32 %40, i32* %9, align 4, !dbg !1784
  %41 = load i32, i32* %7, align 4, !dbg !1785
  store i32 %41, i32* %10, align 4, !dbg !1786
  %42 = load i32, i32* %9, align 4, !dbg !1787
  %43 = sitofp i32 %42 to double, !dbg !1787
  %44 = load i32, i32* %10, align 4, !dbg !1788
  %45 = sitofp i32 %44 to double, !dbg !1788
  %46 = fdiv double %43, %45, !dbg !1789
  %47 = load i8*, i8** %5, align 8, !dbg !1790
  %48 = bitcast i8* %47 to double*, !dbg !1791
  store double %46, double* %48, align 8, !dbg !1792
  %49 = bitcast i32* %9 to i8*, !dbg !1793
  %50 = call i8* @_ZNKSt7__cxx1112basic_stringIcSt11char_traitsIcESaIcEE5c_strEv(%"class.std::__cxx11::basic_string"* %12) #11, !dbg !1794
  invoke void @klee_dump_symbolic_details(i8* %49, i8* %50)
          to label %51 unwind label %79, !dbg !1795

51:                                               ; preds = %39
  %52 = bitcast i32* %10 to i8*, !dbg !1796
  %53 = call i8* @_ZNKSt7__cxx1112basic_stringIcSt11char_traitsIcESaIcEE5c_strEv(%"class.std::__cxx11::basic_string"* %16) #11, !dbg !1797
  invoke void @klee_dump_symbolic_details(i8* %52, i8* %53)
          to label %54 unwind label %79, !dbg !1798

54:                                               ; preds = %51
  %55 = load i8*, i8** %5, align 8, !dbg !1799
  %56 = call i8* @_ZNKSt7__cxx1112basic_stringIcSt11char_traitsIcESaIcEE5c_strEv(%"class.std::__cxx11::basic_string"* %18) #11, !dbg !1800
  invoke void @klee_dump_symbolic_details(i8* %55, i8* %56)
          to label %57 unwind label %79, !dbg !1801

57:                                               ; preds = %54
  invoke void @klee_dump_kquery_state()
          to label %58 unwind label %79, !dbg !1802

58:                                               ; preds = %57
  call void @_ZNSt7__cxx1112basic_stringIcSt11char_traitsIcESaIcEED1Ev(%"class.std::__cxx11::basic_string"* %18) #11, !dbg !1803
  call void @_ZNSt7__cxx1112basic_stringIcSt11char_traitsIcESaIcEED1Ev(%"class.std::__cxx11::basic_string"* %16) #11, !dbg !1803
  call void @_ZNSt7__cxx1112basic_stringIcSt11char_traitsIcESaIcEED1Ev(%"class.std::__cxx11::basic_string"* %12) #11, !dbg !1803
  call void @_ZNSt7__cxx1112basic_stringIcSt11char_traitsIcESaIcEED1Ev(%"class.std::__cxx11::basic_string"* %11) #11, !dbg !1803
  ret void, !dbg !1803

59:                                               ; preds = %4
  %60 = landingpad { i8*, i32 }
          cleanup, !dbg !1803
  %61 = extractvalue { i8*, i32 } %60, 0, !dbg !1803
  store i8* %61, i8** %14, align 8, !dbg !1803
  %62 = extractvalue { i8*, i32 } %60, 1, !dbg !1803
  store i32 %62, i32* %15, align 4, !dbg !1803
  call void @_ZNSaIcED1Ev(%"class.std::allocator"* %13) #11, !dbg !1767
  br label %85, !dbg !1767

63:                                               ; preds = %23, %21
  %64 = landingpad { i8*, i32 }
          cleanup, !dbg !1803
  %65 = extractvalue { i8*, i32 } %64, 0, !dbg !1803
  store i8* %65, i8** %14, align 8, !dbg !1803
  %66 = extractvalue { i8*, i32 } %64, 1, !dbg !1803
  store i32 %66, i32* %15, align 4, !dbg !1803
  br label %84, !dbg !1803

67:                                               ; preds = %25
  %68 = landingpad { i8*, i32 }
          cleanup, !dbg !1803
  %69 = extractvalue { i8*, i32 } %68, 0, !dbg !1803
  store i8* %69, i8** %14, align 8, !dbg !1803
  %70 = extractvalue { i8*, i32 } %68, 1, !dbg !1803
  store i32 %70, i32* %15, align 4, !dbg !1803
  call void @_ZNSaIcED1Ev(%"class.std::allocator"* %17) #11, !dbg !1771
  br label %84, !dbg !1771

71:                                               ; preds = %28, %26
  %72 = landingpad { i8*, i32 }
          cleanup, !dbg !1803
  %73 = extractvalue { i8*, i32 } %72, 0, !dbg !1803
  store i8* %73, i8** %14, align 8, !dbg !1803
  %74 = extractvalue { i8*, i32 } %72, 1, !dbg !1803
  store i32 %74, i32* %15, align 4, !dbg !1803
  br label %83, !dbg !1803

75:                                               ; preds = %30
  %76 = landingpad { i8*, i32 }
          cleanup, !dbg !1803
  %77 = extractvalue { i8*, i32 } %76, 0, !dbg !1803
  store i8* %77, i8** %14, align 8, !dbg !1803
  %78 = extractvalue { i8*, i32 } %76, 1, !dbg !1803
  store i32 %78, i32* %15, align 4, !dbg !1803
  call void @_ZNSaIcED1Ev(%"class.std::allocator"* %19) #11, !dbg !1775
  br label %83, !dbg !1775

79:                                               ; preds = %57, %54, %51, %39, %36, %33, %31
  %80 = landingpad { i8*, i32 }
          cleanup, !dbg !1803
  %81 = extractvalue { i8*, i32 } %80, 0, !dbg !1803
  store i8* %81, i8** %14, align 8, !dbg !1803
  %82 = extractvalue { i8*, i32 } %80, 1, !dbg !1803
  store i32 %82, i32* %15, align 4, !dbg !1803
  call void @_ZNSt7__cxx1112basic_stringIcSt11char_traitsIcESaIcEED1Ev(%"class.std::__cxx11::basic_string"* %18) #11, !dbg !1803
  br label %83, !dbg !1803

83:                                               ; preds = %79, %75, %71
  call void @_ZNSt7__cxx1112basic_stringIcSt11char_traitsIcESaIcEED1Ev(%"class.std::__cxx11::basic_string"* %16) #11, !dbg !1803
  br label %84, !dbg !1803

84:                                               ; preds = %83, %67, %63
  call void @_ZNSt7__cxx1112basic_stringIcSt11char_traitsIcESaIcEED1Ev(%"class.std::__cxx11::basic_string"* %12) #11, !dbg !1803
  br label %85, !dbg !1803

85:                                               ; preds = %84, %59
  call void @_ZNSt7__cxx1112basic_stringIcSt11char_traitsIcESaIcEED1Ev(%"class.std::__cxx11::basic_string"* %11) #11, !dbg !1803
  br label %86, !dbg !1803

86:                                               ; preds = %85
  %87 = load i8*, i8** %14, align 8, !dbg !1803
  %88 = load i32, i32* %15, align 4, !dbg !1803
  %89 = insertvalue { i8*, i32 } undef, i8* %87, 0, !dbg !1803
  %90 = insertvalue { i8*, i32 } %89, i32 %88, 1, !dbg !1803
  resume { i8*, i32 } %90, !dbg !1803
}

; Function Attrs: nounwind readnone speculatable willreturn
declare void @llvm.dbg.declare(metadata, metadata, metadata) #1

; Function Attrs: noinline uwtable
define linkonce_odr void @_ZNSt7__cxx119to_stringEi(%"class.std::__cxx11::basic_string"* noalias sret %0, i32 %1) #0 comdat personality i8* bitcast (i32 (...)* @__gxx_personality_v0 to i8*) !dbg !1804 {
  %3 = alloca i8*, align 8
  %4 = alloca i32, align 4
  %5 = alloca i8, align 1
  %6 = alloca i32, align 4
  %7 = alloca i32, align 4
  %8 = alloca i1, align 1
  %9 = alloca %"class.std::allocator", align 1
  %10 = alloca i8*
  %11 = alloca i32
  %12 = bitcast %"class.std::__cxx11::basic_string"* %0 to i8*
  store i8* %12, i8** %3, align 8
  store i32 %1, i32* %4, align 4
  call void @llvm.dbg.declare(metadata i32* %4, metadata !1807, metadata !DIExpression()), !dbg !1808
  call void @llvm.dbg.declare(metadata i8* %5, metadata !1809, metadata !DIExpression()), !dbg !1810
  %13 = load i32, i32* %4, align 4, !dbg !1811
  %14 = icmp slt i32 %13, 0, !dbg !1812
  %15 = zext i1 %14 to i8, !dbg !1810
  store i8 %15, i8* %5, align 1, !dbg !1810
  call void @llvm.dbg.declare(metadata i32* %6, metadata !1813, metadata !DIExpression()), !dbg !1815
  %16 = load i8, i8* %5, align 1, !dbg !1816
  %17 = trunc i8 %16 to i1, !dbg !1816
  br i1 %17, label %18, label %22, !dbg !1816

18:                                               ; preds = %2
  %19 = load i32, i32* %4, align 4, !dbg !1817
  %20 = xor i32 %19, -1, !dbg !1818
  %21 = add i32 %20, 1, !dbg !1819
  br label %24, !dbg !1816

22:                                               ; preds = %2
  %23 = load i32, i32* %4, align 4, !dbg !1820
  br label %24, !dbg !1816

24:                                               ; preds = %22, %18
  %25 = phi i32 [ %21, %18 ], [ %23, %22 ], !dbg !1816
  store i32 %25, i32* %6, align 4, !dbg !1815
  call void @llvm.dbg.declare(metadata i32* %7, metadata !1821, metadata !DIExpression()), !dbg !1822
  %26 = load i32, i32* %6, align 4, !dbg !1823
  %27 = call i32 @_ZNSt8__detail14__to_chars_lenIjEEjT_i(i32 %26, i32 10) #11, !dbg !1824
  store i32 %27, i32* %7, align 4, !dbg !1822
  store i1 false, i1* %8, align 1, !dbg !1825
  call void @llvm.dbg.declare(metadata i8** %3, metadata !1826, metadata !DIExpression(DW_OP_deref)), !dbg !1827
  %28 = load i8, i8* %5, align 1, !dbg !1828
  %29 = trunc i8 %28 to i1, !dbg !1828
  %30 = zext i1 %29 to i32, !dbg !1828
  %31 = load i32, i32* %7, align 4, !dbg !1829
  %32 = add i32 %30, %31, !dbg !1830
  %33 = zext i32 %32 to i64, !dbg !1828
  call void @_ZNSaIcEC1Ev(%"class.std::allocator"* %9) #11, !dbg !1827
  invoke void @_ZNSt7__cxx1112basic_stringIcSt11char_traitsIcESaIcEEC2IS3_EEmcRKS3_(%"class.std::__cxx11::basic_string"* %0, i64 %33, i8 signext 45, %"class.std::allocator"* dereferenceable(1) %9)
          to label %34 unwind label %43, !dbg !1827

34:                                               ; preds = %24
  call void @_ZNSaIcED1Ev(%"class.std::allocator"* %9) #11, !dbg !1827
  %35 = load i8, i8* %5, align 1, !dbg !1831
  %36 = trunc i8 %35 to i1, !dbg !1831
  %37 = zext i1 %36 to i64, !dbg !1831
  %38 = invoke dereferenceable(1) i8* @_ZNSt7__cxx1112basic_stringIcSt11char_traitsIcESaIcEEixEm(%"class.std::__cxx11::basic_string"* %0, i64 %37)
          to label %39 unwind label %47, !dbg !1832

39:                                               ; preds = %34
  %40 = load i32, i32* %7, align 4, !dbg !1833
  %41 = load i32, i32* %6, align 4, !dbg !1834
  call void @_ZNSt8__detail18__to_chars_10_implIjEEvPcjT_(i8* %38, i32 %40, i32 %41) #11, !dbg !1835
  store i1 true, i1* %8, align 1, !dbg !1836
  %42 = load i1, i1* %8, align 1, !dbg !1837
  br i1 %42, label %52, label %51, !dbg !1837

43:                                               ; preds = %24
  %44 = landingpad { i8*, i32 }
          cleanup, !dbg !1837
  %45 = extractvalue { i8*, i32 } %44, 0, !dbg !1837
  store i8* %45, i8** %10, align 8, !dbg !1837
  %46 = extractvalue { i8*, i32 } %44, 1, !dbg !1837
  store i32 %46, i32* %11, align 4, !dbg !1837
  call void @_ZNSaIcED1Ev(%"class.std::allocator"* %9) #11, !dbg !1827
  br label %53, !dbg !1827

47:                                               ; preds = %34
  %48 = landingpad { i8*, i32 }
          cleanup, !dbg !1837
  %49 = extractvalue { i8*, i32 } %48, 0, !dbg !1837
  store i8* %49, i8** %10, align 8, !dbg !1837
  %50 = extractvalue { i8*, i32 } %48, 1, !dbg !1837
  store i32 %50, i32* %11, align 4, !dbg !1837
  call void @_ZNSt7__cxx1112basic_stringIcSt11char_traitsIcESaIcEED1Ev(%"class.std::__cxx11::basic_string"* %0) #11, !dbg !1837
  br label %53, !dbg !1837

51:                                               ; preds = %39
  call void @_ZNSt7__cxx1112basic_stringIcSt11char_traitsIcESaIcEED1Ev(%"class.std::__cxx11::basic_string"* %0) #11, !dbg !1837
  br label %52, !dbg !1837

52:                                               ; preds = %51, %39
  ret void, !dbg !1837

53:                                               ; preds = %47, %43
  %54 = load i8*, i8** %10, align 8, !dbg !1827
  %55 = load i32, i32* %11, align 4, !dbg !1827
  %56 = insertvalue { i8*, i32 } undef, i8* %54, 0, !dbg !1827
  %57 = insertvalue { i8*, i32 } %56, i32 %55, 1, !dbg !1827
  resume { i8*, i32 } %57, !dbg !1827
}

; Function Attrs: nounwind
declare void @_ZNSaIcEC1Ev(%"class.std::allocator"*) unnamed_addr #2

; Function Attrs: noinline uwtable
define linkonce_odr void @_ZNSt7__cxx1112basic_stringIcSt11char_traitsIcESaIcEEC2IS3_EEPKcRKS3_(%"class.std::__cxx11::basic_string"* %0, i8* %1, %"class.std::allocator"* dereferenceable(1) %2) unnamed_addr #0 comdat align 2 personality i8* bitcast (i32 (...)* @__gxx_personality_v0 to i8*) !dbg !1838 {
  %4 = alloca %"class.std::__cxx11::basic_string"*, align 8
  %5 = alloca i8*, align 8
  %6 = alloca %"class.std::allocator"*, align 8
  %7 = alloca i8*
  %8 = alloca i32
  store %"class.std::__cxx11::basic_string"* %0, %"class.std::__cxx11::basic_string"** %4, align 8
  call void @llvm.dbg.declare(metadata %"class.std::__cxx11::basic_string"** %4, metadata !1845, metadata !DIExpression()), !dbg !1847
  store i8* %1, i8** %5, align 8
  call void @llvm.dbg.declare(metadata i8** %5, metadata !1848, metadata !DIExpression()), !dbg !1849
  store %"class.std::allocator"* %2, %"class.std::allocator"** %6, align 8
  call void @llvm.dbg.declare(metadata %"class.std::allocator"** %6, metadata !1850, metadata !DIExpression()), !dbg !1851
  %9 = load %"class.std::__cxx11::basic_string"*, %"class.std::__cxx11::basic_string"** %4, align 8
  %10 = getelementptr inbounds %"class.std::__cxx11::basic_string", %"class.std::__cxx11::basic_string"* %9, i32 0, i32 0, !dbg !1852
  %11 = call i8* @_ZNSt7__cxx1112basic_stringIcSt11char_traitsIcESaIcEE13_M_local_dataEv(%"class.std::__cxx11::basic_string"* %9), !dbg !1853
  %12 = load %"class.std::allocator"*, %"class.std::allocator"** %6, align 8, !dbg !1854
  call void @_ZNSt7__cxx1112basic_stringIcSt11char_traitsIcESaIcEE12_Alloc_hiderC1EPcRKS3_(%"struct.std::__cxx11::basic_string<char, std::char_traits<char>, std::allocator<char> >::_Alloc_hider"* %10, i8* %11, %"class.std::allocator"* dereferenceable(1) %12), !dbg !1852
  %13 = load i8*, i8** %5, align 8, !dbg !1855
  %14 = load i8*, i8** %5, align 8, !dbg !1857
  %15 = icmp ne i8* %14, null, !dbg !1857
  br i1 %15, label %16, label %22, !dbg !1857

16:                                               ; preds = %3
  %17 = load i8*, i8** %5, align 8, !dbg !1858
  %18 = load i8*, i8** %5, align 8, !dbg !1859
  %19 = invoke i64 @_ZNSt11char_traitsIcE6lengthEPKc(i8* %18)
          to label %20 unwind label %28, !dbg !1860

20:                                               ; preds = %16
  %21 = getelementptr inbounds i8, i8* %17, i64 %19, !dbg !1861
  br label %25, !dbg !1857

22:                                               ; preds = %3
  %23 = load i8*, i8** %5, align 8, !dbg !1862
  %24 = getelementptr inbounds i8, i8* %23, i64 -1, !dbg !1863
  br label %25, !dbg !1857

25:                                               ; preds = %22, %20
  %26 = phi i8* [ %21, %20 ], [ %24, %22 ], !dbg !1857
  invoke void @_ZNSt7__cxx1112basic_stringIcSt11char_traitsIcESaIcEE12_M_constructIPKcEEvT_S8_(%"class.std::__cxx11::basic_string"* %9, i8* %13, i8* %26)
          to label %27 unwind label %28, !dbg !1864

27:                                               ; preds = %25
  ret void, !dbg !1865

28:                                               ; preds = %25, %16
  %29 = landingpad { i8*, i32 }
          cleanup, !dbg !1866
  %30 = extractvalue { i8*, i32 } %29, 0, !dbg !1866
  store i8* %30, i8** %7, align 8, !dbg !1866
  %31 = extractvalue { i8*, i32 } %29, 1, !dbg !1866
  store i32 %31, i32* %8, align 4, !dbg !1866
  call void @_ZNSt7__cxx1112basic_stringIcSt11char_traitsIcESaIcEE12_Alloc_hiderD2Ev(%"struct.std::__cxx11::basic_string<char, std::char_traits<char>, std::allocator<char> >::_Alloc_hider"* %10) #11, !dbg !1866
  br label %32, !dbg !1866

32:                                               ; preds = %28
  %33 = load i8*, i8** %7, align 8, !dbg !1866
  %34 = load i32, i32* %8, align 4, !dbg !1866
  %35 = insertvalue { i8*, i32 } undef, i8* %33, 0, !dbg !1866
  %36 = insertvalue { i8*, i32 } %35, i32 %34, 1, !dbg !1866
  resume { i8*, i32 } %36, !dbg !1866
}

declare i32 @__gxx_personality_v0(...)

; Function Attrs: nounwind
declare void @_ZNSaIcED1Ev(%"class.std::allocator"*) unnamed_addr #2

declare dereferenceable(32) %"class.std::__cxx11::basic_string"* @_ZNSt7__cxx1112basic_stringIcSt11char_traitsIcESaIcEEpLERKS4_(%"class.std::__cxx11::basic_string"*, %"class.std::__cxx11::basic_string"* dereferenceable(32)) #3

declare dereferenceable(32) %"class.std::__cxx11::basic_string"* @_ZNSt7__cxx1112basic_stringIcSt11char_traitsIcESaIcEEpLEPKc(%"class.std::__cxx11::basic_string"*, i8*) #3

declare void @klee_make_symbolic(i8*, i64, i8*) #3

; Function Attrs: nounwind
declare i8* @_ZNKSt7__cxx1112basic_stringIcSt11char_traitsIcESaIcEE5c_strEv(%"class.std::__cxx11::basic_string"*) #2

declare void @klee_dump_symbolic_details(i8*, i8*) #3

declare void @klee_dump_kquery_state() #3

; Function Attrs: nounwind
declare void @_ZNSt7__cxx1112basic_stringIcSt11char_traitsIcESaIcEED1Ev(%"class.std::__cxx11::basic_string"*) unnamed_addr #2

; Function Attrs: noinline uwtable
define zeroext i1 @_Z9montyhallb(i1 zeroext %0) #0 !dbg !1867 {
  %2 = alloca i1, align 1
  %3 = alloca i8, align 1
  %4 = alloca i32, align 4
  %5 = alloca i32, align 4
  %6 = alloca i32, align 4
  %7 = alloca i32, align 4
  %8 = alloca i32, align 4
  %9 = alloca i32, align 4
  %10 = alloca i32, align 4
  %11 = zext i1 %0 to i8
  store i8 %11, i8* %3, align 1
  call void @llvm.dbg.declare(metadata i8* %3, metadata !1870, metadata !DIExpression()), !dbg !1871
  call void @llvm.dbg.declare(metadata i32* %4, metadata !1872, metadata !DIExpression()), !dbg !1873
  store i32 0, i32* %4, align 4, !dbg !1873
  call void @llvm.dbg.declare(metadata i32* %5, metadata !1874, metadata !DIExpression()), !dbg !1875
  call void @llvm.dbg.declare(metadata i32* %6, metadata !1876, metadata !DIExpression()), !dbg !1877
  %12 = bitcast i32* %6 to i8*, !dbg !1878
  store i32 0, i32* %7, align 4, !dbg !1879
  store i32 3, i32* %8, align 4, !dbg !1880
  call void @_Z17make_pse_symbolicIiEvPvmPKcOT_S4_(i8* %12, i64 4, i8* getelementptr inbounds ([15 x i8], [15 x i8]* @.str.4, i64 0, i64 0), i32* dereferenceable(4) %7, i32* dereferenceable(4) %8), !dbg !1881
  %13 = bitcast i32* %5 to i8*, !dbg !1882
  store i32 0, i32* %9, align 4, !dbg !1883
  store i32 3, i32* %10, align 4, !dbg !1884
  call void @_Z17make_pse_symbolicIiEvPvmPKcOT_S4_(i8* %13, i64 4, i8* getelementptr inbounds ([17 x i8], [17 x i8]* @.str.5, i64 0, i64 0), i32* dereferenceable(4) %9, i32* dereferenceable(4) %10), !dbg !1885
  %14 = bitcast i32* %4 to i8*, !dbg !1886
  call void @klee_make_symbolic(i8* %14, i64 4, i8* getelementptr inbounds ([14 x i8], [14 x i8]* @.str.6, i64 0, i64 0)), !dbg !1887
  %15 = load i32, i32* %5, align 4, !dbg !1888
  %16 = icmp ne i32 %15, 1, !dbg !1890
  br i1 %16, label %17, label %21, !dbg !1891

17:                                               ; preds = %1
  %18 = load i32, i32* %6, align 4, !dbg !1892
  %19 = icmp ne i32 %18, 1, !dbg !1893
  br i1 %19, label %20, label %21, !dbg !1894

20:                                               ; preds = %17
  store i32 1, i32* %4, align 4, !dbg !1895
  br label %30, !dbg !1897

21:                                               ; preds = %17, %1
  %22 = load i32, i32* %5, align 4, !dbg !1898
  %23 = icmp ne i32 %22, 2, !dbg !1900
  br i1 %23, label %24, label %28, !dbg !1901

24:                                               ; preds = %21
  %25 = load i32, i32* %6, align 4, !dbg !1902
  %26 = icmp ne i32 %25, 2, !dbg !1903
  br i1 %26, label %27, label %28, !dbg !1904

27:                                               ; preds = %24
  store i32 2, i32* %4, align 4, !dbg !1905
  br label %29, !dbg !1907

28:                                               ; preds = %24, %21
  store i32 3, i32* %4, align 4, !dbg !1908
  br label %29

29:                                               ; preds = %28, %27
  br label %30

30:                                               ; preds = %29, %20
  %31 = load i8, i8* %3, align 1, !dbg !1910
  %32 = trunc i8 %31 to i1, !dbg !1910
  br i1 %32, label %33, label %59, !dbg !1912

33:                                               ; preds = %30
  %34 = load i32, i32* %4, align 4, !dbg !1913
  %35 = icmp eq i32 %34, 1, !dbg !1916
  br i1 %35, label %36, label %42, !dbg !1917

36:                                               ; preds = %33
  %37 = load i32, i32* %6, align 4, !dbg !1918
  %38 = icmp eq i32 %37, 2, !dbg !1921
  br i1 %38, label %39, label %40, !dbg !1922

39:                                               ; preds = %36
  store i32 3, i32* %6, align 4, !dbg !1923
  br label %41, !dbg !1925

40:                                               ; preds = %36
  store i32 2, i32* %6, align 4, !dbg !1926
  br label %41

41:                                               ; preds = %40, %39
  br label %58, !dbg !1928

42:                                               ; preds = %33
  %43 = load i32, i32* %4, align 4, !dbg !1929
  %44 = icmp eq i32 %43, 2, !dbg !1931
  br i1 %44, label %45, label %51, !dbg !1932

45:                                               ; preds = %42
  %46 = load i32, i32* %6, align 4, !dbg !1933
  %47 = icmp eq i32 %46, 1, !dbg !1936
  br i1 %47, label %48, label %49, !dbg !1937

48:                                               ; preds = %45
  store i32 3, i32* %6, align 4, !dbg !1938
  br label %50, !dbg !1940

49:                                               ; preds = %45
  store i32 1, i32* %6, align 4, !dbg !1941
  br label %50

50:                                               ; preds = %49, %48
  br label %57, !dbg !1943

51:                                               ; preds = %42
  %52 = load i32, i32* %6, align 4, !dbg !1944
  %53 = icmp eq i32 %52, 1, !dbg !1947
  br i1 %53, label %54, label %55, !dbg !1948

54:                                               ; preds = %51
  store i32 2, i32* %6, align 4, !dbg !1949
  br label %56, !dbg !1951

55:                                               ; preds = %51
  store i32 1, i32* %6, align 4, !dbg !1952
  br label %56

56:                                               ; preds = %55, %54
  br label %57

57:                                               ; preds = %56, %50
  br label %58

58:                                               ; preds = %57, %41
  br label %59, !dbg !1954

59:                                               ; preds = %58, %30
  %60 = load i32, i32* %6, align 4, !dbg !1955
  %61 = load i32, i32* %5, align 4, !dbg !1957
  %62 = icmp eq i32 %60, %61, !dbg !1958
  br i1 %62, label %63, label %64, !dbg !1959

63:                                               ; preds = %59
  store i1 true, i1* %2, align 1, !dbg !1960
  br label %65, !dbg !1960

64:                                               ; preds = %59
  store i1 false, i1* %2, align 1, !dbg !1962
  br label %65, !dbg !1962

65:                                               ; preds = %64, %63
  %66 = load i1, i1* %2, align 1, !dbg !1964
  ret i1 %66, !dbg !1964
}

; Function Attrs: noinline uwtable
define linkonce_odr void @_Z17make_pse_symbolicIiEvPvmPKcOT_S4_(i8* %0, i64 %1, i8* %2, i32* dereferenceable(4) %3, i32* dereferenceable(4) %4) #0 comdat !dbg !1965 {
  %6 = alloca i8*, align 8
  %7 = alloca i64, align 8
  %8 = alloca i8*, align 8
  %9 = alloca i32*, align 8
  %10 = alloca i32*, align 8
  store i8* %0, i8** %6, align 8
  call void @llvm.dbg.declare(metadata i8** %6, metadata !1971, metadata !DIExpression()), !dbg !1972
  store i64 %1, i64* %7, align 8
  call void @llvm.dbg.declare(metadata i64* %7, metadata !1973, metadata !DIExpression()), !dbg !1974
  store i8* %2, i8** %8, align 8
  call void @llvm.dbg.declare(metadata i8** %8, metadata !1975, metadata !DIExpression()), !dbg !1976
  store i32* %3, i32** %9, align 8
  call void @llvm.dbg.declare(metadata i32** %9, metadata !1977, metadata !DIExpression()), !dbg !1978
  store i32* %4, i32** %10, align 8
  call void @llvm.dbg.declare(metadata i32** %10, metadata !1979, metadata !DIExpression()), !dbg !1980
  %11 = load i8*, i8** %6, align 8, !dbg !1981
  %12 = load i64, i64* %7, align 8, !dbg !1982
  %13 = load i8*, i8** %8, align 8, !dbg !1983
  call void @klee_make_symbolic(i8* %11, i64 %12, i8* %13), !dbg !1984
  %14 = load i8*, i8** %6, align 8, !dbg !1985
  %15 = bitcast i8* %14 to i32*, !dbg !1986
  %16 = load i32, i32* %15, align 4, !dbg !1987
  %17 = load i32*, i32** %9, align 8, !dbg !1988
  %18 = load i32*, i32** %10, align 8, !dbg !1989
  %19 = call dereferenceable(4) i32* @_ZSt3minIiERKT_S2_S2_(i32* dereferenceable(4) %17, i32* dereferenceable(4) %18), !dbg !1990
  %20 = load i32, i32* %19, align 4, !dbg !1990
  %21 = icmp sge i32 %16, %20, !dbg !1991
  %22 = zext i1 %21 to i64, !dbg !1987
  call void @klee_assume(i64 %22), !dbg !1992
  %23 = load i8*, i8** %6, align 8, !dbg !1993
  %24 = bitcast i8* %23 to i32*, !dbg !1994
  %25 = load i32, i32* %24, align 4, !dbg !1995
  %26 = load i32*, i32** %9, align 8, !dbg !1996
  %27 = load i32*, i32** %10, align 8, !dbg !1997
  %28 = call dereferenceable(4) i32* @_ZSt3maxIiERKT_S2_S2_(i32* dereferenceable(4) %26, i32* dereferenceable(4) %27), !dbg !1998
  %29 = load i32, i32* %28, align 4, !dbg !1998
  %30 = icmp sle i32 %25, %29, !dbg !1999
  %31 = zext i1 %30 to i64, !dbg !1995
  call void @klee_assume(i64 %31), !dbg !2000
  ret void, !dbg !2001
}

; Function Attrs: noinline norecurse uwtable
define i32 @main() #4 personality i8* bitcast (i32 (...)* @__gxx_personality_v0 to i8*) !dbg !2002 {
  %1 = alloca i32, align 4
  %2 = alloca i32, align 4
  %3 = alloca i32, align 4
  %4 = alloca %"class.std::vector", align 8
  %5 = alloca %"class.std::initializer_list", align 8
  %6 = alloca [2 x i32], align 4
  %7 = alloca %"class.std::allocator.0", align 1
  %8 = alloca i8*
  %9 = alloca i32
  %10 = alloca i32, align 4
  %11 = alloca i32, align 4
  %12 = alloca i8, align 1
  store i32 0, i32* %1, align 4
  call void @llvm.dbg.declare(metadata i32* %2, metadata !2003, metadata !DIExpression()), !dbg !2004
  store i32 0, i32* %2, align 4, !dbg !2004
  call void @llvm.dbg.declare(metadata i32* %3, metadata !2005, metadata !DIExpression()), !dbg !2006
  store i32 0, i32* %3, align 4, !dbg !2006
  call void @llvm.dbg.declare(metadata %"class.std::vector"* %4, metadata !2007, metadata !DIExpression()), !dbg !2008
  %13 = getelementptr inbounds [2 x i32], [2 x i32]* %6, i64 0, i64 0, !dbg !2009
  store i32 0, i32* %13, align 4, !dbg !2009
  %14 = getelementptr inbounds i32, i32* %13, i64 1, !dbg !2009
  store i32 1, i32* %14, align 4, !dbg !2009
  %15 = getelementptr inbounds %"class.std::initializer_list", %"class.std::initializer_list"* %5, i32 0, i32 0, !dbg !2009
  %16 = getelementptr inbounds [2 x i32], [2 x i32]* %6, i64 0, i64 0, !dbg !2009
  store i32* %16, i32** %15, align 8, !dbg !2009
  %17 = getelementptr inbounds %"class.std::initializer_list", %"class.std::initializer_list"* %5, i32 0, i32 1, !dbg !2009
  store i64 2, i64* %17, align 8, !dbg !2009
  call void @_ZNSaIiEC2Ev(%"class.std::allocator.0"* %7) #11, !dbg !2009
  %18 = bitcast %"class.std::initializer_list"* %5 to { i32*, i64 }*, !dbg !2009
  %19 = getelementptr inbounds { i32*, i64 }, { i32*, i64 }* %18, i32 0, i32 0, !dbg !2009
  %20 = load i32*, i32** %19, align 8, !dbg !2009
  %21 = getelementptr inbounds { i32*, i64 }, { i32*, i64 }* %18, i32 0, i32 1, !dbg !2009
  %22 = load i64, i64* %21, align 8, !dbg !2009
  invoke void @_ZNSt6vectorIiSaIiEEC2ESt16initializer_listIiERKS0_(%"class.std::vector"* %4, i32* %20, i64 %22, %"class.std::allocator.0"* dereferenceable(1) %7)
          to label %23 unwind label %63, !dbg !2009

23:                                               ; preds = %0
  call void @_ZNSaIiED2Ev(%"class.std::allocator.0"* %7) #11, !dbg !2009
  %24 = bitcast i32* %3 to i8*, !dbg !2010
  store i32 0, i32* %10, align 4, !dbg !2011
  store i32 1, i32* %11, align 4, !dbg !2012
  invoke void @_Z17make_pse_symbolicIiEvPvmPKcOT_S4_(i8* %24, i64 4, i8* getelementptr inbounds ([20 x i8], [20 x i8]* @.str.7, i64 0, i64 0), i32* dereferenceable(4) %10, i32* dereferenceable(4) %11)
          to label %25 unwind label %67, !dbg !2013

25:                                               ; preds = %23
  call void @llvm.dbg.declare(metadata i8* %12, metadata !2014, metadata !DIExpression()), !dbg !2015
  %26 = load i32, i32* %3, align 4, !dbg !2016
  %27 = icmp ne i32 %26, 0, !dbg !2016
  %28 = invoke zeroext i1 @_Z9montyhallb(i1 zeroext %27)
          to label %29 unwind label %67, !dbg !2017

29:                                               ; preds = %25
  %30 = zext i1 %28 to i8, !dbg !2015
  store i8 %30, i8* %12, align 1, !dbg !2015
  %31 = load i8, i8* %12, align 1, !dbg !2018
  %32 = trunc i8 %31 to i1, !dbg !2018
  %33 = zext i1 %32 to i32, !dbg !2018
  invoke void (i8*, ...) @klee_print_expr(i8* getelementptr inbounds ([7 x i8], [7 x i8]* @.str.8, i64 0, i64 0), i32 %33)
          to label %34 unwind label %67, !dbg !2019

34:                                               ; preds = %29
  %35 = load i32, i32* %3, align 4, !dbg !2020
  %36 = icmp eq i32 %35, 1, !dbg !2021
  br i1 %36, label %37, label %45, !dbg !2022

37:                                               ; preds = %34
  %38 = load i32, i32* %2, align 4, !dbg !2023
  %39 = icmp eq i32 %38, 0, !dbg !2024
  br i1 %39, label %40, label %45, !dbg !2025

40:                                               ; preds = %37
  %41 = load i8, i8* %12, align 1, !dbg !2026
  %42 = trunc i8 %41 to i1, !dbg !2026
  %43 = zext i1 %42 to i32, !dbg !2026
  %44 = icmp eq i32 %43, 1, !dbg !2027
  br i1 %44, label %58, label %45, !dbg !2028

45:                                               ; preds = %40, %37, %34
  %46 = load i32, i32* %3, align 4, !dbg !2029
  %47 = icmp eq i32 %46, 0, !dbg !2030
  br i1 %47, label %48, label %56, !dbg !2031

48:                                               ; preds = %45
  %49 = load i32, i32* %2, align 4, !dbg !2032
  %50 = icmp eq i32 %49, 1, !dbg !2033
  br i1 %50, label %51, label %56, !dbg !2034

51:                                               ; preds = %48
  %52 = load i8, i8* %12, align 1, !dbg !2035
  %53 = trunc i8 %52 to i1, !dbg !2035
  %54 = zext i1 %53 to i32, !dbg !2035
  %55 = icmp eq i32 %54, 1, !dbg !2036
  br label %56

56:                                               ; preds = %51, %48, %45
  %57 = phi i1 [ false, %48 ], [ false, %45 ], [ %55, %51 ], !dbg !2037
  br label %58, !dbg !2028

58:                                               ; preds = %56, %40
  %59 = phi i1 [ true, %40 ], [ %57, %56 ]
  %60 = zext i1 %59 to i64, !dbg !2038
  invoke void @klee_assume(i64 %60)
          to label %61 unwind label %67, !dbg !2039

61:                                               ; preds = %58
  store i32 0, i32* %1, align 4, !dbg !2040
  call void @_ZNSt6vectorIiSaIiEED2Ev(%"class.std::vector"* %4) #11, !dbg !2041
  %62 = load i32, i32* %1, align 4, !dbg !2041
  ret i32 %62, !dbg !2041

63:                                               ; preds = %0
  %64 = landingpad { i8*, i32 }
          cleanup, !dbg !2041
  %65 = extractvalue { i8*, i32 } %64, 0, !dbg !2041
  store i8* %65, i8** %8, align 8, !dbg !2041
  %66 = extractvalue { i8*, i32 } %64, 1, !dbg !2041
  store i32 %66, i32* %9, align 4, !dbg !2041
  call void @_ZNSaIiED2Ev(%"class.std::allocator.0"* %7) #11, !dbg !2009
  br label %71, !dbg !2009

67:                                               ; preds = %58, %29, %25, %23
  %68 = landingpad { i8*, i32 }
          cleanup, !dbg !2041
  %69 = extractvalue { i8*, i32 } %68, 0, !dbg !2041
  store i8* %69, i8** %8, align 8, !dbg !2041
  %70 = extractvalue { i8*, i32 } %68, 1, !dbg !2041
  store i32 %70, i32* %9, align 4, !dbg !2041
  call void @_ZNSt6vectorIiSaIiEED2Ev(%"class.std::vector"* %4) #11, !dbg !2041
  br label %71, !dbg !2041

71:                                               ; preds = %67, %63
  %72 = load i8*, i8** %8, align 8, !dbg !2009
  %73 = load i32, i32* %9, align 4, !dbg !2009
  %74 = insertvalue { i8*, i32 } undef, i8* %72, 0, !dbg !2009
  %75 = insertvalue { i8*, i32 } %74, i32 %73, 1, !dbg !2009
  resume { i8*, i32 } %75, !dbg !2009
}

; Function Attrs: noinline nounwind uwtable
define linkonce_odr void @_ZNSaIiEC2Ev(%"class.std::allocator.0"* %0) unnamed_addr #5 comdat align 2 !dbg !2042 {
  %2 = alloca %"class.std::allocator.0"*, align 8
  store %"class.std::allocator.0"* %0, %"class.std::allocator.0"** %2, align 8
  call void @llvm.dbg.declare(metadata %"class.std::allocator.0"** %2, metadata !2043, metadata !DIExpression()), !dbg !2045
  %3 = load %"class.std::allocator.0"*, %"class.std::allocator.0"** %2, align 8
  %4 = bitcast %"class.std::allocator.0"* %3 to %"class.__gnu_cxx::new_allocator.1"*, !dbg !2046
  call void @_ZN9__gnu_cxx13new_allocatorIiEC2Ev(%"class.__gnu_cxx::new_allocator.1"* %4) #11, !dbg !2047
  ret void, !dbg !2048
}

; Function Attrs: noinline uwtable
define linkonce_odr void @_ZNSt6vectorIiSaIiEEC2ESt16initializer_listIiERKS0_(%"class.std::vector"* %0, i32* %1, i64 %2, %"class.std::allocator.0"* dereferenceable(1) %3) unnamed_addr #0 comdat align 2 personality i8* bitcast (i32 (...)* @__gxx_personality_v0 to i8*) !dbg !2049 {
  %5 = alloca %"class.std::initializer_list", align 8
  %6 = alloca %"class.std::vector"*, align 8
  %7 = alloca %"class.std::allocator.0"*, align 8
  %8 = alloca %"struct.std::forward_iterator_tag", align 1
  %9 = alloca %"struct.std::random_access_iterator_tag", align 1
  %10 = alloca i8*
  %11 = alloca i32
  %12 = bitcast %"class.std::initializer_list"* %5 to { i32*, i64 }*
  %13 = getelementptr inbounds { i32*, i64 }, { i32*, i64 }* %12, i32 0, i32 0
  store i32* %1, i32** %13, align 8
  %14 = getelementptr inbounds { i32*, i64 }, { i32*, i64 }* %12, i32 0, i32 1
  store i64 %2, i64* %14, align 8
  store %"class.std::vector"* %0, %"class.std::vector"** %6, align 8
  call void @llvm.dbg.declare(metadata %"class.std::vector"** %6, metadata !2050, metadata !DIExpression()), !dbg !2052
  call void @llvm.dbg.declare(metadata %"class.std::initializer_list"* %5, metadata !2053, metadata !DIExpression()), !dbg !2054
  store %"class.std::allocator.0"* %3, %"class.std::allocator.0"** %7, align 8
  call void @llvm.dbg.declare(metadata %"class.std::allocator.0"** %7, metadata !2055, metadata !DIExpression()), !dbg !2056
  %15 = load %"class.std::vector"*, %"class.std::vector"** %6, align 8
  %16 = bitcast %"class.std::vector"* %15 to %"struct.std::_Vector_base"*, !dbg !2057
  %17 = load %"class.std::allocator.0"*, %"class.std::allocator.0"** %7, align 8, !dbg !2058
  call void @_ZNSt12_Vector_baseIiSaIiEEC2ERKS0_(%"struct.std::_Vector_base"* %16, %"class.std::allocator.0"* dereferenceable(1) %17) #11, !dbg !2059
  %18 = call i32* @_ZNKSt16initializer_listIiE5beginEv(%"class.std::initializer_list"* %5) #11, !dbg !2060
  %19 = call i32* @_ZNKSt16initializer_listIiE3endEv(%"class.std::initializer_list"* %5) #11, !dbg !2062
  %20 = bitcast %"struct.std::random_access_iterator_tag"* %9 to %"struct.std::forward_iterator_tag"*, !dbg !2063
  invoke void @_ZNSt6vectorIiSaIiEE19_M_range_initializeIPKiEEvT_S5_St20forward_iterator_tag(%"class.std::vector"* %15, i32* %18, i32* %19)
          to label %21 unwind label %22, !dbg !2064

21:                                               ; preds = %4
  ret void, !dbg !2065

22:                                               ; preds = %4
  %23 = landingpad { i8*, i32 }
          cleanup, !dbg !2066
  %24 = extractvalue { i8*, i32 } %23, 0, !dbg !2066
  store i8* %24, i8** %10, align 8, !dbg !2066
  %25 = extractvalue { i8*, i32 } %23, 1, !dbg !2066
  store i32 %25, i32* %11, align 4, !dbg !2066
  %26 = bitcast %"class.std::vector"* %15 to %"struct.std::_Vector_base"*, !dbg !2066
  call void @_ZNSt12_Vector_baseIiSaIiEED2Ev(%"struct.std::_Vector_base"* %26) #11, !dbg !2066
  br label %27, !dbg !2066

27:                                               ; preds = %22
  %28 = load i8*, i8** %10, align 8, !dbg !2066
  %29 = load i32, i32* %11, align 4, !dbg !2066
  %30 = insertvalue { i8*, i32 } undef, i8* %28, 0, !dbg !2066
  %31 = insertvalue { i8*, i32 } %30, i32 %29, 1, !dbg !2066
  resume { i8*, i32 } %31, !dbg !2066
}

; Function Attrs: noinline nounwind uwtable
define linkonce_odr void @_ZNSaIiED2Ev(%"class.std::allocator.0"* %0) unnamed_addr #5 comdat align 2 !dbg !2067 {
  %2 = alloca %"class.std::allocator.0"*, align 8
  store %"class.std::allocator.0"* %0, %"class.std::allocator.0"** %2, align 8
  call void @llvm.dbg.declare(metadata %"class.std::allocator.0"** %2, metadata !2068, metadata !DIExpression()), !dbg !2069
  %3 = load %"class.std::allocator.0"*, %"class.std::allocator.0"** %2, align 8
  %4 = bitcast %"class.std::allocator.0"* %3 to %"class.__gnu_cxx::new_allocator.1"*, !dbg !2070
  call void @_ZN9__gnu_cxx13new_allocatorIiED2Ev(%"class.__gnu_cxx::new_allocator.1"* %4) #11, !dbg !2070
  ret void, !dbg !2072
}

declare void @klee_print_expr(i8*, ...) #3

declare void @klee_assume(i64) #3

; Function Attrs: noinline nounwind uwtable
define linkonce_odr void @_ZNSt6vectorIiSaIiEED2Ev(%"class.std::vector"* %0) unnamed_addr #5 comdat align 2 personality i8* bitcast (i32 (...)* @__gxx_personality_v0 to i8*) !dbg !2073 {
  %2 = alloca %"class.std::vector"*, align 8
  %3 = alloca i8*
  %4 = alloca i32
  store %"class.std::vector"* %0, %"class.std::vector"** %2, align 8
  call void @llvm.dbg.declare(metadata %"class.std::vector"** %2, metadata !2074, metadata !DIExpression()), !dbg !2075
  %5 = load %"class.std::vector"*, %"class.std::vector"** %2, align 8
  %6 = bitcast %"class.std::vector"* %5 to %"struct.std::_Vector_base"*, !dbg !2076
  %7 = getelementptr inbounds %"struct.std::_Vector_base", %"struct.std::_Vector_base"* %6, i32 0, i32 0, !dbg !2076
  %8 = bitcast %"struct.std::_Vector_base<int, std::allocator<int> >::_Vector_impl"* %7 to %"struct.std::_Vector_base<int, std::allocator<int> >::_Vector_impl_data"*, !dbg !2078
  %9 = getelementptr inbounds %"struct.std::_Vector_base<int, std::allocator<int> >::_Vector_impl_data", %"struct.std::_Vector_base<int, std::allocator<int> >::_Vector_impl_data"* %8, i32 0, i32 0, !dbg !2079
  %10 = load i32*, i32** %9, align 8, !dbg !2079
  %11 = bitcast %"class.std::vector"* %5 to %"struct.std::_Vector_base"*, !dbg !2080
  %12 = getelementptr inbounds %"struct.std::_Vector_base", %"struct.std::_Vector_base"* %11, i32 0, i32 0, !dbg !2080
  %13 = bitcast %"struct.std::_Vector_base<int, std::allocator<int> >::_Vector_impl"* %12 to %"struct.std::_Vector_base<int, std::allocator<int> >::_Vector_impl_data"*, !dbg !2081
  %14 = getelementptr inbounds %"struct.std::_Vector_base<int, std::allocator<int> >::_Vector_impl_data", %"struct.std::_Vector_base<int, std::allocator<int> >::_Vector_impl_data"* %13, i32 0, i32 1, !dbg !2082
  %15 = load i32*, i32** %14, align 8, !dbg !2082
  %16 = bitcast %"class.std::vector"* %5 to %"struct.std::_Vector_base"*, !dbg !2083
  %17 = call dereferenceable(1) %"class.std::allocator.0"* @_ZNSt12_Vector_baseIiSaIiEE19_M_get_Tp_allocatorEv(%"struct.std::_Vector_base"* %16) #11, !dbg !2083
  invoke void @_ZSt8_DestroyIPiiEvT_S1_RSaIT0_E(i32* %10, i32* %15, %"class.std::allocator.0"* dereferenceable(1) %17)
          to label %18 unwind label %20, !dbg !2084

18:                                               ; preds = %1
  %19 = bitcast %"class.std::vector"* %5 to %"struct.std::_Vector_base"*, !dbg !2085
  call void @_ZNSt12_Vector_baseIiSaIiEED2Ev(%"struct.std::_Vector_base"* %19) #11, !dbg !2085
  ret void, !dbg !2086

20:                                               ; preds = %1
  %21 = landingpad { i8*, i32 }
          catch i8* null, !dbg !2085
  %22 = extractvalue { i8*, i32 } %21, 0, !dbg !2085
  store i8* %22, i8** %3, align 8, !dbg !2085
  %23 = extractvalue { i8*, i32 } %21, 1, !dbg !2085
  store i32 %23, i32* %4, align 4, !dbg !2085
  %24 = bitcast %"class.std::vector"* %5 to %"struct.std::_Vector_base"*, !dbg !2085
  call void @_ZNSt12_Vector_baseIiSaIiEED2Ev(%"struct.std::_Vector_base"* %24) #11, !dbg !2085
  br label %25, !dbg !2085

25:                                               ; preds = %20
  %26 = load i8*, i8** %3, align 8, !dbg !2085
  call void @__clang_call_terminate(i8* %26) #12, !dbg !2085
  unreachable, !dbg !2085
}

; Function Attrs: noinline nounwind uwtable
define linkonce_odr i32 @_ZNSt8__detail14__to_chars_lenIjEEjT_i(i32 %0, i32 %1) #5 comdat !dbg !2087 {
  %3 = alloca i32, align 4
  %4 = alloca i32, align 4
  %5 = alloca i32, align 4
  %6 = alloca i32, align 4
  %7 = alloca i32, align 4
  %8 = alloca i32, align 4
  %9 = alloca i64, align 8
  store i32 %0, i32* %4, align 4
  call void @llvm.dbg.declare(metadata i32* %4, metadata !2090, metadata !DIExpression()), !dbg !2091
  store i32 %1, i32* %5, align 4
  call void @llvm.dbg.declare(metadata i32* %5, metadata !2092, metadata !DIExpression()), !dbg !2093
  call void @llvm.dbg.declare(metadata i32* %6, metadata !2094, metadata !DIExpression()), !dbg !2095
  store i32 1, i32* %6, align 4, !dbg !2095
  call void @llvm.dbg.declare(metadata i32* %7, metadata !2096, metadata !DIExpression()), !dbg !2097
  %10 = load i32, i32* %5, align 4, !dbg !2098
  %11 = load i32, i32* %5, align 4, !dbg !2099
  %12 = mul nsw i32 %10, %11, !dbg !2100
  store i32 %12, i32* %7, align 4, !dbg !2097
  call void @llvm.dbg.declare(metadata i32* %8, metadata !2101, metadata !DIExpression()), !dbg !2102
  %13 = load i32, i32* %7, align 4, !dbg !2103
  %14 = load i32, i32* %5, align 4, !dbg !2104
  %15 = mul i32 %13, %14, !dbg !2105
  store i32 %15, i32* %8, align 4, !dbg !2102
  call void @llvm.dbg.declare(metadata i64* %9, metadata !2106, metadata !DIExpression()), !dbg !2108
  %16 = load i32, i32* %8, align 4, !dbg !2109
  %17 = load i32, i32* %5, align 4, !dbg !2110
  %18 = mul i32 %16, %17, !dbg !2111
  %19 = zext i32 %18 to i64, !dbg !2109
  store i64 %19, i64* %9, align 8, !dbg !2108
  br label %20, !dbg !2112

20:                                               ; preds = %48, %2
  %21 = load i32, i32* %4, align 4, !dbg !2113
  %22 = load i32, i32* %5, align 4, !dbg !2118
  %23 = icmp ult i32 %21, %22, !dbg !2119
  br i1 %23, label %24, label %26, !dbg !2120

24:                                               ; preds = %20
  %25 = load i32, i32* %6, align 4, !dbg !2121
  store i32 %25, i32* %3, align 4, !dbg !2122
  br label %56, !dbg !2122

26:                                               ; preds = %20
  %27 = load i32, i32* %4, align 4, !dbg !2123
  %28 = load i32, i32* %7, align 4, !dbg !2125
  %29 = icmp ult i32 %27, %28, !dbg !2126
  br i1 %29, label %30, label %33, !dbg !2127

30:                                               ; preds = %26
  %31 = load i32, i32* %6, align 4, !dbg !2128
  %32 = add i32 %31, 1, !dbg !2129
  store i32 %32, i32* %3, align 4, !dbg !2130
  br label %56, !dbg !2130

33:                                               ; preds = %26
  %34 = load i32, i32* %4, align 4, !dbg !2131
  %35 = load i32, i32* %8, align 4, !dbg !2133
  %36 = icmp ult i32 %34, %35, !dbg !2134
  br i1 %36, label %37, label %40, !dbg !2135

37:                                               ; preds = %33
  %38 = load i32, i32* %6, align 4, !dbg !2136
  %39 = add i32 %38, 2, !dbg !2137
  store i32 %39, i32* %3, align 4, !dbg !2138
  br label %56, !dbg !2138

40:                                               ; preds = %33
  %41 = load i32, i32* %4, align 4, !dbg !2139
  %42 = zext i32 %41 to i64, !dbg !2139
  %43 = load i64, i64* %9, align 8, !dbg !2141
  %44 = icmp ult i64 %42, %43, !dbg !2142
  br i1 %44, label %45, label %48, !dbg !2143

45:                                               ; preds = %40
  %46 = load i32, i32* %6, align 4, !dbg !2144
  %47 = add i32 %46, 3, !dbg !2145
  store i32 %47, i32* %3, align 4, !dbg !2146
  br label %56, !dbg !2146

48:                                               ; preds = %40
  %49 = load i64, i64* %9, align 8, !dbg !2147
  %50 = load i32, i32* %4, align 4, !dbg !2148
  %51 = zext i32 %50 to i64, !dbg !2148
  %52 = udiv i64 %51, %49, !dbg !2148
  %53 = trunc i64 %52 to i32, !dbg !2148
  store i32 %53, i32* %4, align 4, !dbg !2148
  %54 = load i32, i32* %6, align 4, !dbg !2149
  %55 = add i32 %54, 4, !dbg !2149
  store i32 %55, i32* %6, align 4, !dbg !2149
  br label %20, !dbg !2150, !llvm.loop !2151

56:                                               ; preds = %45, %37, %30, %24
  %57 = load i32, i32* %3, align 4, !dbg !2154
  ret i32 %57, !dbg !2154
}

; Function Attrs: noinline uwtable
define linkonce_odr void @_ZNSt7__cxx1112basic_stringIcSt11char_traitsIcESaIcEEC2IS3_EEmcRKS3_(%"class.std::__cxx11::basic_string"* %0, i64 %1, i8 signext %2, %"class.std::allocator"* dereferenceable(1) %3) unnamed_addr #0 comdat align 2 personality i8* bitcast (i32 (...)* @__gxx_personality_v0 to i8*) !dbg !2155 {
  %5 = alloca %"class.std::__cxx11::basic_string"*, align 8
  %6 = alloca i64, align 8
  %7 = alloca i8, align 1
  %8 = alloca %"class.std::allocator"*, align 8
  %9 = alloca i8*
  %10 = alloca i32
  store %"class.std::__cxx11::basic_string"* %0, %"class.std::__cxx11::basic_string"** %5, align 8
  call void @llvm.dbg.declare(metadata %"class.std::__cxx11::basic_string"** %5, metadata !2159, metadata !DIExpression()), !dbg !2160
  store i64 %1, i64* %6, align 8
  call void @llvm.dbg.declare(metadata i64* %6, metadata !2161, metadata !DIExpression()), !dbg !2162
  store i8 %2, i8* %7, align 1
  call void @llvm.dbg.declare(metadata i8* %7, metadata !2163, metadata !DIExpression()), !dbg !2164
  store %"class.std::allocator"* %3, %"class.std::allocator"** %8, align 8
  call void @llvm.dbg.declare(metadata %"class.std::allocator"** %8, metadata !2165, metadata !DIExpression()), !dbg !2166
  %11 = load %"class.std::__cxx11::basic_string"*, %"class.std::__cxx11::basic_string"** %5, align 8
  %12 = getelementptr inbounds %"class.std::__cxx11::basic_string", %"class.std::__cxx11::basic_string"* %11, i32 0, i32 0, !dbg !2167
  %13 = call i8* @_ZNSt7__cxx1112basic_stringIcSt11char_traitsIcESaIcEE13_M_local_dataEv(%"class.std::__cxx11::basic_string"* %11), !dbg !2168
  %14 = load %"class.std::allocator"*, %"class.std::allocator"** %8, align 8, !dbg !2169
  call void @_ZNSt7__cxx1112basic_stringIcSt11char_traitsIcESaIcEE12_Alloc_hiderC1EPcRKS3_(%"struct.std::__cxx11::basic_string<char, std::char_traits<char>, std::allocator<char> >::_Alloc_hider"* %12, i8* %13, %"class.std::allocator"* dereferenceable(1) %14), !dbg !2167
  %15 = load i64, i64* %6, align 8, !dbg !2170
  %16 = load i8, i8* %7, align 1, !dbg !2172
  invoke void @_ZNSt7__cxx1112basic_stringIcSt11char_traitsIcESaIcEE12_M_constructEmc(%"class.std::__cxx11::basic_string"* %11, i64 %15, i8 signext %16)
          to label %17 unwind label %18, !dbg !2173

17:                                               ; preds = %4
  ret void, !dbg !2174

18:                                               ; preds = %4
  %19 = landingpad { i8*, i32 }
          cleanup, !dbg !2175
  %20 = extractvalue { i8*, i32 } %19, 0, !dbg !2175
  store i8* %20, i8** %9, align 8, !dbg !2175
  %21 = extractvalue { i8*, i32 } %19, 1, !dbg !2175
  store i32 %21, i32* %10, align 4, !dbg !2175
  call void @_ZNSt7__cxx1112basic_stringIcSt11char_traitsIcESaIcEE12_Alloc_hiderD2Ev(%"struct.std::__cxx11::basic_string<char, std::char_traits<char>, std::allocator<char> >::_Alloc_hider"* %12) #11, !dbg !2175
  br label %22, !dbg !2175

22:                                               ; preds = %18
  %23 = load i8*, i8** %9, align 8, !dbg !2175
  %24 = load i32, i32* %10, align 4, !dbg !2175
  %25 = insertvalue { i8*, i32 } undef, i8* %23, 0, !dbg !2175
  %26 = insertvalue { i8*, i32 } %25, i32 %24, 1, !dbg !2175
  resume { i8*, i32 } %26, !dbg !2175
}

; Function Attrs: noinline nounwind uwtable
define linkonce_odr void @_ZNSt8__detail18__to_chars_10_implIjEEvPcjT_(i8* %0, i32 %1, i32 %2) #5 comdat !dbg !2 {
  %4 = alloca i8*, align 8
  %5 = alloca i32, align 4
  %6 = alloca i32, align 4
  %7 = alloca i32, align 4
  %8 = alloca i32, align 4
  %9 = alloca i32, align 4
  store i8* %0, i8** %4, align 8
  call void @llvm.dbg.declare(metadata i8** %4, metadata !2176, metadata !DIExpression()), !dbg !2177
  store i32 %1, i32* %5, align 4
  call void @llvm.dbg.declare(metadata i32* %5, metadata !2178, metadata !DIExpression()), !dbg !2179
  store i32 %2, i32* %6, align 4
  call void @llvm.dbg.declare(metadata i32* %6, metadata !2180, metadata !DIExpression()), !dbg !2181
  call void @llvm.dbg.declare(metadata i32* %7, metadata !2182, metadata !DIExpression()), !dbg !2183
  %10 = load i32, i32* %5, align 4, !dbg !2184
  %11 = sub i32 %10, 1, !dbg !2185
  store i32 %11, i32* %7, align 4, !dbg !2183
  br label %12, !dbg !2186

12:                                               ; preds = %15, %3
  %13 = load i32, i32* %6, align 4, !dbg !2187
  %14 = icmp uge i32 %13, 100, !dbg !2188
  br i1 %14, label %15, label %41, !dbg !2186

15:                                               ; preds = %12
  call void @llvm.dbg.declare(metadata i32* %8, metadata !2189, metadata !DIExpression()), !dbg !2191
  %16 = load i32, i32* %6, align 4, !dbg !2192
  %17 = urem i32 %16, 100, !dbg !2193
  %18 = mul i32 %17, 2, !dbg !2194
  store i32 %18, i32* %8, align 4, !dbg !2191
  %19 = load i32, i32* %6, align 4, !dbg !2195
  %20 = udiv i32 %19, 100, !dbg !2195
  store i32 %20, i32* %6, align 4, !dbg !2195
  %21 = load i32, i32* %8, align 4, !dbg !2196
  %22 = add i32 %21, 1, !dbg !2197
  %23 = zext i32 %22 to i64, !dbg !2198
  %24 = getelementptr inbounds [201 x i8], [201 x i8]* @_ZZNSt8__detail18__to_chars_10_implIjEEvPcjT_E8__digits, i64 0, i64 %23, !dbg !2198
  %25 = load i8, i8* %24, align 1, !dbg !2198
  %26 = load i8*, i8** %4, align 8, !dbg !2199
  %27 = load i32, i32* %7, align 4, !dbg !2200
  %28 = zext i32 %27 to i64, !dbg !2199
  %29 = getelementptr inbounds i8, i8* %26, i64 %28, !dbg !2199
  store i8 %25, i8* %29, align 1, !dbg !2201
  %30 = load i32, i32* %8, align 4, !dbg !2202
  %31 = zext i32 %30 to i64, !dbg !2203
  %32 = getelementptr inbounds [201 x i8], [201 x i8]* @_ZZNSt8__detail18__to_chars_10_implIjEEvPcjT_E8__digits, i64 0, i64 %31, !dbg !2203
  %33 = load i8, i8* %32, align 1, !dbg !2203
  %34 = load i8*, i8** %4, align 8, !dbg !2204
  %35 = load i32, i32* %7, align 4, !dbg !2205
  %36 = sub i32 %35, 1, !dbg !2206
  %37 = zext i32 %36 to i64, !dbg !2204
  %38 = getelementptr inbounds i8, i8* %34, i64 %37, !dbg !2204
  store i8 %33, i8* %38, align 1, !dbg !2207
  %39 = load i32, i32* %7, align 4, !dbg !2208
  %40 = sub i32 %39, 2, !dbg !2208
  store i32 %40, i32* %7, align 4, !dbg !2208
  br label %12, !dbg !2186, !llvm.loop !2209

41:                                               ; preds = %12
  %42 = load i32, i32* %6, align 4, !dbg !2211
  %43 = icmp uge i32 %42, 10, !dbg !2213
  br i1 %43, label %44, label %60, !dbg !2214

44:                                               ; preds = %41
  call void @llvm.dbg.declare(metadata i32* %9, metadata !2215, metadata !DIExpression()), !dbg !2217
  %45 = load i32, i32* %6, align 4, !dbg !2218
  %46 = mul i32 %45, 2, !dbg !2219
  store i32 %46, i32* %9, align 4, !dbg !2217
  %47 = load i32, i32* %9, align 4, !dbg !2220
  %48 = add i32 %47, 1, !dbg !2221
  %49 = zext i32 %48 to i64, !dbg !2222
  %50 = getelementptr inbounds [201 x i8], [201 x i8]* @_ZZNSt8__detail18__to_chars_10_implIjEEvPcjT_E8__digits, i64 0, i64 %49, !dbg !2222
  %51 = load i8, i8* %50, align 1, !dbg !2222
  %52 = load i8*, i8** %4, align 8, !dbg !2223
  %53 = getelementptr inbounds i8, i8* %52, i64 1, !dbg !2223
  store i8 %51, i8* %53, align 1, !dbg !2224
  %54 = load i32, i32* %9, align 4, !dbg !2225
  %55 = zext i32 %54 to i64, !dbg !2226
  %56 = getelementptr inbounds [201 x i8], [201 x i8]* @_ZZNSt8__detail18__to_chars_10_implIjEEvPcjT_E8__digits, i64 0, i64 %55, !dbg !2226
  %57 = load i8, i8* %56, align 1, !dbg !2226
  %58 = load i8*, i8** %4, align 8, !dbg !2227
  %59 = getelementptr inbounds i8, i8* %58, i64 0, !dbg !2227
  store i8 %57, i8* %59, align 1, !dbg !2228
  br label %66, !dbg !2229

60:                                               ; preds = %41
  %61 = load i32, i32* %6, align 4, !dbg !2230
  %62 = add i32 48, %61, !dbg !2231
  %63 = trunc i32 %62 to i8, !dbg !2232
  %64 = load i8*, i8** %4, align 8, !dbg !2233
  %65 = getelementptr inbounds i8, i8* %64, i64 0, !dbg !2233
  store i8 %63, i8* %65, align 1, !dbg !2234
  br label %66

66:                                               ; preds = %60, %44
  ret void, !dbg !2235
}

declare dereferenceable(1) i8* @_ZNSt7__cxx1112basic_stringIcSt11char_traitsIcESaIcEEixEm(%"class.std::__cxx11::basic_string"*, i64) #3

declare i8* @_ZNSt7__cxx1112basic_stringIcSt11char_traitsIcESaIcEE13_M_local_dataEv(%"class.std::__cxx11::basic_string"*) #3

declare void @_ZNSt7__cxx1112basic_stringIcSt11char_traitsIcESaIcEE12_Alloc_hiderC1EPcRKS3_(%"struct.std::__cxx11::basic_string<char, std::char_traits<char>, std::allocator<char> >::_Alloc_hider"*, i8*, %"class.std::allocator"* dereferenceable(1)) unnamed_addr #3

declare void @_ZNSt7__cxx1112basic_stringIcSt11char_traitsIcESaIcEE12_M_constructEmc(%"class.std::__cxx11::basic_string"*, i64, i8 signext) #3

; Function Attrs: noinline nounwind uwtable
define linkonce_odr void @_ZNSt7__cxx1112basic_stringIcSt11char_traitsIcESaIcEE12_Alloc_hiderD2Ev(%"struct.std::__cxx11::basic_string<char, std::char_traits<char>, std::allocator<char> >::_Alloc_hider"* %0) unnamed_addr #5 comdat align 2 !dbg !2236 {
  %2 = alloca %"struct.std::__cxx11::basic_string<char, std::char_traits<char>, std::allocator<char> >::_Alloc_hider"*, align 8
  store %"struct.std::__cxx11::basic_string<char, std::char_traits<char>, std::allocator<char> >::_Alloc_hider"* %0, %"struct.std::__cxx11::basic_string<char, std::char_traits<char>, std::allocator<char> >::_Alloc_hider"** %2, align 8
  call void @llvm.dbg.declare(metadata %"struct.std::__cxx11::basic_string<char, std::char_traits<char>, std::allocator<char> >::_Alloc_hider"** %2, metadata !2261, metadata !DIExpression()), !dbg !2263
  %3 = load %"struct.std::__cxx11::basic_string<char, std::char_traits<char>, std::allocator<char> >::_Alloc_hider"*, %"struct.std::__cxx11::basic_string<char, std::char_traits<char>, std::allocator<char> >::_Alloc_hider"** %2, align 8
  %4 = bitcast %"struct.std::__cxx11::basic_string<char, std::char_traits<char>, std::allocator<char> >::_Alloc_hider"* %3 to %"class.std::allocator"*, !dbg !2264
  call void @_ZNSaIcED2Ev(%"class.std::allocator"* %4) #11, !dbg !2264
  ret void, !dbg !2266
}

; Function Attrs: nounwind
declare void @_ZNSaIcED2Ev(%"class.std::allocator"*) unnamed_addr #2

; Function Attrs: noinline uwtable
define linkonce_odr void @_ZNSt7__cxx1112basic_stringIcSt11char_traitsIcESaIcEE12_M_constructIPKcEEvT_S8_(%"class.std::__cxx11::basic_string"* %0, i8* %1, i8* %2) #0 comdat align 2 !dbg !2267 {
  %4 = alloca %"class.std::__cxx11::basic_string"*, align 8
  %5 = alloca i8*, align 8
  %6 = alloca i8*, align 8
  %7 = alloca %"struct.std::__false_type", align 1
  store %"class.std::__cxx11::basic_string"* %0, %"class.std::__cxx11::basic_string"** %4, align 8
  call void @llvm.dbg.declare(metadata %"class.std::__cxx11::basic_string"** %4, metadata !2273, metadata !DIExpression()), !dbg !2274
  store i8* %1, i8** %5, align 8
  call void @llvm.dbg.declare(metadata i8** %5, metadata !2275, metadata !DIExpression()), !dbg !2276
  store i8* %2, i8** %6, align 8
  call void @llvm.dbg.declare(metadata i8** %6, metadata !2277, metadata !DIExpression()), !dbg !2278
  %8 = load %"class.std::__cxx11::basic_string"*, %"class.std::__cxx11::basic_string"** %4, align 8
  %9 = load i8*, i8** %5, align 8, !dbg !2279
  %10 = load i8*, i8** %6, align 8, !dbg !2280
  call void @_ZNSt7__cxx1112basic_stringIcSt11char_traitsIcESaIcEE16_M_construct_auxIPKcEEvT_S8_St12__false_type(%"class.std::__cxx11::basic_string"* %8, i8* %9, i8* %10), !dbg !2281
  ret void, !dbg !2282
}

; Function Attrs: noinline uwtable
define linkonce_odr i64 @_ZNSt11char_traitsIcE6lengthEPKc(i8* %0) #0 comdat align 2 !dbg !2283 {
  %2 = alloca i8*, align 8
  call void @llvm.dbg.declare(metadata i8** %2, metadata !2336, metadata !DIExpression()), !dbg !2340
  %3 = alloca i64, align 8
  %4 = alloca i8*, align 8
  store i8* %0, i8** %4, align 8
  call void @llvm.dbg.declare(metadata i8** %4, metadata !2343, metadata !DIExpression()), !dbg !2344
  %5 = load i8*, i8** %4, align 8, !dbg !2345
  store i8* %5, i8** %2, align 8
  br i1 false, label %6, label %9, !dbg !2346

6:                                                ; preds = %1
  %7 = load i8*, i8** %4, align 8, !dbg !2347
  %8 = call i64 @_ZN9__gnu_cxx11char_traitsIcE6lengthEPKc(i8* %7), !dbg !2348
  store i64 %8, i64* %3, align 8, !dbg !2349
  br label %12, !dbg !2349

9:                                                ; preds = %1
  %10 = load i8*, i8** %4, align 8, !dbg !2350
  %11 = call i64 @strlen(i8* %10) #11, !dbg !2351
  store i64 %11, i64* %3, align 8, !dbg !2352
  br label %12, !dbg !2352

12:                                               ; preds = %9, %6
  %13 = load i64, i64* %3, align 8, !dbg !2353
  ret i64 %13, !dbg !2353
}

; Function Attrs: noinline uwtable
define linkonce_odr void @_ZNSt7__cxx1112basic_stringIcSt11char_traitsIcESaIcEE16_M_construct_auxIPKcEEvT_S8_St12__false_type(%"class.std::__cxx11::basic_string"* %0, i8* %1, i8* %2) #0 comdat align 2 !dbg !2354 {
  %4 = alloca %"struct.std::__false_type", align 1
  %5 = alloca %"class.std::__cxx11::basic_string"*, align 8
  %6 = alloca i8*, align 8
  %7 = alloca i8*, align 8
  %8 = alloca %"struct.std::forward_iterator_tag", align 1
  %9 = alloca %"struct.std::random_access_iterator_tag", align 1
  store %"class.std::__cxx11::basic_string"* %0, %"class.std::__cxx11::basic_string"** %5, align 8
  call void @llvm.dbg.declare(metadata %"class.std::__cxx11::basic_string"** %5, metadata !2360, metadata !DIExpression()), !dbg !2361
  store i8* %1, i8** %6, align 8
  call void @llvm.dbg.declare(metadata i8** %6, metadata !2362, metadata !DIExpression()), !dbg !2363
  store i8* %2, i8** %7, align 8
  call void @llvm.dbg.declare(metadata i8** %7, metadata !2364, metadata !DIExpression()), !dbg !2365
  call void @llvm.dbg.declare(metadata %"struct.std::__false_type"* %4, metadata !2366, metadata !DIExpression()), !dbg !2367
  %10 = load %"class.std::__cxx11::basic_string"*, %"class.std::__cxx11::basic_string"** %5, align 8
  %11 = load i8*, i8** %6, align 8, !dbg !2368
  %12 = load i8*, i8** %7, align 8, !dbg !2369
  %13 = bitcast %"struct.std::random_access_iterator_tag"* %9 to %"struct.std::forward_iterator_tag"*, !dbg !2370
  call void @_ZNSt7__cxx1112basic_stringIcSt11char_traitsIcESaIcEE12_M_constructIPKcEEvT_S8_St20forward_iterator_tag(%"class.std::__cxx11::basic_string"* %10, i8* %11, i8* %12), !dbg !2371
  ret void, !dbg !2372
}

; Function Attrs: noinline uwtable
define linkonce_odr void @_ZNSt7__cxx1112basic_stringIcSt11char_traitsIcESaIcEE12_M_constructIPKcEEvT_S8_St20forward_iterator_tag(%"class.std::__cxx11::basic_string"* %0, i8* %1, i8* %2) #0 comdat align 2 personality i8* bitcast (i32 (...)* @__gxx_personality_v0 to i8*) !dbg !2373 {
  %4 = alloca %"struct.std::forward_iterator_tag", align 1
  %5 = alloca %"class.std::__cxx11::basic_string"*, align 8
  %6 = alloca i8*, align 8
  %7 = alloca i8*, align 8
  %8 = alloca i64, align 8
  %9 = alloca i8*
  %10 = alloca i32
  store %"class.std::__cxx11::basic_string"* %0, %"class.std::__cxx11::basic_string"** %5, align 8
  call void @llvm.dbg.declare(metadata %"class.std::__cxx11::basic_string"** %5, metadata !2384, metadata !DIExpression()), !dbg !2385
  store i8* %1, i8** %6, align 8
  call void @llvm.dbg.declare(metadata i8** %6, metadata !2386, metadata !DIExpression()), !dbg !2387
  store i8* %2, i8** %7, align 8
  call void @llvm.dbg.declare(metadata i8** %7, metadata !2388, metadata !DIExpression()), !dbg !2389
  call void @llvm.dbg.declare(metadata %"struct.std::forward_iterator_tag"* %4, metadata !2390, metadata !DIExpression()), !dbg !2391
  %11 = load %"class.std::__cxx11::basic_string"*, %"class.std::__cxx11::basic_string"** %5, align 8
  %12 = load i8*, i8** %6, align 8, !dbg !2392
  %13 = call zeroext i1 @_ZN9__gnu_cxx17__is_null_pointerIKcEEbPT_(i8* %12), !dbg !2394
  br i1 %13, label %14, label %19, !dbg !2395

14:                                               ; preds = %3
  %15 = load i8*, i8** %6, align 8, !dbg !2396
  %16 = load i8*, i8** %7, align 8, !dbg !2397
  %17 = icmp ne i8* %15, %16, !dbg !2398
  br i1 %17, label %18, label %19, !dbg !2399

18:                                               ; preds = %14
  call void @_ZSt19__throw_logic_errorPKc(i8* getelementptr inbounds ([42 x i8], [42 x i8]* @.str.9, i64 0, i64 0)) #13, !dbg !2400
  unreachable, !dbg !2400

19:                                               ; preds = %14, %3
  call void @llvm.dbg.declare(metadata i64* %8, metadata !2401, metadata !DIExpression()), !dbg !2402
  %20 = load i8*, i8** %6, align 8, !dbg !2403
  %21 = load i8*, i8** %7, align 8, !dbg !2404
  %22 = call i64 @_ZSt8distanceIPKcENSt15iterator_traitsIT_E15difference_typeES3_S3_(i8* %20, i8* %21), !dbg !2405
  store i64 %22, i64* %8, align 8, !dbg !2402
  %23 = load i64, i64* %8, align 8, !dbg !2406
  %24 = icmp ugt i64 %23, 15, !dbg !2408
  br i1 %24, label %25, label %28, !dbg !2409

25:                                               ; preds = %19
  %26 = call i8* @_ZNSt7__cxx1112basic_stringIcSt11char_traitsIcESaIcEE9_M_createERmm(%"class.std::__cxx11::basic_string"* %11, i64* dereferenceable(8) %8, i64 0), !dbg !2410
  call void @_ZNSt7__cxx1112basic_stringIcSt11char_traitsIcESaIcEE7_M_dataEPc(%"class.std::__cxx11::basic_string"* %11, i8* %26), !dbg !2412
  %27 = load i64, i64* %8, align 8, !dbg !2413
  call void @_ZNSt7__cxx1112basic_stringIcSt11char_traitsIcESaIcEE11_M_capacityEm(%"class.std::__cxx11::basic_string"* %11, i64 %27), !dbg !2414
  br label %28, !dbg !2415

28:                                               ; preds = %25, %19
  %29 = invoke i8* @_ZNKSt7__cxx1112basic_stringIcSt11char_traitsIcESaIcEE7_M_dataEv(%"class.std::__cxx11::basic_string"* %11)
          to label %30 unwind label %33, !dbg !2416

30:                                               ; preds = %28
  %31 = load i8*, i8** %6, align 8, !dbg !2418
  %32 = load i8*, i8** %7, align 8, !dbg !2419
  call void @_ZNSt7__cxx1112basic_stringIcSt11char_traitsIcESaIcEE13_S_copy_charsEPcPKcS7_(i8* %29, i8* %31, i8* %32) #11, !dbg !2420
  br label %46, !dbg !2421

33:                                               ; preds = %28
  %34 = landingpad { i8*, i32 }
          catch i8* null, !dbg !2422
  %35 = extractvalue { i8*, i32 } %34, 0, !dbg !2422
  store i8* %35, i8** %9, align 8, !dbg !2422
  %36 = extractvalue { i8*, i32 } %34, 1, !dbg !2422
  store i32 %36, i32* %10, align 4, !dbg !2422
  br label %37, !dbg !2422

37:                                               ; preds = %33
  %38 = load i8*, i8** %9, align 8, !dbg !2421
  %39 = call i8* @__cxa_begin_catch(i8* %38) #11, !dbg !2421
  invoke void @_ZNSt7__cxx1112basic_stringIcSt11char_traitsIcESaIcEE10_M_disposeEv(%"class.std::__cxx11::basic_string"* %11)
          to label %40 unwind label %41, !dbg !2423

40:                                               ; preds = %37
  invoke void @__cxa_rethrow() #13
          to label %56 unwind label %41, !dbg !2425

41:                                               ; preds = %40, %37
  %42 = landingpad { i8*, i32 }
          cleanup, !dbg !2426
  %43 = extractvalue { i8*, i32 } %42, 0, !dbg !2426
  store i8* %43, i8** %9, align 8, !dbg !2426
  %44 = extractvalue { i8*, i32 } %42, 1, !dbg !2426
  store i32 %44, i32* %10, align 4, !dbg !2426
  invoke void @__cxa_end_catch()
          to label %45 unwind label %53, !dbg !2427

45:                                               ; preds = %41
  br label %48, !dbg !2427

46:                                               ; preds = %30
  %47 = load i64, i64* %8, align 8, !dbg !2428
  call void @_ZNSt7__cxx1112basic_stringIcSt11char_traitsIcESaIcEE13_M_set_lengthEm(%"class.std::__cxx11::basic_string"* %11, i64 %47), !dbg !2429
  ret void, !dbg !2430

48:                                               ; preds = %45
  %49 = load i8*, i8** %9, align 8, !dbg !2427
  %50 = load i32, i32* %10, align 4, !dbg !2427
  %51 = insertvalue { i8*, i32 } undef, i8* %49, 0, !dbg !2427
  %52 = insertvalue { i8*, i32 } %51, i32 %50, 1, !dbg !2427
  resume { i8*, i32 } %52, !dbg !2427

53:                                               ; preds = %41
  %54 = landingpad { i8*, i32 }
          catch i8* null, !dbg !2427
  %55 = extractvalue { i8*, i32 } %54, 0, !dbg !2427
  call void @__clang_call_terminate(i8* %55) #12, !dbg !2427
  unreachable, !dbg !2427

56:                                               ; preds = %40
  unreachable
}

; Function Attrs: noinline nounwind uwtable
define linkonce_odr zeroext i1 @_ZN9__gnu_cxx17__is_null_pointerIKcEEbPT_(i8* %0) #5 comdat !dbg !2431 {
  %2 = alloca i8*, align 8
  store i8* %0, i8** %2, align 8
  call void @llvm.dbg.declare(metadata i8** %2, metadata !2435, metadata !DIExpression()), !dbg !2436
  %3 = load i8*, i8** %2, align 8, !dbg !2437
  %4 = icmp eq i8* %3, null, !dbg !2438
  ret i1 %4, !dbg !2439
}

; Function Attrs: noreturn
declare void @_ZSt19__throw_logic_errorPKc(i8*) #6

; Function Attrs: noinline uwtable
define linkonce_odr i64 @_ZSt8distanceIPKcENSt15iterator_traitsIT_E15difference_typeES3_S3_(i8* %0, i8* %1) #0 comdat !dbg !2440 {
  %3 = alloca i8*, align 8
  %4 = alloca i8*, align 8
  %5 = alloca %"struct.std::random_access_iterator_tag", align 1
  %6 = alloca %"struct.std::random_access_iterator_tag", align 1
  store i8* %0, i8** %3, align 8
  call void @llvm.dbg.declare(metadata i8** %3, metadata !2451, metadata !DIExpression()), !dbg !2452
  store i8* %1, i8** %4, align 8
  call void @llvm.dbg.declare(metadata i8** %4, metadata !2453, metadata !DIExpression()), !dbg !2454
  %7 = load i8*, i8** %3, align 8, !dbg !2455
  %8 = load i8*, i8** %4, align 8, !dbg !2456
  call void @_ZSt19__iterator_categoryIPKcENSt15iterator_traitsIT_E17iterator_categoryERKS3_(i8** dereferenceable(8) %3), !dbg !2457
  %9 = call i64 @_ZSt10__distanceIPKcENSt15iterator_traitsIT_E15difference_typeES3_S3_St26random_access_iterator_tag(i8* %7, i8* %8), !dbg !2458
  ret i64 %9, !dbg !2459
}

declare void @_ZNSt7__cxx1112basic_stringIcSt11char_traitsIcESaIcEE7_M_dataEPc(%"class.std::__cxx11::basic_string"*, i8*) #3

declare i8* @_ZNSt7__cxx1112basic_stringIcSt11char_traitsIcESaIcEE9_M_createERmm(%"class.std::__cxx11::basic_string"*, i64* dereferenceable(8), i64) #3

declare void @_ZNSt7__cxx1112basic_stringIcSt11char_traitsIcESaIcEE11_M_capacityEm(%"class.std::__cxx11::basic_string"*, i64) #3

; Function Attrs: nounwind
declare void @_ZNSt7__cxx1112basic_stringIcSt11char_traitsIcESaIcEE13_S_copy_charsEPcPKcS7_(i8*, i8*, i8*) #2

declare i8* @_ZNKSt7__cxx1112basic_stringIcSt11char_traitsIcESaIcEE7_M_dataEv(%"class.std::__cxx11::basic_string"*) #3

declare i8* @__cxa_begin_catch(i8*)

declare void @_ZNSt7__cxx1112basic_stringIcSt11char_traitsIcESaIcEE10_M_disposeEv(%"class.std::__cxx11::basic_string"*) #3

declare void @__cxa_rethrow()

declare void @__cxa_end_catch()

; Function Attrs: noinline noreturn nounwind
define linkonce_odr hidden void @__clang_call_terminate(i8* %0) #7 comdat {
  %2 = call i8* @__cxa_begin_catch(i8* %0) #11
  call void @_ZSt9terminatev() #12
  unreachable
}

declare void @_ZSt9terminatev()

declare void @_ZNSt7__cxx1112basic_stringIcSt11char_traitsIcESaIcEE13_M_set_lengthEm(%"class.std::__cxx11::basic_string"*, i64) #3

; Function Attrs: noinline nounwind uwtable
define linkonce_odr i64 @_ZSt10__distanceIPKcENSt15iterator_traitsIT_E15difference_typeES3_S3_St26random_access_iterator_tag(i8* %0, i8* %1) #5 comdat !dbg !2460 {
  %3 = alloca %"struct.std::random_access_iterator_tag", align 1
  %4 = alloca i8*, align 8
  %5 = alloca i8*, align 8
  store i8* %0, i8** %4, align 8
  call void @llvm.dbg.declare(metadata i8** %4, metadata !2471, metadata !DIExpression()), !dbg !2472
  store i8* %1, i8** %5, align 8
  call void @llvm.dbg.declare(metadata i8** %5, metadata !2473, metadata !DIExpression()), !dbg !2474
  call void @llvm.dbg.declare(metadata %"struct.std::random_access_iterator_tag"* %3, metadata !2475, metadata !DIExpression()), !dbg !2476
  %6 = load i8*, i8** %5, align 8, !dbg !2477
  %7 = load i8*, i8** %4, align 8, !dbg !2478
  %8 = ptrtoint i8* %6 to i64, !dbg !2479
  %9 = ptrtoint i8* %7 to i64, !dbg !2479
  %10 = sub i64 %8, %9, !dbg !2479
  ret i64 %10, !dbg !2480
}

; Function Attrs: noinline nounwind uwtable
define linkonce_odr void @_ZSt19__iterator_categoryIPKcENSt15iterator_traitsIT_E17iterator_categoryERKS3_(i8** dereferenceable(8) %0) #5 comdat !dbg !2481 {
  %2 = alloca i8**, align 8
  store i8** %0, i8*** %2, align 8
  call void @llvm.dbg.declare(metadata i8*** %2, metadata !2489, metadata !DIExpression()), !dbg !2490
  ret void, !dbg !2491
}

; Function Attrs: noinline uwtable
define linkonce_odr i64 @_ZN9__gnu_cxx11char_traitsIcE6lengthEPKc(i8* %0) #0 comdat align 2 !dbg !2492 {
  %2 = alloca i8*, align 8
  %3 = alloca i64, align 8
  %4 = alloca i8, align 1
  store i8* %0, i8** %2, align 8
  call void @llvm.dbg.declare(metadata i8** %2, metadata !2544, metadata !DIExpression()), !dbg !2545
  call void @llvm.dbg.declare(metadata i64* %3, metadata !2546, metadata !DIExpression()), !dbg !2547
  store i64 0, i64* %3, align 8, !dbg !2547
  br label %5, !dbg !2548

5:                                                ; preds = %11, %1
  %6 = load i8*, i8** %2, align 8, !dbg !2549
  %7 = load i64, i64* %3, align 8, !dbg !2550
  %8 = getelementptr inbounds i8, i8* %6, i64 %7, !dbg !2549
  store i8 0, i8* %4, align 1, !dbg !2551
  %9 = call zeroext i1 @_ZN9__gnu_cxx11char_traitsIcE2eqERKcS3_(i8* dereferenceable(1) %8, i8* dereferenceable(1) %4), !dbg !2552
  %10 = xor i1 %9, true, !dbg !2553
  br i1 %10, label %11, label %14, !dbg !2548

11:                                               ; preds = %5
  %12 = load i64, i64* %3, align 8, !dbg !2554
  %13 = add i64 %12, 1, !dbg !2554
  store i64 %13, i64* %3, align 8, !dbg !2554
  br label %5, !dbg !2548, !llvm.loop !2555

14:                                               ; preds = %5
  %15 = load i64, i64* %3, align 8, !dbg !2557
  ret i64 %15, !dbg !2558
}

; Function Attrs: nounwind
declare i64 @strlen(i8*) #2

; Function Attrs: noinline nounwind uwtable
define linkonce_odr zeroext i1 @_ZN9__gnu_cxx11char_traitsIcE2eqERKcS3_(i8* dereferenceable(1) %0, i8* dereferenceable(1) %1) #5 comdat align 2 !dbg !2559 {
  %3 = alloca i8*, align 8
  %4 = alloca i8*, align 8
  store i8* %0, i8** %3, align 8
  call void @llvm.dbg.declare(metadata i8** %3, metadata !2560, metadata !DIExpression()), !dbg !2561
  store i8* %1, i8** %4, align 8
  call void @llvm.dbg.declare(metadata i8** %4, metadata !2562, metadata !DIExpression()), !dbg !2563
  %5 = load i8*, i8** %3, align 8, !dbg !2564
  %6 = load i8, i8* %5, align 1, !dbg !2564
  %7 = sext i8 %6 to i32, !dbg !2564
  %8 = load i8*, i8** %4, align 8, !dbg !2565
  %9 = load i8, i8* %8, align 1, !dbg !2565
  %10 = sext i8 %9 to i32, !dbg !2565
  %11 = icmp eq i32 %7, %10, !dbg !2566
  ret i1 %11, !dbg !2567
}

; Function Attrs: noinline nounwind uwtable
define linkonce_odr dereferenceable(4) i32* @_ZSt3minIiERKT_S2_S2_(i32* dereferenceable(4) %0, i32* dereferenceable(4) %1) #5 comdat !dbg !2568 {
  %3 = alloca i32*, align 8
  %4 = alloca i32*, align 8
  %5 = alloca i32*, align 8
  store i32* %0, i32** %4, align 8
  call void @llvm.dbg.declare(metadata i32** %4, metadata !2572, metadata !DIExpression()), !dbg !2574
  store i32* %1, i32** %5, align 8
  call void @llvm.dbg.declare(metadata i32** %5, metadata !2575, metadata !DIExpression()), !dbg !2576
  %6 = load i32*, i32** %5, align 8, !dbg !2577
  %7 = load i32, i32* %6, align 4, !dbg !2577
  %8 = load i32*, i32** %4, align 8, !dbg !2579
  %9 = load i32, i32* %8, align 4, !dbg !2579
  %10 = icmp slt i32 %7, %9, !dbg !2580
  br i1 %10, label %11, label %13, !dbg !2581

11:                                               ; preds = %2
  %12 = load i32*, i32** %5, align 8, !dbg !2582
  store i32* %12, i32** %3, align 8, !dbg !2583
  br label %15, !dbg !2583

13:                                               ; preds = %2
  %14 = load i32*, i32** %4, align 8, !dbg !2584
  store i32* %14, i32** %3, align 8, !dbg !2585
  br label %15, !dbg !2585

15:                                               ; preds = %13, %11
  %16 = load i32*, i32** %3, align 8, !dbg !2586
  ret i32* %16, !dbg !2586
}

; Function Attrs: noinline nounwind uwtable
define linkonce_odr dereferenceable(4) i32* @_ZSt3maxIiERKT_S2_S2_(i32* dereferenceable(4) %0, i32* dereferenceable(4) %1) #5 comdat !dbg !2587 {
  %3 = alloca i32*, align 8
  %4 = alloca i32*, align 8
  %5 = alloca i32*, align 8
  store i32* %0, i32** %4, align 8
  call void @llvm.dbg.declare(metadata i32** %4, metadata !2588, metadata !DIExpression()), !dbg !2589
  store i32* %1, i32** %5, align 8
  call void @llvm.dbg.declare(metadata i32** %5, metadata !2590, metadata !DIExpression()), !dbg !2591
  %6 = load i32*, i32** %4, align 8, !dbg !2592
  %7 = load i32, i32* %6, align 4, !dbg !2592
  %8 = load i32*, i32** %5, align 8, !dbg !2594
  %9 = load i32, i32* %8, align 4, !dbg !2594
  %10 = icmp slt i32 %7, %9, !dbg !2595
  br i1 %10, label %11, label %13, !dbg !2596

11:                                               ; preds = %2
  %12 = load i32*, i32** %5, align 8, !dbg !2597
  store i32* %12, i32** %3, align 8, !dbg !2598
  br label %15, !dbg !2598

13:                                               ; preds = %2
  %14 = load i32*, i32** %4, align 8, !dbg !2599
  store i32* %14, i32** %3, align 8, !dbg !2600
  br label %15, !dbg !2600

15:                                               ; preds = %13, %11
  %16 = load i32*, i32** %3, align 8, !dbg !2601
  ret i32* %16, !dbg !2601
}

; Function Attrs: noinline nounwind uwtable
define linkonce_odr void @_ZN9__gnu_cxx13new_allocatorIiEC2Ev(%"class.__gnu_cxx::new_allocator.1"* %0) unnamed_addr #5 comdat align 2 !dbg !2602 {
  %2 = alloca %"class.__gnu_cxx::new_allocator.1"*, align 8
  store %"class.__gnu_cxx::new_allocator.1"* %0, %"class.__gnu_cxx::new_allocator.1"** %2, align 8
  call void @llvm.dbg.declare(metadata %"class.__gnu_cxx::new_allocator.1"** %2, metadata !2603, metadata !DIExpression()), !dbg !2605
  %3 = load %"class.__gnu_cxx::new_allocator.1"*, %"class.__gnu_cxx::new_allocator.1"** %2, align 8
  ret void, !dbg !2606
}

; Function Attrs: noinline nounwind uwtable
define linkonce_odr void @_ZN9__gnu_cxx13new_allocatorIiED2Ev(%"class.__gnu_cxx::new_allocator.1"* %0) unnamed_addr #5 comdat align 2 !dbg !2607 {
  %2 = alloca %"class.__gnu_cxx::new_allocator.1"*, align 8
  store %"class.__gnu_cxx::new_allocator.1"* %0, %"class.__gnu_cxx::new_allocator.1"** %2, align 8
  call void @llvm.dbg.declare(metadata %"class.__gnu_cxx::new_allocator.1"** %2, metadata !2608, metadata !DIExpression()), !dbg !2609
  %3 = load %"class.__gnu_cxx::new_allocator.1"*, %"class.__gnu_cxx::new_allocator.1"** %2, align 8
  ret void, !dbg !2610
}

; Function Attrs: noinline nounwind uwtable
define linkonce_odr void @_ZNSt12_Vector_baseIiSaIiEEC2ERKS0_(%"struct.std::_Vector_base"* %0, %"class.std::allocator.0"* dereferenceable(1) %1) unnamed_addr #5 comdat align 2 !dbg !2611 {
  %3 = alloca %"struct.std::_Vector_base"*, align 8
  %4 = alloca %"class.std::allocator.0"*, align 8
  store %"struct.std::_Vector_base"* %0, %"struct.std::_Vector_base"** %3, align 8
  call void @llvm.dbg.declare(metadata %"struct.std::_Vector_base"** %3, metadata !2612, metadata !DIExpression()), !dbg !2614
  store %"class.std::allocator.0"* %1, %"class.std::allocator.0"** %4, align 8
  call void @llvm.dbg.declare(metadata %"class.std::allocator.0"** %4, metadata !2615, metadata !DIExpression()), !dbg !2616
  %5 = load %"struct.std::_Vector_base"*, %"struct.std::_Vector_base"** %3, align 8
  %6 = getelementptr inbounds %"struct.std::_Vector_base", %"struct.std::_Vector_base"* %5, i32 0, i32 0, !dbg !2617
  %7 = load %"class.std::allocator.0"*, %"class.std::allocator.0"** %4, align 8, !dbg !2618
  call void @_ZNSt12_Vector_baseIiSaIiEE12_Vector_implC2ERKS0_(%"struct.std::_Vector_base<int, std::allocator<int> >::_Vector_impl"* %6, %"class.std::allocator.0"* dereferenceable(1) %7) #11, !dbg !2617
  ret void, !dbg !2619
}

; Function Attrs: noinline uwtable
define linkonce_odr void @_ZNSt6vectorIiSaIiEE19_M_range_initializeIPKiEEvT_S5_St20forward_iterator_tag(%"class.std::vector"* %0, i32* %1, i32* %2) #0 comdat align 2 !dbg !2620 {
  %4 = alloca %"struct.std::forward_iterator_tag", align 1
  %5 = alloca %"class.std::vector"*, align 8
  %6 = alloca i32*, align 8
  %7 = alloca i32*, align 8
  %8 = alloca i64, align 8
  store %"class.std::vector"* %0, %"class.std::vector"** %5, align 8
  call void @llvm.dbg.declare(metadata %"class.std::vector"** %5, metadata !2626, metadata !DIExpression()), !dbg !2627
  store i32* %1, i32** %6, align 8
  call void @llvm.dbg.declare(metadata i32** %6, metadata !2628, metadata !DIExpression()), !dbg !2629
  store i32* %2, i32** %7, align 8
  call void @llvm.dbg.declare(metadata i32** %7, metadata !2630, metadata !DIExpression()), !dbg !2631
  call void @llvm.dbg.declare(metadata %"struct.std::forward_iterator_tag"* %4, metadata !2632, metadata !DIExpression()), !dbg !2633
  %9 = load %"class.std::vector"*, %"class.std::vector"** %5, align 8
  call void @llvm.dbg.declare(metadata i64* %8, metadata !2634, metadata !DIExpression()), !dbg !2636
  %10 = load i32*, i32** %6, align 8, !dbg !2637
  %11 = load i32*, i32** %7, align 8, !dbg !2638
  %12 = call i64 @_ZSt8distanceIPKiENSt15iterator_traitsIT_E15difference_typeES3_S3_(i32* %10, i32* %11), !dbg !2639
  store i64 %12, i64* %8, align 8, !dbg !2636
  %13 = bitcast %"class.std::vector"* %9 to %"struct.std::_Vector_base"*, !dbg !2640
  %14 = load i64, i64* %8, align 8, !dbg !2641
  %15 = bitcast %"class.std::vector"* %9 to %"struct.std::_Vector_base"*, !dbg !2642
  %16 = call dereferenceable(1) %"class.std::allocator.0"* @_ZNSt12_Vector_baseIiSaIiEE19_M_get_Tp_allocatorEv(%"struct.std::_Vector_base"* %15) #11, !dbg !2642
  %17 = call i64 @_ZNSt6vectorIiSaIiEE17_S_check_init_lenEmRKS0_(i64 %14, %"class.std::allocator.0"* dereferenceable(1) %16), !dbg !2643
  %18 = call i32* @_ZNSt12_Vector_baseIiSaIiEE11_M_allocateEm(%"struct.std::_Vector_base"* %13, i64 %17), !dbg !2640
  %19 = bitcast %"class.std::vector"* %9 to %"struct.std::_Vector_base"*, !dbg !2644
  %20 = getelementptr inbounds %"struct.std::_Vector_base", %"struct.std::_Vector_base"* %19, i32 0, i32 0, !dbg !2644
  %21 = bitcast %"struct.std::_Vector_base<int, std::allocator<int> >::_Vector_impl"* %20 to %"struct.std::_Vector_base<int, std::allocator<int> >::_Vector_impl_data"*, !dbg !2645
  %22 = getelementptr inbounds %"struct.std::_Vector_base<int, std::allocator<int> >::_Vector_impl_data", %"struct.std::_Vector_base<int, std::allocator<int> >::_Vector_impl_data"* %21, i32 0, i32 0, !dbg !2646
  store i32* %18, i32** %22, align 8, !dbg !2647
  %23 = bitcast %"class.std::vector"* %9 to %"struct.std::_Vector_base"*, !dbg !2648
  %24 = getelementptr inbounds %"struct.std::_Vector_base", %"struct.std::_Vector_base"* %23, i32 0, i32 0, !dbg !2648
  %25 = bitcast %"struct.std::_Vector_base<int, std::allocator<int> >::_Vector_impl"* %24 to %"struct.std::_Vector_base<int, std::allocator<int> >::_Vector_impl_data"*, !dbg !2649
  %26 = getelementptr inbounds %"struct.std::_Vector_base<int, std::allocator<int> >::_Vector_impl_data", %"struct.std::_Vector_base<int, std::allocator<int> >::_Vector_impl_data"* %25, i32 0, i32 0, !dbg !2650
  %27 = load i32*, i32** %26, align 8, !dbg !2650
  %28 = load i64, i64* %8, align 8, !dbg !2651
  %29 = getelementptr inbounds i32, i32* %27, i64 %28, !dbg !2652
  %30 = bitcast %"class.std::vector"* %9 to %"struct.std::_Vector_base"*, !dbg !2653
  %31 = getelementptr inbounds %"struct.std::_Vector_base", %"struct.std::_Vector_base"* %30, i32 0, i32 0, !dbg !2653
  %32 = bitcast %"struct.std::_Vector_base<int, std::allocator<int> >::_Vector_impl"* %31 to %"struct.std::_Vector_base<int, std::allocator<int> >::_Vector_impl_data"*, !dbg !2654
  %33 = getelementptr inbounds %"struct.std::_Vector_base<int, std::allocator<int> >::_Vector_impl_data", %"struct.std::_Vector_base<int, std::allocator<int> >::_Vector_impl_data"* %32, i32 0, i32 2, !dbg !2655
  store i32* %29, i32** %33, align 8, !dbg !2656
  %34 = load i32*, i32** %6, align 8, !dbg !2657
  %35 = load i32*, i32** %7, align 8, !dbg !2658
  %36 = bitcast %"class.std::vector"* %9 to %"struct.std::_Vector_base"*, !dbg !2659
  %37 = getelementptr inbounds %"struct.std::_Vector_base", %"struct.std::_Vector_base"* %36, i32 0, i32 0, !dbg !2659
  %38 = bitcast %"struct.std::_Vector_base<int, std::allocator<int> >::_Vector_impl"* %37 to %"struct.std::_Vector_base<int, std::allocator<int> >::_Vector_impl_data"*, !dbg !2660
  %39 = getelementptr inbounds %"struct.std::_Vector_base<int, std::allocator<int> >::_Vector_impl_data", %"struct.std::_Vector_base<int, std::allocator<int> >::_Vector_impl_data"* %38, i32 0, i32 0, !dbg !2661
  %40 = load i32*, i32** %39, align 8, !dbg !2661
  %41 = bitcast %"class.std::vector"* %9 to %"struct.std::_Vector_base"*, !dbg !2662
  %42 = call dereferenceable(1) %"class.std::allocator.0"* @_ZNSt12_Vector_baseIiSaIiEE19_M_get_Tp_allocatorEv(%"struct.std::_Vector_base"* %41) #11, !dbg !2662
  %43 = call i32* @_ZSt22__uninitialized_copy_aIPKiPiiET0_T_S4_S3_RSaIT1_E(i32* %34, i32* %35, i32* %40, %"class.std::allocator.0"* dereferenceable(1) %42), !dbg !2663
  %44 = bitcast %"class.std::vector"* %9 to %"struct.std::_Vector_base"*, !dbg !2664
  %45 = getelementptr inbounds %"struct.std::_Vector_base", %"struct.std::_Vector_base"* %44, i32 0, i32 0, !dbg !2664
  %46 = bitcast %"struct.std::_Vector_base<int, std::allocator<int> >::_Vector_impl"* %45 to %"struct.std::_Vector_base<int, std::allocator<int> >::_Vector_impl_data"*, !dbg !2665
  %47 = getelementptr inbounds %"struct.std::_Vector_base<int, std::allocator<int> >::_Vector_impl_data", %"struct.std::_Vector_base<int, std::allocator<int> >::_Vector_impl_data"* %46, i32 0, i32 1, !dbg !2666
  store i32* %43, i32** %47, align 8, !dbg !2667
  ret void, !dbg !2668
}

; Function Attrs: noinline nounwind uwtable
define linkonce_odr i32* @_ZNKSt16initializer_listIiE5beginEv(%"class.std::initializer_list"* %0) #5 comdat align 2 !dbg !2669 {
  %2 = alloca %"class.std::initializer_list"*, align 8
  store %"class.std::initializer_list"* %0, %"class.std::initializer_list"** %2, align 8
  call void @llvm.dbg.declare(metadata %"class.std::initializer_list"** %2, metadata !2670, metadata !DIExpression()), !dbg !2672
  %3 = load %"class.std::initializer_list"*, %"class.std::initializer_list"** %2, align 8
  %4 = getelementptr inbounds %"class.std::initializer_list", %"class.std::initializer_list"* %3, i32 0, i32 0, !dbg !2673
  %5 = load i32*, i32** %4, align 8, !dbg !2673
  ret i32* %5, !dbg !2674
}

; Function Attrs: noinline nounwind uwtable
define linkonce_odr i32* @_ZNKSt16initializer_listIiE3endEv(%"class.std::initializer_list"* %0) #5 comdat align 2 !dbg !2675 {
  %2 = alloca %"class.std::initializer_list"*, align 8
  store %"class.std::initializer_list"* %0, %"class.std::initializer_list"** %2, align 8
  call void @llvm.dbg.declare(metadata %"class.std::initializer_list"** %2, metadata !2676, metadata !DIExpression()), !dbg !2677
  %3 = load %"class.std::initializer_list"*, %"class.std::initializer_list"** %2, align 8
  %4 = call i32* @_ZNKSt16initializer_listIiE5beginEv(%"class.std::initializer_list"* %3) #11, !dbg !2678
  %5 = call i64 @_ZNKSt16initializer_listIiE4sizeEv(%"class.std::initializer_list"* %3) #11, !dbg !2679
  %6 = getelementptr inbounds i32, i32* %4, i64 %5, !dbg !2680
  ret i32* %6, !dbg !2681
}

; Function Attrs: noinline nounwind uwtable
define linkonce_odr void @_ZNSt12_Vector_baseIiSaIiEED2Ev(%"struct.std::_Vector_base"* %0) unnamed_addr #5 comdat align 2 personality i8* bitcast (i32 (...)* @__gxx_personality_v0 to i8*) !dbg !2682 {
  %2 = alloca %"struct.std::_Vector_base"*, align 8
  %3 = alloca i8*
  %4 = alloca i32
  store %"struct.std::_Vector_base"* %0, %"struct.std::_Vector_base"** %2, align 8
  call void @llvm.dbg.declare(metadata %"struct.std::_Vector_base"** %2, metadata !2683, metadata !DIExpression()), !dbg !2684
  %5 = load %"struct.std::_Vector_base"*, %"struct.std::_Vector_base"** %2, align 8
  %6 = getelementptr inbounds %"struct.std::_Vector_base", %"struct.std::_Vector_base"* %5, i32 0, i32 0, !dbg !2685
  %7 = bitcast %"struct.std::_Vector_base<int, std::allocator<int> >::_Vector_impl"* %6 to %"struct.std::_Vector_base<int, std::allocator<int> >::_Vector_impl_data"*, !dbg !2685
  %8 = getelementptr inbounds %"struct.std::_Vector_base<int, std::allocator<int> >::_Vector_impl_data", %"struct.std::_Vector_base<int, std::allocator<int> >::_Vector_impl_data"* %7, i32 0, i32 0, !dbg !2687
  %9 = load i32*, i32** %8, align 8, !dbg !2687
  %10 = getelementptr inbounds %"struct.std::_Vector_base", %"struct.std::_Vector_base"* %5, i32 0, i32 0, !dbg !2688
  %11 = bitcast %"struct.std::_Vector_base<int, std::allocator<int> >::_Vector_impl"* %10 to %"struct.std::_Vector_base<int, std::allocator<int> >::_Vector_impl_data"*, !dbg !2688
  %12 = getelementptr inbounds %"struct.std::_Vector_base<int, std::allocator<int> >::_Vector_impl_data", %"struct.std::_Vector_base<int, std::allocator<int> >::_Vector_impl_data"* %11, i32 0, i32 2, !dbg !2689
  %13 = load i32*, i32** %12, align 8, !dbg !2689
  %14 = getelementptr inbounds %"struct.std::_Vector_base", %"struct.std::_Vector_base"* %5, i32 0, i32 0, !dbg !2690
  %15 = bitcast %"struct.std::_Vector_base<int, std::allocator<int> >::_Vector_impl"* %14 to %"struct.std::_Vector_base<int, std::allocator<int> >::_Vector_impl_data"*, !dbg !2690
  %16 = getelementptr inbounds %"struct.std::_Vector_base<int, std::allocator<int> >::_Vector_impl_data", %"struct.std::_Vector_base<int, std::allocator<int> >::_Vector_impl_data"* %15, i32 0, i32 0, !dbg !2691
  %17 = load i32*, i32** %16, align 8, !dbg !2691
  %18 = ptrtoint i32* %13 to i64, !dbg !2692
  %19 = ptrtoint i32* %17 to i64, !dbg !2692
  %20 = sub i64 %18, %19, !dbg !2692
  %21 = sdiv exact i64 %20, 4, !dbg !2692
  invoke void @_ZNSt12_Vector_baseIiSaIiEE13_M_deallocateEPim(%"struct.std::_Vector_base"* %5, i32* %9, i64 %21)
          to label %22 unwind label %24, !dbg !2693

22:                                               ; preds = %1
  %23 = getelementptr inbounds %"struct.std::_Vector_base", %"struct.std::_Vector_base"* %5, i32 0, i32 0, !dbg !2694
  call void @_ZNSt12_Vector_baseIiSaIiEE12_Vector_implD2Ev(%"struct.std::_Vector_base<int, std::allocator<int> >::_Vector_impl"* %23) #11, !dbg !2694
  ret void, !dbg !2695

24:                                               ; preds = %1
  %25 = landingpad { i8*, i32 }
          catch i8* null, !dbg !2694
  %26 = extractvalue { i8*, i32 } %25, 0, !dbg !2694
  store i8* %26, i8** %3, align 8, !dbg !2694
  %27 = extractvalue { i8*, i32 } %25, 1, !dbg !2694
  store i32 %27, i32* %4, align 4, !dbg !2694
  %28 = getelementptr inbounds %"struct.std::_Vector_base", %"struct.std::_Vector_base"* %5, i32 0, i32 0, !dbg !2694
  call void @_ZNSt12_Vector_baseIiSaIiEE12_Vector_implD2Ev(%"struct.std::_Vector_base<int, std::allocator<int> >::_Vector_impl"* %28) #11, !dbg !2694
  br label %29, !dbg !2694

29:                                               ; preds = %24
  %30 = load i8*, i8** %3, align 8, !dbg !2694
  call void @__clang_call_terminate(i8* %30) #12, !dbg !2694
  unreachable, !dbg !2694
}

; Function Attrs: noinline nounwind uwtable
define linkonce_odr void @_ZNSt12_Vector_baseIiSaIiEE12_Vector_implC2ERKS0_(%"struct.std::_Vector_base<int, std::allocator<int> >::_Vector_impl"* %0, %"class.std::allocator.0"* dereferenceable(1) %1) unnamed_addr #5 comdat align 2 !dbg !2696 {
  %3 = alloca %"struct.std::_Vector_base<int, std::allocator<int> >::_Vector_impl"*, align 8
  %4 = alloca %"class.std::allocator.0"*, align 8
  store %"struct.std::_Vector_base<int, std::allocator<int> >::_Vector_impl"* %0, %"struct.std::_Vector_base<int, std::allocator<int> >::_Vector_impl"** %3, align 8
  call void @llvm.dbg.declare(metadata %"struct.std::_Vector_base<int, std::allocator<int> >::_Vector_impl"** %3, metadata !2697, metadata !DIExpression()), !dbg !2699
  store %"class.std::allocator.0"* %1, %"class.std::allocator.0"** %4, align 8
  call void @llvm.dbg.declare(metadata %"class.std::allocator.0"** %4, metadata !2700, metadata !DIExpression()), !dbg !2701
  %5 = load %"struct.std::_Vector_base<int, std::allocator<int> >::_Vector_impl"*, %"struct.std::_Vector_base<int, std::allocator<int> >::_Vector_impl"** %3, align 8
  %6 = bitcast %"struct.std::_Vector_base<int, std::allocator<int> >::_Vector_impl"* %5 to %"class.std::allocator.0"*, !dbg !2702
  %7 = load %"class.std::allocator.0"*, %"class.std::allocator.0"** %4, align 8, !dbg !2703
  call void @_ZNSaIiEC2ERKS_(%"class.std::allocator.0"* %6, %"class.std::allocator.0"* dereferenceable(1) %7) #11, !dbg !2704
  %8 = bitcast %"struct.std::_Vector_base<int, std::allocator<int> >::_Vector_impl"* %5 to %"struct.std::_Vector_base<int, std::allocator<int> >::_Vector_impl_data"*, !dbg !2702
  call void @_ZNSt12_Vector_baseIiSaIiEE17_Vector_impl_dataC2Ev(%"struct.std::_Vector_base<int, std::allocator<int> >::_Vector_impl_data"* %8) #11, !dbg !2705
  ret void, !dbg !2706
}

; Function Attrs: noinline nounwind uwtable
define linkonce_odr void @_ZNSt12_Vector_baseIiSaIiEE17_Vector_impl_dataC2Ev(%"struct.std::_Vector_base<int, std::allocator<int> >::_Vector_impl_data"* %0) unnamed_addr #5 comdat align 2 !dbg !2707 {
  %2 = alloca %"struct.std::_Vector_base<int, std::allocator<int> >::_Vector_impl_data"*, align 8
  store %"struct.std::_Vector_base<int, std::allocator<int> >::_Vector_impl_data"* %0, %"struct.std::_Vector_base<int, std::allocator<int> >::_Vector_impl_data"** %2, align 8
  call void @llvm.dbg.declare(metadata %"struct.std::_Vector_base<int, std::allocator<int> >::_Vector_impl_data"** %2, metadata !2708, metadata !DIExpression()), !dbg !2710
  %3 = load %"struct.std::_Vector_base<int, std::allocator<int> >::_Vector_impl_data"*, %"struct.std::_Vector_base<int, std::allocator<int> >::_Vector_impl_data"** %2, align 8
  %4 = getelementptr inbounds %"struct.std::_Vector_base<int, std::allocator<int> >::_Vector_impl_data", %"struct.std::_Vector_base<int, std::allocator<int> >::_Vector_impl_data"* %3, i32 0, i32 0, !dbg !2711
  store i32* null, i32** %4, align 8, !dbg !2711
  %5 = getelementptr inbounds %"struct.std::_Vector_base<int, std::allocator<int> >::_Vector_impl_data", %"struct.std::_Vector_base<int, std::allocator<int> >::_Vector_impl_data"* %3, i32 0, i32 1, !dbg !2712
  store i32* null, i32** %5, align 8, !dbg !2712
  %6 = getelementptr inbounds %"struct.std::_Vector_base<int, std::allocator<int> >::_Vector_impl_data", %"struct.std::_Vector_base<int, std::allocator<int> >::_Vector_impl_data"* %3, i32 0, i32 2, !dbg !2713
  store i32* null, i32** %6, align 8, !dbg !2713
  ret void, !dbg !2714
}

; Function Attrs: noinline nounwind uwtable
define linkonce_odr void @_ZN9__gnu_cxx13new_allocatorIiEC2ERKS1_(%"class.__gnu_cxx::new_allocator.1"* %0, %"class.__gnu_cxx::new_allocator.1"* dereferenceable(1) %1) unnamed_addr #5 comdat align 2 !dbg !2715 {
  %3 = alloca %"class.__gnu_cxx::new_allocator.1"*, align 8
  %4 = alloca %"class.__gnu_cxx::new_allocator.1"*, align 8
  store %"class.__gnu_cxx::new_allocator.1"* %0, %"class.__gnu_cxx::new_allocator.1"** %3, align 8
  call void @llvm.dbg.declare(metadata %"class.__gnu_cxx::new_allocator.1"** %3, metadata !2716, metadata !DIExpression()), !dbg !2717
  store %"class.__gnu_cxx::new_allocator.1"* %1, %"class.__gnu_cxx::new_allocator.1"** %4, align 8
  call void @llvm.dbg.declare(metadata %"class.__gnu_cxx::new_allocator.1"** %4, metadata !2718, metadata !DIExpression()), !dbg !2719
  %5 = load %"class.__gnu_cxx::new_allocator.1"*, %"class.__gnu_cxx::new_allocator.1"** %3, align 8
  ret void, !dbg !2720
}

; Function Attrs: noinline uwtable
define linkonce_odr i64 @_ZSt8distanceIPKiENSt15iterator_traitsIT_E15difference_typeES3_S3_(i32* %0, i32* %1) #0 comdat !dbg !2721 {
  %3 = alloca i32*, align 8
  %4 = alloca i32*, align 8
  %5 = alloca %"struct.std::random_access_iterator_tag", align 1
  %6 = alloca %"struct.std::random_access_iterator_tag", align 1
  store i32* %0, i32** %3, align 8
  call void @llvm.dbg.declare(metadata i32** %3, metadata !2730, metadata !DIExpression()), !dbg !2731
  store i32* %1, i32** %4, align 8
  call void @llvm.dbg.declare(metadata i32** %4, metadata !2732, metadata !DIExpression()), !dbg !2733
  %7 = load i32*, i32** %3, align 8, !dbg !2734
  %8 = load i32*, i32** %4, align 8, !dbg !2735
  call void @_ZSt19__iterator_categoryIPKiENSt15iterator_traitsIT_E17iterator_categoryERKS3_(i32** dereferenceable(8) %3), !dbg !2736
  %9 = call i64 @_ZSt10__distanceIPKiENSt15iterator_traitsIT_E15difference_typeES3_S3_St26random_access_iterator_tag(i32* %7, i32* %8), !dbg !2737
  ret i64 %9, !dbg !2738
}

; Function Attrs: noinline uwtable
define linkonce_odr i32* @_ZNSt12_Vector_baseIiSaIiEE11_M_allocateEm(%"struct.std::_Vector_base"* %0, i64 %1) #0 comdat align 2 !dbg !2739 {
  %3 = alloca %"struct.std::_Vector_base"*, align 8
  %4 = alloca i64, align 8
  store %"struct.std::_Vector_base"* %0, %"struct.std::_Vector_base"** %3, align 8
  call void @llvm.dbg.declare(metadata %"struct.std::_Vector_base"** %3, metadata !2740, metadata !DIExpression()), !dbg !2741
  store i64 %1, i64* %4, align 8
  call void @llvm.dbg.declare(metadata i64* %4, metadata !2742, metadata !DIExpression()), !dbg !2743
  %5 = load %"struct.std::_Vector_base"*, %"struct.std::_Vector_base"** %3, align 8
  %6 = load i64, i64* %4, align 8, !dbg !2744
  %7 = icmp ne i64 %6, 0, !dbg !2745
  br i1 %7, label %8, label %13, !dbg !2744

8:                                                ; preds = %2
  %9 = getelementptr inbounds %"struct.std::_Vector_base", %"struct.std::_Vector_base"* %5, i32 0, i32 0, !dbg !2746
  %10 = bitcast %"struct.std::_Vector_base<int, std::allocator<int> >::_Vector_impl"* %9 to %"class.std::allocator.0"*, !dbg !2746
  %11 = load i64, i64* %4, align 8, !dbg !2747
  %12 = call i32* @_ZNSt16allocator_traitsISaIiEE8allocateERS0_m(%"class.std::allocator.0"* dereferenceable(1) %10, i64 %11), !dbg !2748
  br label %14, !dbg !2744

13:                                               ; preds = %2
  br label %14, !dbg !2744

14:                                               ; preds = %13, %8
  %15 = phi i32* [ %12, %8 ], [ null, %13 ], !dbg !2744
  ret i32* %15, !dbg !2749
}

; Function Attrs: noinline uwtable
define linkonce_odr i64 @_ZNSt6vectorIiSaIiEE17_S_check_init_lenEmRKS0_(i64 %0, %"class.std::allocator.0"* dereferenceable(1) %1) #0 comdat align 2 !dbg !2750 {
  %3 = alloca i64, align 8
  %4 = alloca %"class.std::allocator.0"*, align 8
  %5 = alloca %"class.std::allocator.0", align 1
  store i64 %0, i64* %3, align 8
  call void @llvm.dbg.declare(metadata i64* %3, metadata !2751, metadata !DIExpression()), !dbg !2752
  store %"class.std::allocator.0"* %1, %"class.std::allocator.0"** %4, align 8
  call void @llvm.dbg.declare(metadata %"class.std::allocator.0"** %4, metadata !2753, metadata !DIExpression()), !dbg !2754
  %6 = load i64, i64* %3, align 8, !dbg !2755
  %7 = load %"class.std::allocator.0"*, %"class.std::allocator.0"** %4, align 8, !dbg !2757
  call void @_ZNSaIiEC2ERKS_(%"class.std::allocator.0"* %5, %"class.std::allocator.0"* dereferenceable(1) %7) #11, !dbg !2758
  %8 = call i64 @_ZNSt6vectorIiSaIiEE11_S_max_sizeERKS0_(%"class.std::allocator.0"* dereferenceable(1) %5) #11, !dbg !2759
  %9 = icmp ugt i64 %6, %8, !dbg !2760
  call void @_ZNSaIiED2Ev(%"class.std::allocator.0"* %5) #11, !dbg !2755
  br i1 %9, label %10, label %11, !dbg !2761

10:                                               ; preds = %2
  call void @_ZSt20__throw_length_errorPKc(i8* getelementptr inbounds ([49 x i8], [49 x i8]* @.str.10, i64 0, i64 0)) #13, !dbg !2762
  unreachable, !dbg !2762

11:                                               ; preds = %2
  %12 = load i64, i64* %3, align 8, !dbg !2763
  ret i64 %12, !dbg !2764
}

; Function Attrs: noinline nounwind uwtable
define linkonce_odr dereferenceable(1) %"class.std::allocator.0"* @_ZNSt12_Vector_baseIiSaIiEE19_M_get_Tp_allocatorEv(%"struct.std::_Vector_base"* %0) #5 comdat align 2 !dbg !2765 {
  %2 = alloca %"struct.std::_Vector_base"*, align 8
  store %"struct.std::_Vector_base"* %0, %"struct.std::_Vector_base"** %2, align 8
  call void @llvm.dbg.declare(metadata %"struct.std::_Vector_base"** %2, metadata !2766, metadata !DIExpression()), !dbg !2767
  %3 = load %"struct.std::_Vector_base"*, %"struct.std::_Vector_base"** %2, align 8
  %4 = getelementptr inbounds %"struct.std::_Vector_base", %"struct.std::_Vector_base"* %3, i32 0, i32 0, !dbg !2768
  %5 = bitcast %"struct.std::_Vector_base<int, std::allocator<int> >::_Vector_impl"* %4 to %"class.std::allocator.0"*, !dbg !2769
  ret %"class.std::allocator.0"* %5, !dbg !2770
}

; Function Attrs: noinline uwtable
define linkonce_odr i32* @_ZSt22__uninitialized_copy_aIPKiPiiET0_T_S4_S3_RSaIT1_E(i32* %0, i32* %1, i32* %2, %"class.std::allocator.0"* dereferenceable(1) %3) #0 comdat !dbg !2771 {
  %5 = alloca i32*, align 8
  %6 = alloca i32*, align 8
  %7 = alloca i32*, align 8
  %8 = alloca %"class.std::allocator.0"*, align 8
  store i32* %0, i32** %5, align 8
  call void @llvm.dbg.declare(metadata i32** %5, metadata !2777, metadata !DIExpression()), !dbg !2778
  store i32* %1, i32** %6, align 8
  call void @llvm.dbg.declare(metadata i32** %6, metadata !2779, metadata !DIExpression()), !dbg !2780
  store i32* %2, i32** %7, align 8
  call void @llvm.dbg.declare(metadata i32** %7, metadata !2781, metadata !DIExpression()), !dbg !2782
  store %"class.std::allocator.0"* %3, %"class.std::allocator.0"** %8, align 8
  call void @llvm.dbg.declare(metadata %"class.std::allocator.0"** %8, metadata !2783, metadata !DIExpression()), !dbg !2784
  %9 = load i32*, i32** %5, align 8, !dbg !2785
  %10 = load i32*, i32** %6, align 8, !dbg !2786
  %11 = load i32*, i32** %7, align 8, !dbg !2787
  %12 = call i32* @_ZSt18uninitialized_copyIPKiPiET0_T_S4_S3_(i32* %9, i32* %10, i32* %11), !dbg !2788
  ret i32* %12, !dbg !2789
}

; Function Attrs: noinline nounwind uwtable
define linkonce_odr i64 @_ZSt10__distanceIPKiENSt15iterator_traitsIT_E15difference_typeES3_S3_St26random_access_iterator_tag(i32* %0, i32* %1) #5 comdat !dbg !2790 {
  %3 = alloca %"struct.std::random_access_iterator_tag", align 1
  %4 = alloca i32*, align 8
  %5 = alloca i32*, align 8
  store i32* %0, i32** %4, align 8
  call void @llvm.dbg.declare(metadata i32** %4, metadata !2795, metadata !DIExpression()), !dbg !2796
  store i32* %1, i32** %5, align 8
  call void @llvm.dbg.declare(metadata i32** %5, metadata !2797, metadata !DIExpression()), !dbg !2798
  call void @llvm.dbg.declare(metadata %"struct.std::random_access_iterator_tag"* %3, metadata !2799, metadata !DIExpression()), !dbg !2800
  %6 = load i32*, i32** %5, align 8, !dbg !2801
  %7 = load i32*, i32** %4, align 8, !dbg !2802
  %8 = ptrtoint i32* %6 to i64, !dbg !2803
  %9 = ptrtoint i32* %7 to i64, !dbg !2803
  %10 = sub i64 %8, %9, !dbg !2803
  %11 = sdiv exact i64 %10, 4, !dbg !2803
  ret i64 %11, !dbg !2804
}

; Function Attrs: noinline nounwind uwtable
define linkonce_odr void @_ZSt19__iterator_categoryIPKiENSt15iterator_traitsIT_E17iterator_categoryERKS3_(i32** dereferenceable(8) %0) #5 comdat !dbg !2805 {
  %2 = alloca i32**, align 8
  store i32** %0, i32*** %2, align 8
  call void @llvm.dbg.declare(metadata i32*** %2, metadata !2813, metadata !DIExpression()), !dbg !2814
  ret void, !dbg !2815
}

; Function Attrs: noinline uwtable
define linkonce_odr i32* @_ZNSt16allocator_traitsISaIiEE8allocateERS0_m(%"class.std::allocator.0"* dereferenceable(1) %0, i64 %1) #0 comdat align 2 !dbg !2816 {
  %3 = alloca %"class.std::allocator.0"*, align 8
  %4 = alloca i64, align 8
  store %"class.std::allocator.0"* %0, %"class.std::allocator.0"** %3, align 8
  call void @llvm.dbg.declare(metadata %"class.std::allocator.0"** %3, metadata !2817, metadata !DIExpression()), !dbg !2818
  store i64 %1, i64* %4, align 8
  call void @llvm.dbg.declare(metadata i64* %4, metadata !2819, metadata !DIExpression()), !dbg !2820
  %5 = load %"class.std::allocator.0"*, %"class.std::allocator.0"** %3, align 8, !dbg !2821
  %6 = bitcast %"class.std::allocator.0"* %5 to %"class.__gnu_cxx::new_allocator.1"*, !dbg !2821
  %7 = load i64, i64* %4, align 8, !dbg !2822
  %8 = call i32* @_ZN9__gnu_cxx13new_allocatorIiE8allocateEmPKv(%"class.__gnu_cxx::new_allocator.1"* %6, i64 %7, i8* null), !dbg !2823
  ret i32* %8, !dbg !2824
}

; Function Attrs: noinline uwtable
define linkonce_odr i32* @_ZN9__gnu_cxx13new_allocatorIiE8allocateEmPKv(%"class.__gnu_cxx::new_allocator.1"* %0, i64 %1, i8* %2) #0 comdat align 2 !dbg !2825 {
  %4 = alloca %"class.__gnu_cxx::new_allocator.1"*, align 8
  %5 = alloca i64, align 8
  %6 = alloca i8*, align 8
  store %"class.__gnu_cxx::new_allocator.1"* %0, %"class.__gnu_cxx::new_allocator.1"** %4, align 8
  call void @llvm.dbg.declare(metadata %"class.__gnu_cxx::new_allocator.1"** %4, metadata !2826, metadata !DIExpression()), !dbg !2827
  store i64 %1, i64* %5, align 8
  call void @llvm.dbg.declare(metadata i64* %5, metadata !2828, metadata !DIExpression()), !dbg !2829
  store i8* %2, i8** %6, align 8
  call void @llvm.dbg.declare(metadata i8** %6, metadata !2830, metadata !DIExpression()), !dbg !2831
  %7 = load %"class.__gnu_cxx::new_allocator.1"*, %"class.__gnu_cxx::new_allocator.1"** %4, align 8
  %8 = load i64, i64* %5, align 8, !dbg !2832
  %9 = call i64 @_ZNK9__gnu_cxx13new_allocatorIiE11_M_max_sizeEv(%"class.__gnu_cxx::new_allocator.1"* %7) #11, !dbg !2834
  %10 = icmp ugt i64 %8, %9, !dbg !2835
  br i1 %10, label %11, label %12, !dbg !2836

11:                                               ; preds = %3
  call void @_ZSt17__throw_bad_allocv() #13, !dbg !2837
  unreachable, !dbg !2837

12:                                               ; preds = %3
  %13 = load i64, i64* %5, align 8, !dbg !2838
  %14 = mul i64 %13, 4, !dbg !2839
  %15 = call i8* @_Znwm(i64 %14), !dbg !2840
  %16 = bitcast i8* %15 to i32*, !dbg !2841
  ret i32* %16, !dbg !2842
}

; Function Attrs: noinline nounwind uwtable
define linkonce_odr i64 @_ZNK9__gnu_cxx13new_allocatorIiE11_M_max_sizeEv(%"class.__gnu_cxx::new_allocator.1"* %0) #5 comdat align 2 !dbg !2843 {
  %2 = alloca %"class.__gnu_cxx::new_allocator.1"*, align 8
  store %"class.__gnu_cxx::new_allocator.1"* %0, %"class.__gnu_cxx::new_allocator.1"** %2, align 8
  call void @llvm.dbg.declare(metadata %"class.__gnu_cxx::new_allocator.1"** %2, metadata !2844, metadata !DIExpression()), !dbg !2846
  %3 = load %"class.__gnu_cxx::new_allocator.1"*, %"class.__gnu_cxx::new_allocator.1"** %2, align 8
  ret i64 2305843009213693951, !dbg !2847
}

; Function Attrs: noreturn
declare void @_ZSt17__throw_bad_allocv() #6

; Function Attrs: nobuiltin
declare noalias i8* @_Znwm(i64) #8

; Function Attrs: noinline nounwind uwtable
define linkonce_odr i64 @_ZNSt6vectorIiSaIiEE11_S_max_sizeERKS0_(%"class.std::allocator.0"* dereferenceable(1) %0) #5 comdat align 2 personality i8* bitcast (i32 (...)* @__gxx_personality_v0 to i8*) !dbg !2848 {
  %2 = alloca %"class.std::allocator.0"*, align 8
  %3 = alloca i64, align 8
  %4 = alloca i64, align 8
  store %"class.std::allocator.0"* %0, %"class.std::allocator.0"** %2, align 8
  call void @llvm.dbg.declare(metadata %"class.std::allocator.0"** %2, metadata !2849, metadata !DIExpression()), !dbg !2850
  call void @llvm.dbg.declare(metadata i64* %3, metadata !2851, metadata !DIExpression()), !dbg !2853
  store i64 2305843009213693951, i64* %3, align 8, !dbg !2853
  call void @llvm.dbg.declare(metadata i64* %4, metadata !2854, metadata !DIExpression()), !dbg !2855
  %5 = load %"class.std::allocator.0"*, %"class.std::allocator.0"** %2, align 8, !dbg !2856
  %6 = call i64 @_ZNSt16allocator_traitsISaIiEE8max_sizeERKS0_(%"class.std::allocator.0"* dereferenceable(1) %5) #11, !dbg !2857
  store i64 %6, i64* %4, align 8, !dbg !2855
  %7 = invoke dereferenceable(8) i64* @_ZSt3minImERKT_S2_S2_(i64* dereferenceable(8) %3, i64* dereferenceable(8) %4)
          to label %8 unwind label %10, !dbg !2858

8:                                                ; preds = %1
  %9 = load i64, i64* %7, align 8, !dbg !2858
  ret i64 %9, !dbg !2859

10:                                               ; preds = %1
  %11 = landingpad { i8*, i32 }
          catch i8* null, !dbg !2858
  %12 = extractvalue { i8*, i32 } %11, 0, !dbg !2858
  call void @__clang_call_terminate(i8* %12) #12, !dbg !2858
  unreachable, !dbg !2858
}

; Function Attrs: noinline nounwind uwtable
define linkonce_odr void @_ZNSaIiEC2ERKS_(%"class.std::allocator.0"* %0, %"class.std::allocator.0"* dereferenceable(1) %1) unnamed_addr #5 comdat align 2 !dbg !2860 {
  %3 = alloca %"class.std::allocator.0"*, align 8
  %4 = alloca %"class.std::allocator.0"*, align 8
  store %"class.std::allocator.0"* %0, %"class.std::allocator.0"** %3, align 8
  call void @llvm.dbg.declare(metadata %"class.std::allocator.0"** %3, metadata !2861, metadata !DIExpression()), !dbg !2862
  store %"class.std::allocator.0"* %1, %"class.std::allocator.0"** %4, align 8
  call void @llvm.dbg.declare(metadata %"class.std::allocator.0"** %4, metadata !2863, metadata !DIExpression()), !dbg !2864
  %5 = load %"class.std::allocator.0"*, %"class.std::allocator.0"** %3, align 8
  %6 = bitcast %"class.std::allocator.0"* %5 to %"class.__gnu_cxx::new_allocator.1"*, !dbg !2865
  %7 = load %"class.std::allocator.0"*, %"class.std::allocator.0"** %4, align 8, !dbg !2866
  %8 = bitcast %"class.std::allocator.0"* %7 to %"class.__gnu_cxx::new_allocator.1"*, !dbg !2866
  call void @_ZN9__gnu_cxx13new_allocatorIiEC2ERKS1_(%"class.__gnu_cxx::new_allocator.1"* %6, %"class.__gnu_cxx::new_allocator.1"* dereferenceable(1) %8) #11, !dbg !2867
  ret void, !dbg !2868
}

; Function Attrs: noreturn
declare void @_ZSt20__throw_length_errorPKc(i8*) #6

; Function Attrs: noinline nounwind uwtable
define linkonce_odr i64 @_ZNSt16allocator_traitsISaIiEE8max_sizeERKS0_(%"class.std::allocator.0"* dereferenceable(1) %0) #5 comdat align 2 !dbg !2869 {
  %2 = alloca %"class.std::allocator.0"*, align 8
  store %"class.std::allocator.0"* %0, %"class.std::allocator.0"** %2, align 8
  call void @llvm.dbg.declare(metadata %"class.std::allocator.0"** %2, metadata !2870, metadata !DIExpression()), !dbg !2871
  %3 = load %"class.std::allocator.0"*, %"class.std::allocator.0"** %2, align 8, !dbg !2872
  %4 = bitcast %"class.std::allocator.0"* %3 to %"class.__gnu_cxx::new_allocator.1"*, !dbg !2872
  %5 = call i64 @_ZNK9__gnu_cxx13new_allocatorIiE8max_sizeEv(%"class.__gnu_cxx::new_allocator.1"* %4) #11, !dbg !2873
  ret i64 %5, !dbg !2874
}

; Function Attrs: noinline nounwind uwtable
define linkonce_odr dereferenceable(8) i64* @_ZSt3minImERKT_S2_S2_(i64* dereferenceable(8) %0, i64* dereferenceable(8) %1) #5 comdat !dbg !2875 {
  %3 = alloca i64*, align 8
  %4 = alloca i64*, align 8
  %5 = alloca i64*, align 8
  store i64* %0, i64** %4, align 8
  call void @llvm.dbg.declare(metadata i64** %4, metadata !2881, metadata !DIExpression()), !dbg !2882
  store i64* %1, i64** %5, align 8
  call void @llvm.dbg.declare(metadata i64** %5, metadata !2883, metadata !DIExpression()), !dbg !2884
  %6 = load i64*, i64** %5, align 8, !dbg !2885
  %7 = load i64, i64* %6, align 8, !dbg !2885
  %8 = load i64*, i64** %4, align 8, !dbg !2887
  %9 = load i64, i64* %8, align 8, !dbg !2887
  %10 = icmp ult i64 %7, %9, !dbg !2888
  br i1 %10, label %11, label %13, !dbg !2889

11:                                               ; preds = %2
  %12 = load i64*, i64** %5, align 8, !dbg !2890
  store i64* %12, i64** %3, align 8, !dbg !2891
  br label %15, !dbg !2891

13:                                               ; preds = %2
  %14 = load i64*, i64** %4, align 8, !dbg !2892
  store i64* %14, i64** %3, align 8, !dbg !2893
  br label %15, !dbg !2893

15:                                               ; preds = %13, %11
  %16 = load i64*, i64** %3, align 8, !dbg !2894
  ret i64* %16, !dbg !2894
}

; Function Attrs: noinline nounwind uwtable
define linkonce_odr i64 @_ZNK9__gnu_cxx13new_allocatorIiE8max_sizeEv(%"class.__gnu_cxx::new_allocator.1"* %0) #5 comdat align 2 !dbg !2895 {
  %2 = alloca %"class.__gnu_cxx::new_allocator.1"*, align 8
  store %"class.__gnu_cxx::new_allocator.1"* %0, %"class.__gnu_cxx::new_allocator.1"** %2, align 8
  call void @llvm.dbg.declare(metadata %"class.__gnu_cxx::new_allocator.1"** %2, metadata !2896, metadata !DIExpression()), !dbg !2897
  %3 = load %"class.__gnu_cxx::new_allocator.1"*, %"class.__gnu_cxx::new_allocator.1"** %2, align 8
  %4 = call i64 @_ZNK9__gnu_cxx13new_allocatorIiE11_M_max_sizeEv(%"class.__gnu_cxx::new_allocator.1"* %3) #11, !dbg !2898
  ret i64 %4, !dbg !2899
}

; Function Attrs: noinline uwtable
define linkonce_odr i32* @_ZSt18uninitialized_copyIPKiPiET0_T_S4_S3_(i32* %0, i32* %1, i32* %2) #0 comdat !dbg !2900 {
  %4 = alloca i32*, align 8
  %5 = alloca i32*, align 8
  %6 = alloca i32*, align 8
  %7 = alloca i8, align 1
  store i32* %0, i32** %4, align 8
  call void @llvm.dbg.declare(metadata i32** %4, metadata !2904, metadata !DIExpression()), !dbg !2905
  store i32* %1, i32** %5, align 8
  call void @llvm.dbg.declare(metadata i32** %5, metadata !2906, metadata !DIExpression()), !dbg !2907
  store i32* %2, i32** %6, align 8
  call void @llvm.dbg.declare(metadata i32** %6, metadata !2908, metadata !DIExpression()), !dbg !2909
  call void @llvm.dbg.declare(metadata i8* %7, metadata !2910, metadata !DIExpression()), !dbg !2911
  store i8 1, i8* %7, align 1, !dbg !2911
  %8 = load i32*, i32** %4, align 8, !dbg !2912
  %9 = load i32*, i32** %5, align 8, !dbg !2913
  %10 = load i32*, i32** %6, align 8, !dbg !2914
  %11 = call i32* @_ZNSt20__uninitialized_copyILb1EE13__uninit_copyIPKiPiEET0_T_S6_S5_(i32* %8, i32* %9, i32* %10), !dbg !2915
  ret i32* %11, !dbg !2916
}

; Function Attrs: noinline uwtable
define linkonce_odr i32* @_ZNSt20__uninitialized_copyILb1EE13__uninit_copyIPKiPiEET0_T_S6_S5_(i32* %0, i32* %1, i32* %2) #0 comdat align 2 !dbg !2917 {
  %4 = alloca i32*, align 8
  %5 = alloca i32*, align 8
  %6 = alloca i32*, align 8
  store i32* %0, i32** %4, align 8
  call void @llvm.dbg.declare(metadata i32** %4, metadata !2922, metadata !DIExpression()), !dbg !2923
  store i32* %1, i32** %5, align 8
  call void @llvm.dbg.declare(metadata i32** %5, metadata !2924, metadata !DIExpression()), !dbg !2925
  store i32* %2, i32** %6, align 8
  call void @llvm.dbg.declare(metadata i32** %6, metadata !2926, metadata !DIExpression()), !dbg !2927
  %7 = load i32*, i32** %4, align 8, !dbg !2928
  %8 = load i32*, i32** %5, align 8, !dbg !2929
  %9 = load i32*, i32** %6, align 8, !dbg !2930
  %10 = call i32* @_ZSt4copyIPKiPiET0_T_S4_S3_(i32* %7, i32* %8, i32* %9), !dbg !2931
  ret i32* %10, !dbg !2932
}

; Function Attrs: noinline uwtable
define linkonce_odr i32* @_ZSt4copyIPKiPiET0_T_S4_S3_(i32* %0, i32* %1, i32* %2) #0 comdat !dbg !2933 {
  %4 = alloca i32*, align 8
  %5 = alloca i32*, align 8
  %6 = alloca i32*, align 8
  store i32* %0, i32** %4, align 8
  call void @llvm.dbg.declare(metadata i32** %4, metadata !2937, metadata !DIExpression()), !dbg !2938
  store i32* %1, i32** %5, align 8
  call void @llvm.dbg.declare(metadata i32** %5, metadata !2939, metadata !DIExpression()), !dbg !2940
  store i32* %2, i32** %6, align 8
  call void @llvm.dbg.declare(metadata i32** %6, metadata !2941, metadata !DIExpression()), !dbg !2942
  %7 = load i32*, i32** %4, align 8, !dbg !2943
  %8 = call i32* @_ZSt12__miter_baseIPKiET_S2_(i32* %7), !dbg !2944
  %9 = load i32*, i32** %5, align 8, !dbg !2945
  %10 = call i32* @_ZSt12__miter_baseIPKiET_S2_(i32* %9), !dbg !2946
  %11 = load i32*, i32** %6, align 8, !dbg !2947
  %12 = call i32* @_ZSt13__copy_move_aILb0EPKiPiET1_T0_S4_S3_(i32* %8, i32* %10, i32* %11), !dbg !2948
  ret i32* %12, !dbg !2949
}

; Function Attrs: noinline uwtable
define linkonce_odr i32* @_ZSt13__copy_move_aILb0EPKiPiET1_T0_S4_S3_(i32* %0, i32* %1, i32* %2) #0 comdat !dbg !2950 {
  %4 = alloca i32*, align 8
  %5 = alloca i32*, align 8
  %6 = alloca i32*, align 8
  store i32* %0, i32** %4, align 8
  call void @llvm.dbg.declare(metadata i32** %4, metadata !2955, metadata !DIExpression()), !dbg !2956
  store i32* %1, i32** %5, align 8
  call void @llvm.dbg.declare(metadata i32** %5, metadata !2957, metadata !DIExpression()), !dbg !2958
  store i32* %2, i32** %6, align 8
  call void @llvm.dbg.declare(metadata i32** %6, metadata !2959, metadata !DIExpression()), !dbg !2960
  %7 = load i32*, i32** %4, align 8, !dbg !2961
  %8 = call i32* @_ZSt12__niter_baseIPKiET_S2_(i32* %7) #11, !dbg !2962
  %9 = load i32*, i32** %5, align 8, !dbg !2963
  %10 = call i32* @_ZSt12__niter_baseIPKiET_S2_(i32* %9) #11, !dbg !2964
  %11 = load i32*, i32** %6, align 8, !dbg !2965
  %12 = call i32* @_ZSt12__niter_baseIPiET_S1_(i32* %11) #11, !dbg !2966
  %13 = call i32* @_ZSt14__copy_move_a1ILb0EPKiPiET1_T0_S4_S3_(i32* %8, i32* %10, i32* %12), !dbg !2967
  %14 = call i32* @_ZSt12__niter_wrapIPiET_RKS1_S1_(i32** dereferenceable(8) %6, i32* %13), !dbg !2968
  ret i32* %14, !dbg !2969
}

; Function Attrs: noinline nounwind uwtable
define linkonce_odr i32* @_ZSt12__miter_baseIPKiET_S2_(i32* %0) #5 comdat !dbg !2970 {
  %2 = alloca i32*, align 8
  store i32* %0, i32** %2, align 8
  call void @llvm.dbg.declare(metadata i32** %2, metadata !2973, metadata !DIExpression()), !dbg !2974
  %3 = load i32*, i32** %2, align 8, !dbg !2975
  ret i32* %3, !dbg !2976
}

; Function Attrs: noinline nounwind uwtable
define linkonce_odr i32* @_ZSt12__niter_wrapIPiET_RKS1_S1_(i32** dereferenceable(8) %0, i32* %1) #5 comdat !dbg !2977 {
  %3 = alloca i32**, align 8
  %4 = alloca i32*, align 8
  store i32** %0, i32*** %3, align 8
  call void @llvm.dbg.declare(metadata i32*** %3, metadata !2984, metadata !DIExpression()), !dbg !2985
  store i32* %1, i32** %4, align 8
  call void @llvm.dbg.declare(metadata i32** %4, metadata !2986, metadata !DIExpression()), !dbg !2987
  %5 = load i32*, i32** %4, align 8, !dbg !2988
  ret i32* %5, !dbg !2989
}

; Function Attrs: noinline uwtable
define linkonce_odr i32* @_ZSt14__copy_move_a1ILb0EPKiPiET1_T0_S4_S3_(i32* %0, i32* %1, i32* %2) #0 comdat !dbg !2990 {
  %4 = alloca i32*, align 8
  %5 = alloca i32*, align 8
  %6 = alloca i32*, align 8
  store i32* %0, i32** %4, align 8
  call void @llvm.dbg.declare(metadata i32** %4, metadata !2991, metadata !DIExpression()), !dbg !2992
  store i32* %1, i32** %5, align 8
  call void @llvm.dbg.declare(metadata i32** %5, metadata !2993, metadata !DIExpression()), !dbg !2994
  store i32* %2, i32** %6, align 8
  call void @llvm.dbg.declare(metadata i32** %6, metadata !2995, metadata !DIExpression()), !dbg !2996
  %7 = load i32*, i32** %4, align 8, !dbg !2997
  %8 = load i32*, i32** %5, align 8, !dbg !2998
  %9 = load i32*, i32** %6, align 8, !dbg !2999
  %10 = call i32* @_ZSt14__copy_move_a2ILb0EPKiPiET1_T0_S4_S3_(i32* %7, i32* %8, i32* %9), !dbg !3000
  ret i32* %10, !dbg !3001
}

; Function Attrs: noinline nounwind uwtable
define linkonce_odr i32* @_ZSt12__niter_baseIPKiET_S2_(i32* %0) #5 comdat !dbg !3002 {
  %2 = alloca i32*, align 8
  store i32* %0, i32** %2, align 8
  call void @llvm.dbg.declare(metadata i32** %2, metadata !3003, metadata !DIExpression()), !dbg !3004
  %3 = load i32*, i32** %2, align 8, !dbg !3005
  ret i32* %3, !dbg !3006
}

; Function Attrs: noinline nounwind uwtable
define linkonce_odr i32* @_ZSt12__niter_baseIPiET_S1_(i32* %0) #5 comdat !dbg !3007 {
  %2 = alloca i32*, align 8
  store i32* %0, i32** %2, align 8
  call void @llvm.dbg.declare(metadata i32** %2, metadata !3010, metadata !DIExpression()), !dbg !3011
  %3 = load i32*, i32** %2, align 8, !dbg !3012
  ret i32* %3, !dbg !3013
}

; Function Attrs: noinline uwtable
define linkonce_odr i32* @_ZSt14__copy_move_a2ILb0EPKiPiET1_T0_S4_S3_(i32* %0, i32* %1, i32* %2) #0 comdat !dbg !3014 {
  %4 = alloca i32*, align 8
  %5 = alloca i32*, align 8
  %6 = alloca i32*, align 8
  store i32* %0, i32** %4, align 8
  call void @llvm.dbg.declare(metadata i32** %4, metadata !3015, metadata !DIExpression()), !dbg !3016
  store i32* %1, i32** %5, align 8
  call void @llvm.dbg.declare(metadata i32** %5, metadata !3017, metadata !DIExpression()), !dbg !3018
  store i32* %2, i32** %6, align 8
  call void @llvm.dbg.declare(metadata i32** %6, metadata !3019, metadata !DIExpression()), !dbg !3020
  %7 = load i32*, i32** %4, align 8, !dbg !3021
  %8 = load i32*, i32** %5, align 8, !dbg !3022
  %9 = load i32*, i32** %6, align 8, !dbg !3023
  %10 = call i32* @_ZNSt11__copy_moveILb0ELb1ESt26random_access_iterator_tagE8__copy_mIiEEPT_PKS3_S6_S4_(i32* %7, i32* %8, i32* %9), !dbg !3024
  ret i32* %10, !dbg !3025
}

; Function Attrs: noinline nounwind uwtable
define linkonce_odr i32* @_ZNSt11__copy_moveILb0ELb1ESt26random_access_iterator_tagE8__copy_mIiEEPT_PKS3_S6_S4_(i32* %0, i32* %1, i32* %2) #5 comdat align 2 !dbg !3026 {
  %4 = alloca i32*, align 8
  %5 = alloca i32*, align 8
  %6 = alloca i32*, align 8
  %7 = alloca i64, align 8
  store i32* %0, i32** %4, align 8
  call void @llvm.dbg.declare(metadata i32** %4, metadata !3032, metadata !DIExpression()), !dbg !3033
  store i32* %1, i32** %5, align 8
  call void @llvm.dbg.declare(metadata i32** %5, metadata !3034, metadata !DIExpression()), !dbg !3035
  store i32* %2, i32** %6, align 8
  call void @llvm.dbg.declare(metadata i32** %6, metadata !3036, metadata !DIExpression()), !dbg !3037
  call void @llvm.dbg.declare(metadata i64* %7, metadata !3038, metadata !DIExpression()), !dbg !3040
  %8 = load i32*, i32** %5, align 8, !dbg !3041
  %9 = load i32*, i32** %4, align 8, !dbg !3042
  %10 = ptrtoint i32* %8 to i64, !dbg !3043
  %11 = ptrtoint i32* %9 to i64, !dbg !3043
  %12 = sub i64 %10, %11, !dbg !3043
  %13 = sdiv exact i64 %12, 4, !dbg !3043
  store i64 %13, i64* %7, align 8, !dbg !3040
  %14 = load i64, i64* %7, align 8, !dbg !3044
  %15 = icmp ne i64 %14, 0, !dbg !3044
  br i1 %15, label %16, label %23, !dbg !3046

16:                                               ; preds = %3
  %17 = load i32*, i32** %6, align 8, !dbg !3047
  %18 = bitcast i32* %17 to i8*, !dbg !3048
  %19 = load i32*, i32** %4, align 8, !dbg !3049
  %20 = bitcast i32* %19 to i8*, !dbg !3048
  %21 = load i64, i64* %7, align 8, !dbg !3050
  %22 = mul i64 4, %21, !dbg !3051
  call void @llvm.memmove.p0i8.p0i8.i64(i8* align 4 %18, i8* align 4 %20, i64 %22, i1 false), !dbg !3048
  br label %23, !dbg !3048

23:                                               ; preds = %16, %3
  %24 = load i32*, i32** %6, align 8, !dbg !3052
  %25 = load i64, i64* %7, align 8, !dbg !3053
  %26 = getelementptr inbounds i32, i32* %24, i64 %25, !dbg !3054
  ret i32* %26, !dbg !3055
}

; Function Attrs: argmemonly nounwind willreturn
declare void @llvm.memmove.p0i8.p0i8.i64(i8* nocapture, i8* nocapture readonly, i64, i1 immarg) #9

; Function Attrs: noinline nounwind uwtable
define linkonce_odr i64 @_ZNKSt16initializer_listIiE4sizeEv(%"class.std::initializer_list"* %0) #5 comdat align 2 !dbg !3056 {
  %2 = alloca %"class.std::initializer_list"*, align 8
  store %"class.std::initializer_list"* %0, %"class.std::initializer_list"** %2, align 8
  call void @llvm.dbg.declare(metadata %"class.std::initializer_list"** %2, metadata !3057, metadata !DIExpression()), !dbg !3058
  %3 = load %"class.std::initializer_list"*, %"class.std::initializer_list"** %2, align 8
  %4 = getelementptr inbounds %"class.std::initializer_list", %"class.std::initializer_list"* %3, i32 0, i32 1, !dbg !3059
  %5 = load i64, i64* %4, align 8, !dbg !3059
  ret i64 %5, !dbg !3060
}

; Function Attrs: noinline uwtable
define linkonce_odr void @_ZNSt12_Vector_baseIiSaIiEE13_M_deallocateEPim(%"struct.std::_Vector_base"* %0, i32* %1, i64 %2) #0 comdat align 2 !dbg !3061 {
  %4 = alloca %"struct.std::_Vector_base"*, align 8
  %5 = alloca i32*, align 8
  %6 = alloca i64, align 8
  store %"struct.std::_Vector_base"* %0, %"struct.std::_Vector_base"** %4, align 8
  call void @llvm.dbg.declare(metadata %"struct.std::_Vector_base"** %4, metadata !3062, metadata !DIExpression()), !dbg !3063
  store i32* %1, i32** %5, align 8
  call void @llvm.dbg.declare(metadata i32** %5, metadata !3064, metadata !DIExpression()), !dbg !3065
  store i64 %2, i64* %6, align 8
  call void @llvm.dbg.declare(metadata i64* %6, metadata !3066, metadata !DIExpression()), !dbg !3067
  %7 = load %"struct.std::_Vector_base"*, %"struct.std::_Vector_base"** %4, align 8
  %8 = load i32*, i32** %5, align 8, !dbg !3068
  %9 = icmp ne i32* %8, null, !dbg !3068
  br i1 %9, label %10, label %15, !dbg !3070

10:                                               ; preds = %3
  %11 = getelementptr inbounds %"struct.std::_Vector_base", %"struct.std::_Vector_base"* %7, i32 0, i32 0, !dbg !3071
  %12 = bitcast %"struct.std::_Vector_base<int, std::allocator<int> >::_Vector_impl"* %11 to %"class.std::allocator.0"*, !dbg !3071
  %13 = load i32*, i32** %5, align 8, !dbg !3072
  %14 = load i64, i64* %6, align 8, !dbg !3073
  call void @_ZNSt16allocator_traitsISaIiEE10deallocateERS0_Pim(%"class.std::allocator.0"* dereferenceable(1) %12, i32* %13, i64 %14), !dbg !3074
  br label %15, !dbg !3074

15:                                               ; preds = %10, %3
  ret void, !dbg !3075
}

; Function Attrs: noinline nounwind uwtable
define linkonce_odr void @_ZNSt12_Vector_baseIiSaIiEE12_Vector_implD2Ev(%"struct.std::_Vector_base<int, std::allocator<int> >::_Vector_impl"* %0) unnamed_addr #5 comdat align 2 !dbg !3076 {
  %2 = alloca %"struct.std::_Vector_base<int, std::allocator<int> >::_Vector_impl"*, align 8
  store %"struct.std::_Vector_base<int, std::allocator<int> >::_Vector_impl"* %0, %"struct.std::_Vector_base<int, std::allocator<int> >::_Vector_impl"** %2, align 8
  call void @llvm.dbg.declare(metadata %"struct.std::_Vector_base<int, std::allocator<int> >::_Vector_impl"** %2, metadata !3078, metadata !DIExpression()), !dbg !3079
  %3 = load %"struct.std::_Vector_base<int, std::allocator<int> >::_Vector_impl"*, %"struct.std::_Vector_base<int, std::allocator<int> >::_Vector_impl"** %2, align 8
  %4 = bitcast %"struct.std::_Vector_base<int, std::allocator<int> >::_Vector_impl"* %3 to %"class.std::allocator.0"*, !dbg !3080
  call void @_ZNSaIiED2Ev(%"class.std::allocator.0"* %4) #11, !dbg !3080
  ret void, !dbg !3082
}

; Function Attrs: noinline uwtable
define linkonce_odr void @_ZNSt16allocator_traitsISaIiEE10deallocateERS0_Pim(%"class.std::allocator.0"* dereferenceable(1) %0, i32* %1, i64 %2) #0 comdat align 2 !dbg !3083 {
  %4 = alloca %"class.std::allocator.0"*, align 8
  %5 = alloca i32*, align 8
  %6 = alloca i64, align 8
  store %"class.std::allocator.0"* %0, %"class.std::allocator.0"** %4, align 8
  call void @llvm.dbg.declare(metadata %"class.std::allocator.0"** %4, metadata !3084, metadata !DIExpression()), !dbg !3085
  store i32* %1, i32** %5, align 8
  call void @llvm.dbg.declare(metadata i32** %5, metadata !3086, metadata !DIExpression()), !dbg !3087
  store i64 %2, i64* %6, align 8
  call void @llvm.dbg.declare(metadata i64* %6, metadata !3088, metadata !DIExpression()), !dbg !3089
  %7 = load %"class.std::allocator.0"*, %"class.std::allocator.0"** %4, align 8, !dbg !3090
  %8 = bitcast %"class.std::allocator.0"* %7 to %"class.__gnu_cxx::new_allocator.1"*, !dbg !3090
  %9 = load i32*, i32** %5, align 8, !dbg !3091
  %10 = load i64, i64* %6, align 8, !dbg !3092
  call void @_ZN9__gnu_cxx13new_allocatorIiE10deallocateEPim(%"class.__gnu_cxx::new_allocator.1"* %8, i32* %9, i64 %10), !dbg !3093
  ret void, !dbg !3094
}

; Function Attrs: noinline nounwind uwtable
define linkonce_odr void @_ZN9__gnu_cxx13new_allocatorIiE10deallocateEPim(%"class.__gnu_cxx::new_allocator.1"* %0, i32* %1, i64 %2) #5 comdat align 2 !dbg !3095 {
  %4 = alloca %"class.__gnu_cxx::new_allocator.1"*, align 8
  %5 = alloca i32*, align 8
  %6 = alloca i64, align 8
  store %"class.__gnu_cxx::new_allocator.1"* %0, %"class.__gnu_cxx::new_allocator.1"** %4, align 8
  call void @llvm.dbg.declare(metadata %"class.__gnu_cxx::new_allocator.1"** %4, metadata !3096, metadata !DIExpression()), !dbg !3097
  store i32* %1, i32** %5, align 8
  call void @llvm.dbg.declare(metadata i32** %5, metadata !3098, metadata !DIExpression()), !dbg !3099
  store i64 %2, i64* %6, align 8
  call void @llvm.dbg.declare(metadata i64* %6, metadata !3100, metadata !DIExpression()), !dbg !3101
  %7 = load %"class.__gnu_cxx::new_allocator.1"*, %"class.__gnu_cxx::new_allocator.1"** %4, align 8
  %8 = load i32*, i32** %5, align 8, !dbg !3102
  %9 = bitcast i32* %8 to i8*, !dbg !3102
  call void @_ZdlPv(i8* %9) #11, !dbg !3103
  ret void, !dbg !3104
}

; Function Attrs: nobuiltin nounwind
declare void @_ZdlPv(i8*) #10

; Function Attrs: noinline uwtable
define linkonce_odr void @_ZSt8_DestroyIPiiEvT_S1_RSaIT0_E(i32* %0, i32* %1, %"class.std::allocator.0"* dereferenceable(1) %2) #0 comdat !dbg !3105 {
  %4 = alloca i32*, align 8
  %5 = alloca i32*, align 8
  %6 = alloca %"class.std::allocator.0"*, align 8
  store i32* %0, i32** %4, align 8
  call void @llvm.dbg.declare(metadata i32** %4, metadata !3109, metadata !DIExpression()), !dbg !3110
  store i32* %1, i32** %5, align 8
  call void @llvm.dbg.declare(metadata i32** %5, metadata !3111, metadata !DIExpression()), !dbg !3112
  store %"class.std::allocator.0"* %2, %"class.std::allocator.0"** %6, align 8
  call void @llvm.dbg.declare(metadata %"class.std::allocator.0"** %6, metadata !3113, metadata !DIExpression()), !dbg !3114
  %7 = load i32*, i32** %4, align 8, !dbg !3115
  %8 = load i32*, i32** %5, align 8, !dbg !3116
  call void @_ZSt8_DestroyIPiEvT_S1_(i32* %7, i32* %8), !dbg !3117
  ret void, !dbg !3118
}

; Function Attrs: noinline uwtable
define linkonce_odr void @_ZSt8_DestroyIPiEvT_S1_(i32* %0, i32* %1) #0 comdat !dbg !3119 {
  %3 = alloca i32*, align 8
  %4 = alloca i32*, align 8
  store i32* %0, i32** %3, align 8
  call void @llvm.dbg.declare(metadata i32** %3, metadata !3124, metadata !DIExpression()), !dbg !3125
  store i32* %1, i32** %4, align 8
  call void @llvm.dbg.declare(metadata i32** %4, metadata !3126, metadata !DIExpression()), !dbg !3127
  %5 = load i32*, i32** %3, align 8, !dbg !3128
  %6 = load i32*, i32** %4, align 8, !dbg !3129
  call void @_ZNSt12_Destroy_auxILb1EE9__destroyIPiEEvT_S3_(i32* %5, i32* %6), !dbg !3130
  ret void, !dbg !3131
}

; Function Attrs: noinline nounwind uwtable
define linkonce_odr void @_ZNSt12_Destroy_auxILb1EE9__destroyIPiEEvT_S3_(i32* %0, i32* %1) #5 comdat align 2 !dbg !3132 {
  %3 = alloca i32*, align 8
  %4 = alloca i32*, align 8
  store i32* %0, i32** %3, align 8
  call void @llvm.dbg.declare(metadata i32** %3, metadata !3137, metadata !DIExpression()), !dbg !3138
  store i32* %1, i32** %4, align 8
  call void @llvm.dbg.declare(metadata i32** %4, metadata !3139, metadata !DIExpression()), !dbg !3140
  ret void, !dbg !3141
}

attributes #0 = { noinline uwtable "correctly-rounded-divide-sqrt-fp-math"="false" "disable-tail-calls"="false" "frame-pointer"="all" "less-precise-fpmad"="false" "min-legal-vector-width"="0" "no-infs-fp-math"="false" "no-jump-tables"="false" "no-nans-fp-math"="false" "no-signed-zeros-fp-math"="false" "no-trapping-math"="false" "stack-protector-buffer-size"="8" "target-cpu"="x86-64" "target-features"="+cx8,+fxsr,+mmx,+sse,+sse2,+x87" "unsafe-fp-math"="false" "use-soft-float"="false" }
attributes #1 = { nounwind readnone speculatable willreturn }
attributes #2 = { nounwind "correctly-rounded-divide-sqrt-fp-math"="false" "disable-tail-calls"="false" "frame-pointer"="all" "less-precise-fpmad"="false" "no-infs-fp-math"="false" "no-nans-fp-math"="false" "no-signed-zeros-fp-math"="false" "no-trapping-math"="false" "stack-protector-buffer-size"="8" "target-cpu"="x86-64" "target-features"="+cx8,+fxsr,+mmx,+sse,+sse2,+x87" "unsafe-fp-math"="false" "use-soft-float"="false" }
attributes #3 = { "correctly-rounded-divide-sqrt-fp-math"="false" "disable-tail-calls"="false" "frame-pointer"="all" "less-precise-fpmad"="false" "no-infs-fp-math"="false" "no-nans-fp-math"="false" "no-signed-zeros-fp-math"="false" "no-trapping-math"="false" "stack-protector-buffer-size"="8" "target-cpu"="x86-64" "target-features"="+cx8,+fxsr,+mmx,+sse,+sse2,+x87" "unsafe-fp-math"="false" "use-soft-float"="false" }
attributes #4 = { noinline norecurse uwtable "correctly-rounded-divide-sqrt-fp-math"="false" "disable-tail-calls"="false" "frame-pointer"="all" "less-precise-fpmad"="false" "min-legal-vector-width"="0" "no-infs-fp-math"="false" "no-jump-tables"="false" "no-nans-fp-math"="false" "no-signed-zeros-fp-math"="false" "no-trapping-math"="false" "stack-protector-buffer-size"="8" "target-cpu"="x86-64" "target-features"="+cx8,+fxsr,+mmx,+sse,+sse2,+x87" "unsafe-fp-math"="false" "use-soft-float"="false" }
attributes #5 = { noinline nounwind uwtable "correctly-rounded-divide-sqrt-fp-math"="false" "disable-tail-calls"="false" "frame-pointer"="all" "less-precise-fpmad"="false" "min-legal-vector-width"="0" "no-infs-fp-math"="false" "no-jump-tables"="false" "no-nans-fp-math"="false" "no-signed-zeros-fp-math"="false" "no-trapping-math"="false" "stack-protector-buffer-size"="8" "target-cpu"="x86-64" "target-features"="+cx8,+fxsr,+mmx,+sse,+sse2,+x87" "unsafe-fp-math"="false" "use-soft-float"="false" }
attributes #6 = { noreturn "correctly-rounded-divide-sqrt-fp-math"="false" "disable-tail-calls"="false" "frame-pointer"="all" "less-precise-fpmad"="false" "no-infs-fp-math"="false" "no-nans-fp-math"="false" "no-signed-zeros-fp-math"="false" "no-trapping-math"="false" "stack-protector-buffer-size"="8" "target-cpu"="x86-64" "target-features"="+cx8,+fxsr,+mmx,+sse,+sse2,+x87" "unsafe-fp-math"="false" "use-soft-float"="false" }
attributes #7 = { noinline noreturn nounwind }
attributes #8 = { nobuiltin "correctly-rounded-divide-sqrt-fp-math"="false" "disable-tail-calls"="false" "frame-pointer"="all" "less-precise-fpmad"="false" "no-infs-fp-math"="false" "no-nans-fp-math"="false" "no-signed-zeros-fp-math"="false" "no-trapping-math"="false" "stack-protector-buffer-size"="8" "target-cpu"="x86-64" "target-features"="+cx8,+fxsr,+mmx,+sse,+sse2,+x87" "unsafe-fp-math"="false" "use-soft-float"="false" }
attributes #9 = { argmemonly nounwind willreturn }
attributes #10 = { nobuiltin nounwind "correctly-rounded-divide-sqrt-fp-math"="false" "disable-tail-calls"="false" "frame-pointer"="all" "less-precise-fpmad"="false" "no-infs-fp-math"="false" "no-nans-fp-math"="false" "no-signed-zeros-fp-math"="false" "no-trapping-math"="false" "stack-protector-buffer-size"="8" "target-cpu"="x86-64" "target-features"="+cx8,+fxsr,+mmx,+sse,+sse2,+x87" "unsafe-fp-math"="false" "use-soft-float"="false" }
attributes #11 = { nounwind }
attributes #12 = { noreturn nounwind }
attributes #13 = { noreturn }

!llvm.dbg.cu = !{!11}
!llvm.module.flags = !{!1739, !1740, !1741, !1742}
!llvm.ident = !{!1743}

!0 = !DIGlobalVariableExpression(var: !1, expr: !DIExpression())
!1 = distinct !DIGlobalVariable(name: "__digits", scope: !2, file: !3, line: 77, type: !1735, isLocal: false, isDefinition: true)
!2 = distinct !DISubprogram(name: "__to_chars_10_impl<unsigned int>", linkageName: "_ZNSt8__detail18__to_chars_10_implIjEEvPcjT_", scope: !4, file: !3, line: 72, type: !6, scopeLine: 73, flags: DIFlagPrototyped, spFlags: DISPFlagDefinition, unit: !11, templateParams: !1733, retainedNodes: !202)
!3 = !DIFile(filename: "/usr/bin/../lib/gcc/x86_64-linux-gnu/10/../../../../include/c++/10/bits/charconv.h", directory: "")
!4 = !DINamespace(name: "__detail", scope: !5)
!5 = !DINamespace(name: "std", scope: null)
!6 = !DISubroutineType(types: !7)
!7 = !{null, !8, !10, !10}
!8 = !DIDerivedType(tag: DW_TAG_pointer_type, baseType: !9, size: 64)
!9 = !DIBasicType(name: "char", size: 8, encoding: DW_ATE_signed_char)
!10 = !DIBasicType(name: "unsigned int", size: 32, encoding: DW_ATE_unsigned)
!11 = distinct !DICompileUnit(language: DW_LANG_C_plus_plus_14, file: !12, producer: "clang version 10.0.0-4ubuntu1 ", isOptimized: false, runtimeVersion: 0, emissionKind: FullDebug, enums: !13, retainedTypes: !21, globals: !582, imports: !583, splitDebugInlining: false, nameTableKind: None)
!12 = !DIFile(filename: "src/montyhall.cpp", directory: "/home/clustfuzz/Documents/Research/PSE-Program-Examples")
!13 = !{!14}
!14 = !DICompositeType(tag: DW_TAG_enumeration_type, scope: !16, file: !15, line: 169, baseType: !10, size: 32, elements: !19, identifier: "_ZTSNSt7__cxx1112basic_stringIcSt11char_traitsIcESaIcEEUt_E")
!15 = !DIFile(filename: "/usr/bin/../lib/gcc/x86_64-linux-gnu/10/../../../../include/c++/10/bits/basic_string.h", directory: "")
!16 = !DICompositeType(tag: DW_TAG_class_type, name: "basic_string<char, std::char_traits<char>, std::allocator<char> >", scope: !18, file: !17, line: 1610, flags: DIFlagFwdDecl, identifier: "_ZTSNSt7__cxx1112basic_stringIcSt11char_traitsIcESaIcEEE")
!17 = !DIFile(filename: "/usr/bin/../lib/gcc/x86_64-linux-gnu/10/../../../../include/c++/10/bits/basic_string.tcc", directory: "")
!18 = !DINamespace(name: "__cxx11", scope: !5, exportSymbols: true)
!19 = !{!20}
!20 = !DIEnumerator(name: "_S_local_capacity", value: 15, isUnsigned: true)
!21 = !{!22, !23, !10, !24, !85, !50, !43, !87, !16}
!22 = !DIBasicType(name: "double", size: 64, encoding: DW_ATE_float)
!23 = !DIDerivedType(tag: DW_TAG_pointer_type, baseType: !22, size: 64)
!24 = !DIDerivedType(tag: DW_TAG_typedef, name: "size_type", scope: !16, file: !15, line: 88, baseType: !25)
!25 = !DIDerivedType(tag: DW_TAG_typedef, name: "size_type", scope: !27, file: !26, line: 59, baseType: !58)
!26 = !DIFile(filename: "/usr/bin/../lib/gcc/x86_64-linux-gnu/10/../../../../include/c++/10/ext/alloc_traits.h", directory: "")
!27 = distinct !DICompositeType(tag: DW_TAG_structure_type, name: "__alloc_traits<std::allocator<char>, char>", scope: !28, file: !26, line: 48, size: 8, flags: DIFlagTypePassByValue, elements: !29, templateParams: !83, identifier: "_ZTSN9__gnu_cxx14__alloc_traitsISaIcEcEE")
!28 = !DINamespace(name: "__gnu_cxx", scope: null)
!29 = !{!30, !66, !71, !75, !79, !80, !81, !82}
!30 = !DIDerivedType(tag: DW_TAG_inheritance, scope: !27, baseType: !31, extraData: i32 0)
!31 = distinct !DICompositeType(tag: DW_TAG_structure_type, name: "allocator_traits<std::allocator<char> >", scope: !5, file: !32, line: 407, size: 8, flags: DIFlagTypePassByValue, elements: !33, templateParams: !64, identifier: "_ZTSSt16allocator_traitsISaIcEE")
!32 = !DIFile(filename: "/usr/bin/../lib/gcc/x86_64-linux-gnu/10/../../../../include/c++/10/bits/alloc_traits.h", directory: "")
!33 = !{!34, !46, !52, !55, !61}
!34 = !DISubprogram(name: "allocate", linkageName: "_ZNSt16allocator_traitsISaIcEE8allocateERS0_m", scope: !31, file: !32, line: 459, type: !35, scopeLine: 459, flags: DIFlagPrototyped | DIFlagStaticMember, spFlags: 0)
!35 = !DISubroutineType(types: !36)
!36 = !{!37, !38, !42}
!37 = !DIDerivedType(tag: DW_TAG_typedef, name: "pointer", scope: !31, file: !32, line: 416, baseType: !8)
!38 = !DIDerivedType(tag: DW_TAG_reference_type, baseType: !39, size: 64)
!39 = !DIDerivedType(tag: DW_TAG_typedef, name: "allocator_type", scope: !31, file: !32, line: 410, baseType: !40)
!40 = !DICompositeType(tag: DW_TAG_class_type, name: "allocator<char>", scope: !5, file: !41, line: 249, flags: DIFlagFwdDecl, identifier: "_ZTSSaIcE")
!41 = !DIFile(filename: "/usr/bin/../lib/gcc/x86_64-linux-gnu/10/../../../../include/c++/10/bits/allocator.h", directory: "")
!42 = !DIDerivedType(tag: DW_TAG_typedef, name: "size_type", file: !32, line: 431, baseType: !43)
!43 = !DIDerivedType(tag: DW_TAG_typedef, name: "size_t", scope: !5, file: !44, line: 264, baseType: !45)
!44 = !DIFile(filename: "/usr/bin/../lib/gcc/x86_64-linux-gnu/10/../../../../include/x86_64-linux-gnu/c++/10/bits/c++config.h", directory: "")
!45 = !DIBasicType(name: "long unsigned int", size: 64, encoding: DW_ATE_unsigned)
!46 = !DISubprogram(name: "allocate", linkageName: "_ZNSt16allocator_traitsISaIcEE8allocateERS0_mPKv", scope: !31, file: !32, line: 473, type: !47, scopeLine: 473, flags: DIFlagPrototyped | DIFlagStaticMember, spFlags: 0)
!47 = !DISubroutineType(types: !48)
!48 = !{!37, !38, !42, !49}
!49 = !DIDerivedType(tag: DW_TAG_typedef, name: "const_void_pointer", file: !32, line: 425, baseType: !50)
!50 = !DIDerivedType(tag: DW_TAG_pointer_type, baseType: !51, size: 64)
!51 = !DIDerivedType(tag: DW_TAG_const_type, baseType: null)
!52 = !DISubprogram(name: "deallocate", linkageName: "_ZNSt16allocator_traitsISaIcEE10deallocateERS0_Pcm", scope: !31, file: !32, line: 491, type: !53, scopeLine: 491, flags: DIFlagPrototyped | DIFlagStaticMember, spFlags: 0)
!53 = !DISubroutineType(types: !54)
!54 = !{null, !38, !37, !42}
!55 = !DISubprogram(name: "max_size", linkageName: "_ZNSt16allocator_traitsISaIcEE8max_sizeERKS0_", scope: !31, file: !32, line: 543, type: !56, scopeLine: 543, flags: DIFlagPrototyped | DIFlagStaticMember, spFlags: 0)
!56 = !DISubroutineType(types: !57)
!57 = !{!58, !59}
!58 = !DIDerivedType(tag: DW_TAG_typedef, name: "size_type", scope: !31, file: !32, line: 431, baseType: !43)
!59 = !DIDerivedType(tag: DW_TAG_reference_type, baseType: !60, size: 64)
!60 = !DIDerivedType(tag: DW_TAG_const_type, baseType: !39)
!61 = !DISubprogram(name: "select_on_container_copy_construction", linkageName: "_ZNSt16allocator_traitsISaIcEE37select_on_container_copy_constructionERKS0_", scope: !31, file: !32, line: 558, type: !62, scopeLine: 558, flags: DIFlagPrototyped | DIFlagStaticMember, spFlags: 0)
!62 = !DISubroutineType(types: !63)
!63 = !{!39, !59}
!64 = !{!65}
!65 = !DITemplateTypeParameter(name: "_Alloc", type: !40)
!66 = !DISubprogram(name: "_S_select_on_copy", linkageName: "_ZN9__gnu_cxx14__alloc_traitsISaIcEcE17_S_select_on_copyERKS1_", scope: !27, file: !26, line: 97, type: !67, scopeLine: 97, flags: DIFlagPrototyped | DIFlagStaticMember, spFlags: 0)
!67 = !DISubroutineType(types: !68)
!68 = !{!40, !69}
!69 = !DIDerivedType(tag: DW_TAG_reference_type, baseType: !70, size: 64)
!70 = !DIDerivedType(tag: DW_TAG_const_type, baseType: !40)
!71 = !DISubprogram(name: "_S_on_swap", linkageName: "_ZN9__gnu_cxx14__alloc_traitsISaIcEcE10_S_on_swapERS1_S3_", scope: !27, file: !26, line: 100, type: !72, scopeLine: 100, flags: DIFlagPrototyped | DIFlagStaticMember, spFlags: 0)
!72 = !DISubroutineType(types: !73)
!73 = !{null, !74, !74}
!74 = !DIDerivedType(tag: DW_TAG_reference_type, baseType: !40, size: 64)
!75 = !DISubprogram(name: "_S_propagate_on_copy_assign", linkageName: "_ZN9__gnu_cxx14__alloc_traitsISaIcEcE27_S_propagate_on_copy_assignEv", scope: !27, file: !26, line: 103, type: !76, scopeLine: 103, flags: DIFlagPrototyped | DIFlagStaticMember, spFlags: 0)
!76 = !DISubroutineType(types: !77)
!77 = !{!78}
!78 = !DIBasicType(name: "bool", size: 8, encoding: DW_ATE_boolean)
!79 = !DISubprogram(name: "_S_propagate_on_move_assign", linkageName: "_ZN9__gnu_cxx14__alloc_traitsISaIcEcE27_S_propagate_on_move_assignEv", scope: !27, file: !26, line: 106, type: !76, scopeLine: 106, flags: DIFlagPrototyped | DIFlagStaticMember, spFlags: 0)
!80 = !DISubprogram(name: "_S_propagate_on_swap", linkageName: "_ZN9__gnu_cxx14__alloc_traitsISaIcEcE20_S_propagate_on_swapEv", scope: !27, file: !26, line: 109, type: !76, scopeLine: 109, flags: DIFlagPrototyped | DIFlagStaticMember, spFlags: 0)
!81 = !DISubprogram(name: "_S_always_equal", linkageName: "_ZN9__gnu_cxx14__alloc_traitsISaIcEcE15_S_always_equalEv", scope: !27, file: !26, line: 112, type: !76, scopeLine: 112, flags: DIFlagPrototyped | DIFlagStaticMember, spFlags: 0)
!82 = !DISubprogram(name: "_S_nothrow_move", linkageName: "_ZN9__gnu_cxx14__alloc_traitsISaIcEcE15_S_nothrow_moveEv", scope: !27, file: !26, line: 115, type: !76, scopeLine: 115, flags: DIFlagPrototyped | DIFlagStaticMember, spFlags: 0)
!83 = !{!65, !84}
!84 = !DITemplateTypeParameter(type: !9)
!85 = !DIDerivedType(tag: DW_TAG_pointer_type, baseType: !86, size: 64)
!86 = !DIBasicType(name: "int", size: 32, encoding: DW_ATE_signed)
!87 = !DIDerivedType(tag: DW_TAG_typedef, name: "_Tp_alloc_type", scope: !89, file: !88, line: 410, baseType: !98)
!88 = !DIFile(filename: "/usr/bin/../lib/gcc/x86_64-linux-gnu/10/../../../../include/c++/10/bits/stl_vector.h", directory: "")
!89 = distinct !DICompositeType(tag: DW_TAG_class_type, name: "vector<int, std::allocator<int> >", scope: !5, file: !88, line: 389, size: 192, flags: DIFlagTypePassByReference | DIFlagNonTrivial, elements: !90, templateParams: !298, identifier: "_ZTSSt6vectorIiSaIiEE")
!90 = !{!91, !299, !318, !334, !335, !340, !343, !346, !350, !356, !360, !366, !371, !375, !378, !381, !384, !387, !416, !417, !421, !424, !427, !430, !433, !439, !445, !446, !447, !452, !457, !458, !459, !460, !461, !462, !463, !466, !467, !470, !471, !472, !473, !476, !477, !485, !492, !495, !496, !497, !500, !503, !504, !505, !508, !511, !514, !518, !519, !522, !525, !528, !531, !534, !537, !540, !541, !542, !543, !544, !547, !548, !551, !552, !553, !559, !562, !567, !570, !573, !576, !579}
!91 = !DIDerivedType(tag: DW_TAG_inheritance, scope: !89, baseType: !92, flags: DIFlagProtected, extraData: i32 0)
!92 = distinct !DICompositeType(tag: DW_TAG_structure_type, name: "_Vector_base<int, std::allocator<int> >", scope: !5, file: !88, line: 84, size: 192, flags: DIFlagTypePassByReference | DIFlagNonTrivial, elements: !93, templateParams: !298, identifier: "_ZTSSt12_Vector_baseIiSaIiEE")
!93 = !{!94, !249, !254, !259, !263, !266, !271, !274, !277, !281, !284, !287, !290, !291, !294, !297}
!94 = !DIDerivedType(tag: DW_TAG_member, name: "_M_impl", scope: !92, file: !88, line: 340, baseType: !95, size: 192)
!95 = distinct !DICompositeType(tag: DW_TAG_structure_type, name: "_Vector_impl", scope: !92, file: !88, line: 128, size: 192, flags: DIFlagTypePassByReference | DIFlagNonTrivial, elements: !96, identifier: "_ZTSNSt12_Vector_baseIiSaIiEE12_Vector_implE")
!96 = !{!97, !204, !229, !233, !238, !242, !246}
!97 = !DIDerivedType(tag: DW_TAG_inheritance, scope: !95, baseType: !98, extraData: i32 0)
!98 = !DIDerivedType(tag: DW_TAG_typedef, name: "_Tp_alloc_type", scope: !92, file: !88, line: 87, baseType: !99)
!99 = !DIDerivedType(tag: DW_TAG_typedef, name: "other", scope: !100, file: !26, line: 120, baseType: !203)
!100 = distinct !DICompositeType(tag: DW_TAG_structure_type, name: "rebind<int>", scope: !101, file: !26, line: 119, size: 8, flags: DIFlagTypePassByValue, elements: !202, templateParams: !156, identifier: "_ZTSN9__gnu_cxx14__alloc_traitsISaIiEiE6rebindIiEE")
!101 = distinct !DICompositeType(tag: DW_TAG_structure_type, name: "__alloc_traits<std::allocator<int>, int>", scope: !28, file: !26, line: 48, size: 8, flags: DIFlagTypePassByValue, elements: !102, templateParams: !200, identifier: "_ZTSN9__gnu_cxx14__alloc_traitsISaIiEiEE")
!102 = !{!103, !189, !192, !195, !196, !197, !198, !199}
!103 = !DIDerivedType(tag: DW_TAG_inheritance, scope: !101, baseType: !104, extraData: i32 0)
!104 = distinct !DICompositeType(tag: DW_TAG_structure_type, name: "allocator_traits<std::allocator<int> >", scope: !5, file: !32, line: 407, size: 8, flags: DIFlagTypePassByValue, elements: !105, templateParams: !187, identifier: "_ZTSSt16allocator_traitsISaIiEE")
!105 = !{!106, !172, !175, !178, !184}
!106 = !DISubprogram(name: "allocate", linkageName: "_ZNSt16allocator_traitsISaIiEE8allocateERS0_m", scope: !104, file: !32, line: 459, type: !107, scopeLine: 459, flags: DIFlagPrototyped | DIFlagStaticMember, spFlags: 0)
!107 = !DISubroutineType(types: !108)
!108 = !{!109, !110, !42}
!109 = !DIDerivedType(tag: DW_TAG_typedef, name: "pointer", scope: !104, file: !32, line: 416, baseType: !85)
!110 = !DIDerivedType(tag: DW_TAG_reference_type, baseType: !111, size: 64)
!111 = !DIDerivedType(tag: DW_TAG_typedef, name: "allocator_type", scope: !104, file: !32, line: 410, baseType: !112)
!112 = distinct !DICompositeType(tag: DW_TAG_class_type, name: "allocator<int>", scope: !5, file: !41, line: 116, size: 8, flags: DIFlagTypePassByReference | DIFlagNonTrivial, elements: !113, templateParams: !156, identifier: "_ZTSSaIiE")
!113 = !{!114, !158, !162, !167, !171}
!114 = !DIDerivedType(tag: DW_TAG_inheritance, scope: !112, baseType: !115, flags: DIFlagPublic, extraData: i32 0)
!115 = !DIDerivedType(tag: DW_TAG_typedef, name: "__allocator_base<int>", scope: !5, file: !116, line: 48, baseType: !117)
!116 = !DIFile(filename: "/usr/bin/../lib/gcc/x86_64-linux-gnu/10/../../../../include/x86_64-linux-gnu/c++/10/bits/c++allocator.h", directory: "")
!117 = distinct !DICompositeType(tag: DW_TAG_class_type, name: "new_allocator<int>", scope: !28, file: !118, line: 55, size: 8, flags: DIFlagTypePassByReference | DIFlagNonTrivial, elements: !119, templateParams: !156, identifier: "_ZTSN9__gnu_cxx13new_allocatorIiEE")
!118 = !DIFile(filename: "/usr/bin/../lib/gcc/x86_64-linux-gnu/10/../../../../include/c++/10/ext/new_allocator.h", directory: "")
!119 = !{!120, !124, !129, !130, !137, !145, !149, !152, !155}
!120 = !DISubprogram(name: "new_allocator", scope: !117, file: !118, line: 79, type: !121, scopeLine: 79, flags: DIFlagPublic | DIFlagPrototyped, spFlags: 0)
!121 = !DISubroutineType(types: !122)
!122 = !{null, !123}
!123 = !DIDerivedType(tag: DW_TAG_pointer_type, baseType: !117, size: 64, flags: DIFlagArtificial | DIFlagObjectPointer)
!124 = !DISubprogram(name: "new_allocator", scope: !117, file: !118, line: 82, type: !125, scopeLine: 82, flags: DIFlagPublic | DIFlagPrototyped, spFlags: 0)
!125 = !DISubroutineType(types: !126)
!126 = !{null, !123, !127}
!127 = !DIDerivedType(tag: DW_TAG_reference_type, baseType: !128, size: 64)
!128 = !DIDerivedType(tag: DW_TAG_const_type, baseType: !117)
!129 = !DISubprogram(name: "~new_allocator", scope: !117, file: !118, line: 89, type: !121, scopeLine: 89, flags: DIFlagPublic | DIFlagPrototyped, spFlags: 0)
!130 = !DISubprogram(name: "address", linkageName: "_ZNK9__gnu_cxx13new_allocatorIiE7addressERi", scope: !117, file: !118, line: 92, type: !131, scopeLine: 92, flags: DIFlagPublic | DIFlagPrototyped, spFlags: 0)
!131 = !DISubroutineType(types: !132)
!132 = !{!133, !134, !135}
!133 = !DIDerivedType(tag: DW_TAG_typedef, name: "pointer", scope: !117, file: !118, line: 62, baseType: !85)
!134 = !DIDerivedType(tag: DW_TAG_pointer_type, baseType: !128, size: 64, flags: DIFlagArtificial | DIFlagObjectPointer)
!135 = !DIDerivedType(tag: DW_TAG_typedef, name: "reference", scope: !117, file: !118, line: 64, baseType: !136)
!136 = !DIDerivedType(tag: DW_TAG_reference_type, baseType: !86, size: 64)
!137 = !DISubprogram(name: "address", linkageName: "_ZNK9__gnu_cxx13new_allocatorIiE7addressERKi", scope: !117, file: !118, line: 96, type: !138, scopeLine: 96, flags: DIFlagPublic | DIFlagPrototyped, spFlags: 0)
!138 = !DISubroutineType(types: !139)
!139 = !{!140, !134, !143}
!140 = !DIDerivedType(tag: DW_TAG_typedef, name: "const_pointer", scope: !117, file: !118, line: 63, baseType: !141)
!141 = !DIDerivedType(tag: DW_TAG_pointer_type, baseType: !142, size: 64)
!142 = !DIDerivedType(tag: DW_TAG_const_type, baseType: !86)
!143 = !DIDerivedType(tag: DW_TAG_typedef, name: "const_reference", scope: !117, file: !118, line: 65, baseType: !144)
!144 = !DIDerivedType(tag: DW_TAG_reference_type, baseType: !142, size: 64)
!145 = !DISubprogram(name: "allocate", linkageName: "_ZN9__gnu_cxx13new_allocatorIiE8allocateEmPKv", scope: !117, file: !118, line: 103, type: !146, scopeLine: 103, flags: DIFlagPublic | DIFlagPrototyped, spFlags: 0)
!146 = !DISubroutineType(types: !147)
!147 = !{!85, !123, !148, !50}
!148 = !DIDerivedType(tag: DW_TAG_typedef, name: "size_type", file: !118, line: 59, baseType: !43)
!149 = !DISubprogram(name: "deallocate", linkageName: "_ZN9__gnu_cxx13new_allocatorIiE10deallocateEPim", scope: !117, file: !118, line: 120, type: !150, scopeLine: 120, flags: DIFlagPublic | DIFlagPrototyped, spFlags: 0)
!150 = !DISubroutineType(types: !151)
!151 = !{null, !123, !85, !148}
!152 = !DISubprogram(name: "max_size", linkageName: "_ZNK9__gnu_cxx13new_allocatorIiE8max_sizeEv", scope: !117, file: !118, line: 142, type: !153, scopeLine: 142, flags: DIFlagPublic | DIFlagPrototyped, spFlags: 0)
!153 = !DISubroutineType(types: !154)
!154 = !{!148, !134}
!155 = !DISubprogram(name: "_M_max_size", linkageName: "_ZNK9__gnu_cxx13new_allocatorIiE11_M_max_sizeEv", scope: !117, file: !118, line: 185, type: !153, scopeLine: 185, flags: DIFlagPrototyped, spFlags: 0)
!156 = !{!157}
!157 = !DITemplateTypeParameter(name: "_Tp", type: !86)
!158 = !DISubprogram(name: "allocator", scope: !112, file: !41, line: 144, type: !159, scopeLine: 144, flags: DIFlagPublic | DIFlagPrototyped, spFlags: 0)
!159 = !DISubroutineType(types: !160)
!160 = !{null, !161}
!161 = !DIDerivedType(tag: DW_TAG_pointer_type, baseType: !112, size: 64, flags: DIFlagArtificial | DIFlagObjectPointer)
!162 = !DISubprogram(name: "allocator", scope: !112, file: !41, line: 147, type: !163, scopeLine: 147, flags: DIFlagPublic | DIFlagPrototyped, spFlags: 0)
!163 = !DISubroutineType(types: !164)
!164 = !{null, !161, !165}
!165 = !DIDerivedType(tag: DW_TAG_reference_type, baseType: !166, size: 64)
!166 = !DIDerivedType(tag: DW_TAG_const_type, baseType: !112)
!167 = !DISubprogram(name: "operator=", linkageName: "_ZNSaIiEaSERKS_", scope: !112, file: !41, line: 152, type: !168, scopeLine: 152, flags: DIFlagPublic | DIFlagPrototyped, spFlags: 0)
!168 = !DISubroutineType(types: !169)
!169 = !{!170, !161, !165}
!170 = !DIDerivedType(tag: DW_TAG_reference_type, baseType: !112, size: 64)
!171 = !DISubprogram(name: "~allocator", scope: !112, file: !41, line: 162, type: !159, scopeLine: 162, flags: DIFlagPublic | DIFlagPrototyped, spFlags: 0)
!172 = !DISubprogram(name: "allocate", linkageName: "_ZNSt16allocator_traitsISaIiEE8allocateERS0_mPKv", scope: !104, file: !32, line: 473, type: !173, scopeLine: 473, flags: DIFlagPrototyped | DIFlagStaticMember, spFlags: 0)
!173 = !DISubroutineType(types: !174)
!174 = !{!109, !110, !42, !49}
!175 = !DISubprogram(name: "deallocate", linkageName: "_ZNSt16allocator_traitsISaIiEE10deallocateERS0_Pim", scope: !104, file: !32, line: 491, type: !176, scopeLine: 491, flags: DIFlagPrototyped | DIFlagStaticMember, spFlags: 0)
!176 = !DISubroutineType(types: !177)
!177 = !{null, !110, !109, !42}
!178 = !DISubprogram(name: "max_size", linkageName: "_ZNSt16allocator_traitsISaIiEE8max_sizeERKS0_", scope: !104, file: !32, line: 543, type: !179, scopeLine: 543, flags: DIFlagPrototyped | DIFlagStaticMember, spFlags: 0)
!179 = !DISubroutineType(types: !180)
!180 = !{!181, !182}
!181 = !DIDerivedType(tag: DW_TAG_typedef, name: "size_type", scope: !104, file: !32, line: 431, baseType: !43)
!182 = !DIDerivedType(tag: DW_TAG_reference_type, baseType: !183, size: 64)
!183 = !DIDerivedType(tag: DW_TAG_const_type, baseType: !111)
!184 = !DISubprogram(name: "select_on_container_copy_construction", linkageName: "_ZNSt16allocator_traitsISaIiEE37select_on_container_copy_constructionERKS0_", scope: !104, file: !32, line: 558, type: !185, scopeLine: 558, flags: DIFlagPrototyped | DIFlagStaticMember, spFlags: 0)
!185 = !DISubroutineType(types: !186)
!186 = !{!111, !182}
!187 = !{!188}
!188 = !DITemplateTypeParameter(name: "_Alloc", type: !112)
!189 = !DISubprogram(name: "_S_select_on_copy", linkageName: "_ZN9__gnu_cxx14__alloc_traitsISaIiEiE17_S_select_on_copyERKS1_", scope: !101, file: !26, line: 97, type: !190, scopeLine: 97, flags: DIFlagPrototyped | DIFlagStaticMember, spFlags: 0)
!190 = !DISubroutineType(types: !191)
!191 = !{!112, !165}
!192 = !DISubprogram(name: "_S_on_swap", linkageName: "_ZN9__gnu_cxx14__alloc_traitsISaIiEiE10_S_on_swapERS1_S3_", scope: !101, file: !26, line: 100, type: !193, scopeLine: 100, flags: DIFlagPrototyped | DIFlagStaticMember, spFlags: 0)
!193 = !DISubroutineType(types: !194)
!194 = !{null, !170, !170}
!195 = !DISubprogram(name: "_S_propagate_on_copy_assign", linkageName: "_ZN9__gnu_cxx14__alloc_traitsISaIiEiE27_S_propagate_on_copy_assignEv", scope: !101, file: !26, line: 103, type: !76, scopeLine: 103, flags: DIFlagPrototyped | DIFlagStaticMember, spFlags: 0)
!196 = !DISubprogram(name: "_S_propagate_on_move_assign", linkageName: "_ZN9__gnu_cxx14__alloc_traitsISaIiEiE27_S_propagate_on_move_assignEv", scope: !101, file: !26, line: 106, type: !76, scopeLine: 106, flags: DIFlagPrototyped | DIFlagStaticMember, spFlags: 0)
!197 = !DISubprogram(name: "_S_propagate_on_swap", linkageName: "_ZN9__gnu_cxx14__alloc_traitsISaIiEiE20_S_propagate_on_swapEv", scope: !101, file: !26, line: 109, type: !76, scopeLine: 109, flags: DIFlagPrototyped | DIFlagStaticMember, spFlags: 0)
!198 = !DISubprogram(name: "_S_always_equal", linkageName: "_ZN9__gnu_cxx14__alloc_traitsISaIiEiE15_S_always_equalEv", scope: !101, file: !26, line: 112, type: !76, scopeLine: 112, flags: DIFlagPrototyped | DIFlagStaticMember, spFlags: 0)
!199 = !DISubprogram(name: "_S_nothrow_move", linkageName: "_ZN9__gnu_cxx14__alloc_traitsISaIiEiE15_S_nothrow_moveEv", scope: !101, file: !26, line: 115, type: !76, scopeLine: 115, flags: DIFlagPrototyped | DIFlagStaticMember, spFlags: 0)
!200 = !{!188, !201}
!201 = !DITemplateTypeParameter(type: !86)
!202 = !{}
!203 = !DIDerivedType(tag: DW_TAG_typedef, name: "rebind_alloc<int>", scope: !104, file: !32, line: 446, baseType: !112)
!204 = !DIDerivedType(tag: DW_TAG_inheritance, scope: !95, baseType: !205, extraData: i32 0)
!205 = distinct !DICompositeType(tag: DW_TAG_structure_type, name: "_Vector_impl_data", scope: !92, file: !88, line: 91, size: 192, flags: DIFlagTypePassByReference | DIFlagNonTrivial, elements: !206, identifier: "_ZTSNSt12_Vector_baseIiSaIiEE17_Vector_impl_dataE")
!206 = !{!207, !210, !211, !212, !216, !220, !225}
!207 = !DIDerivedType(tag: DW_TAG_member, name: "_M_start", scope: !205, file: !88, line: 93, baseType: !208, size: 64)
!208 = !DIDerivedType(tag: DW_TAG_typedef, name: "pointer", scope: !92, file: !88, line: 89, baseType: !209)
!209 = !DIDerivedType(tag: DW_TAG_typedef, name: "pointer", scope: !101, file: !26, line: 57, baseType: !109)
!210 = !DIDerivedType(tag: DW_TAG_member, name: "_M_finish", scope: !205, file: !88, line: 94, baseType: !208, size: 64, offset: 64)
!211 = !DIDerivedType(tag: DW_TAG_member, name: "_M_end_of_storage", scope: !205, file: !88, line: 95, baseType: !208, size: 64, offset: 128)
!212 = !DISubprogram(name: "_Vector_impl_data", scope: !205, file: !88, line: 97, type: !213, scopeLine: 97, flags: DIFlagPrototyped, spFlags: 0)
!213 = !DISubroutineType(types: !214)
!214 = !{null, !215}
!215 = !DIDerivedType(tag: DW_TAG_pointer_type, baseType: !205, size: 64, flags: DIFlagArtificial | DIFlagObjectPointer)
!216 = !DISubprogram(name: "_Vector_impl_data", scope: !205, file: !88, line: 102, type: !217, scopeLine: 102, flags: DIFlagPrototyped, spFlags: 0)
!217 = !DISubroutineType(types: !218)
!218 = !{null, !215, !219}
!219 = !DIDerivedType(tag: DW_TAG_rvalue_reference_type, baseType: !205, size: 64)
!220 = !DISubprogram(name: "_M_copy_data", linkageName: "_ZNSt12_Vector_baseIiSaIiEE17_Vector_impl_data12_M_copy_dataERKS2_", scope: !205, file: !88, line: 109, type: !221, scopeLine: 109, flags: DIFlagPrototyped, spFlags: 0)
!221 = !DISubroutineType(types: !222)
!222 = !{null, !215, !223}
!223 = !DIDerivedType(tag: DW_TAG_reference_type, baseType: !224, size: 64)
!224 = !DIDerivedType(tag: DW_TAG_const_type, baseType: !205)
!225 = !DISubprogram(name: "_M_swap_data", linkageName: "_ZNSt12_Vector_baseIiSaIiEE17_Vector_impl_data12_M_swap_dataERS2_", scope: !205, file: !88, line: 117, type: !226, scopeLine: 117, flags: DIFlagPrototyped, spFlags: 0)
!226 = !DISubroutineType(types: !227)
!227 = !{null, !215, !228}
!228 = !DIDerivedType(tag: DW_TAG_reference_type, baseType: !205, size: 64)
!229 = !DISubprogram(name: "_Vector_impl", scope: !95, file: !88, line: 131, type: !230, scopeLine: 131, flags: DIFlagPrototyped, spFlags: 0)
!230 = !DISubroutineType(types: !231)
!231 = !{null, !232}
!232 = !DIDerivedType(tag: DW_TAG_pointer_type, baseType: !95, size: 64, flags: DIFlagArtificial | DIFlagObjectPointer)
!233 = !DISubprogram(name: "_Vector_impl", scope: !95, file: !88, line: 136, type: !234, scopeLine: 136, flags: DIFlagPrototyped, spFlags: 0)
!234 = !DISubroutineType(types: !235)
!235 = !{null, !232, !236}
!236 = !DIDerivedType(tag: DW_TAG_reference_type, baseType: !237, size: 64)
!237 = !DIDerivedType(tag: DW_TAG_const_type, baseType: !98)
!238 = !DISubprogram(name: "_Vector_impl", scope: !95, file: !88, line: 143, type: !239, scopeLine: 143, flags: DIFlagPrototyped, spFlags: 0)
!239 = !DISubroutineType(types: !240)
!240 = !{null, !232, !241}
!241 = !DIDerivedType(tag: DW_TAG_rvalue_reference_type, baseType: !95, size: 64)
!242 = !DISubprogram(name: "_Vector_impl", scope: !95, file: !88, line: 147, type: !243, scopeLine: 147, flags: DIFlagPrototyped, spFlags: 0)
!243 = !DISubroutineType(types: !244)
!244 = !{null, !232, !245}
!245 = !DIDerivedType(tag: DW_TAG_rvalue_reference_type, baseType: !98, size: 64)
!246 = !DISubprogram(name: "_Vector_impl", scope: !95, file: !88, line: 151, type: !247, scopeLine: 151, flags: DIFlagPrototyped, spFlags: 0)
!247 = !DISubroutineType(types: !248)
!248 = !{null, !232, !245, !241}
!249 = !DISubprogram(name: "_M_get_Tp_allocator", linkageName: "_ZNSt12_Vector_baseIiSaIiEE19_M_get_Tp_allocatorEv", scope: !92, file: !88, line: 276, type: !250, scopeLine: 276, flags: DIFlagPrototyped, spFlags: 0)
!250 = !DISubroutineType(types: !251)
!251 = !{!252, !253}
!252 = !DIDerivedType(tag: DW_TAG_reference_type, baseType: !98, size: 64)
!253 = !DIDerivedType(tag: DW_TAG_pointer_type, baseType: !92, size: 64, flags: DIFlagArtificial | DIFlagObjectPointer)
!254 = !DISubprogram(name: "_M_get_Tp_allocator", linkageName: "_ZNKSt12_Vector_baseIiSaIiEE19_M_get_Tp_allocatorEv", scope: !92, file: !88, line: 280, type: !255, scopeLine: 280, flags: DIFlagPrototyped, spFlags: 0)
!255 = !DISubroutineType(types: !256)
!256 = !{!236, !257}
!257 = !DIDerivedType(tag: DW_TAG_pointer_type, baseType: !258, size: 64, flags: DIFlagArtificial | DIFlagObjectPointer)
!258 = !DIDerivedType(tag: DW_TAG_const_type, baseType: !92)
!259 = !DISubprogram(name: "get_allocator", linkageName: "_ZNKSt12_Vector_baseIiSaIiEE13get_allocatorEv", scope: !92, file: !88, line: 284, type: !260, scopeLine: 284, flags: DIFlagPrototyped, spFlags: 0)
!260 = !DISubroutineType(types: !261)
!261 = !{!262, !257}
!262 = !DIDerivedType(tag: DW_TAG_typedef, name: "allocator_type", scope: !92, file: !88, line: 273, baseType: !112)
!263 = !DISubprogram(name: "_Vector_base", scope: !92, file: !88, line: 288, type: !264, scopeLine: 288, flags: DIFlagPrototyped, spFlags: 0)
!264 = !DISubroutineType(types: !265)
!265 = !{null, !253}
!266 = !DISubprogram(name: "_Vector_base", scope: !92, file: !88, line: 293, type: !267, scopeLine: 293, flags: DIFlagPrototyped, spFlags: 0)
!267 = !DISubroutineType(types: !268)
!268 = !{null, !253, !269}
!269 = !DIDerivedType(tag: DW_TAG_reference_type, baseType: !270, size: 64)
!270 = !DIDerivedType(tag: DW_TAG_const_type, baseType: !262)
!271 = !DISubprogram(name: "_Vector_base", scope: !92, file: !88, line: 298, type: !272, scopeLine: 298, flags: DIFlagPrototyped, spFlags: 0)
!272 = !DISubroutineType(types: !273)
!273 = !{null, !253, !43}
!274 = !DISubprogram(name: "_Vector_base", scope: !92, file: !88, line: 303, type: !275, scopeLine: 303, flags: DIFlagPrototyped, spFlags: 0)
!275 = !DISubroutineType(types: !276)
!276 = !{null, !253, !43, !269}
!277 = !DISubprogram(name: "_Vector_base", scope: !92, file: !88, line: 308, type: !278, scopeLine: 308, flags: DIFlagPrototyped, spFlags: 0)
!278 = !DISubroutineType(types: !279)
!279 = !{null, !253, !280}
!280 = !DIDerivedType(tag: DW_TAG_rvalue_reference_type, baseType: !92, size: 64)
!281 = !DISubprogram(name: "_Vector_base", scope: !92, file: !88, line: 312, type: !282, scopeLine: 312, flags: DIFlagPrototyped, spFlags: 0)
!282 = !DISubroutineType(types: !283)
!283 = !{null, !253, !245}
!284 = !DISubprogram(name: "_Vector_base", scope: !92, file: !88, line: 315, type: !285, scopeLine: 315, flags: DIFlagPrototyped, spFlags: 0)
!285 = !DISubroutineType(types: !286)
!286 = !{null, !253, !280, !269}
!287 = !DISubprogram(name: "_Vector_base", scope: !92, file: !88, line: 328, type: !288, scopeLine: 328, flags: DIFlagPrototyped, spFlags: 0)
!288 = !DISubroutineType(types: !289)
!289 = !{null, !253, !269, !280}
!290 = !DISubprogram(name: "~_Vector_base", scope: !92, file: !88, line: 333, type: !264, scopeLine: 333, flags: DIFlagPrototyped, spFlags: 0)
!291 = !DISubprogram(name: "_M_allocate", linkageName: "_ZNSt12_Vector_baseIiSaIiEE11_M_allocateEm", scope: !92, file: !88, line: 343, type: !292, scopeLine: 343, flags: DIFlagPrototyped, spFlags: 0)
!292 = !DISubroutineType(types: !293)
!293 = !{!208, !253, !43}
!294 = !DISubprogram(name: "_M_deallocate", linkageName: "_ZNSt12_Vector_baseIiSaIiEE13_M_deallocateEPim", scope: !92, file: !88, line: 350, type: !295, scopeLine: 350, flags: DIFlagPrototyped, spFlags: 0)
!295 = !DISubroutineType(types: !296)
!296 = !{null, !253, !208, !43}
!297 = !DISubprogram(name: "_M_create_storage", linkageName: "_ZNSt12_Vector_baseIiSaIiEE17_M_create_storageEm", scope: !92, file: !88, line: 359, type: !272, scopeLine: 359, flags: DIFlagProtected | DIFlagPrototyped, spFlags: 0)
!298 = !{!157, !188}
!299 = !DISubprogram(name: "_S_nothrow_relocate", linkageName: "_ZNSt6vectorIiSaIiEE19_S_nothrow_relocateESt17integral_constantIbLb1EE", scope: !89, file: !88, line: 431, type: !300, scopeLine: 431, flags: DIFlagPrototyped | DIFlagStaticMember, spFlags: 0)
!300 = !DISubroutineType(types: !301)
!301 = !{!78, !302}
!302 = !DIDerivedType(tag: DW_TAG_typedef, name: "true_type", scope: !5, file: !303, line: 75, baseType: !304)
!303 = !DIFile(filename: "/usr/bin/../lib/gcc/x86_64-linux-gnu/10/../../../../include/c++/10/type_traits", directory: "")
!304 = distinct !DICompositeType(tag: DW_TAG_structure_type, name: "integral_constant<bool, true>", scope: !5, file: !303, line: 57, size: 8, flags: DIFlagTypePassByValue, elements: !305, templateParams: !315, identifier: "_ZTSSt17integral_constantIbLb1EE")
!305 = !{!306, !308, !314}
!306 = !DIDerivedType(tag: DW_TAG_member, name: "value", scope: !304, file: !303, line: 59, baseType: !307, flags: DIFlagStaticMember, extraData: i1 true)
!307 = !DIDerivedType(tag: DW_TAG_const_type, baseType: !78)
!308 = !DISubprogram(name: "operator bool", linkageName: "_ZNKSt17integral_constantIbLb1EEcvbEv", scope: !304, file: !303, line: 62, type: !309, scopeLine: 62, flags: DIFlagPrototyped, spFlags: 0)
!309 = !DISubroutineType(types: !310)
!310 = !{!311, !312}
!311 = !DIDerivedType(tag: DW_TAG_typedef, name: "value_type", scope: !304, file: !303, line: 60, baseType: !78)
!312 = !DIDerivedType(tag: DW_TAG_pointer_type, baseType: !313, size: 64, flags: DIFlagArtificial | DIFlagObjectPointer)
!313 = !DIDerivedType(tag: DW_TAG_const_type, baseType: !304)
!314 = !DISubprogram(name: "operator()", linkageName: "_ZNKSt17integral_constantIbLb1EEclEv", scope: !304, file: !303, line: 67, type: !309, scopeLine: 67, flags: DIFlagPrototyped, spFlags: 0)
!315 = !{!316, !317}
!316 = !DITemplateTypeParameter(name: "_Tp", type: !78)
!317 = !DITemplateValueParameter(name: "__v", type: !78, value: i1 true)
!318 = !DISubprogram(name: "_S_nothrow_relocate", linkageName: "_ZNSt6vectorIiSaIiEE19_S_nothrow_relocateESt17integral_constantIbLb0EE", scope: !89, file: !88, line: 440, type: !319, scopeLine: 440, flags: DIFlagPrototyped | DIFlagStaticMember, spFlags: 0)
!319 = !DISubroutineType(types: !320)
!320 = !{!78, !321}
!321 = !DIDerivedType(tag: DW_TAG_typedef, name: "false_type", scope: !5, file: !303, line: 78, baseType: !322)
!322 = distinct !DICompositeType(tag: DW_TAG_structure_type, name: "integral_constant<bool, false>", scope: !5, file: !303, line: 57, size: 8, flags: DIFlagTypePassByValue, elements: !323, templateParams: !332, identifier: "_ZTSSt17integral_constantIbLb0EE")
!323 = !{!324, !325, !331}
!324 = !DIDerivedType(tag: DW_TAG_member, name: "value", scope: !322, file: !303, line: 59, baseType: !307, flags: DIFlagStaticMember, extraData: i1 false)
!325 = !DISubprogram(name: "operator bool", linkageName: "_ZNKSt17integral_constantIbLb0EEcvbEv", scope: !322, file: !303, line: 62, type: !326, scopeLine: 62, flags: DIFlagPrototyped, spFlags: 0)
!326 = !DISubroutineType(types: !327)
!327 = !{!328, !329}
!328 = !DIDerivedType(tag: DW_TAG_typedef, name: "value_type", scope: !322, file: !303, line: 60, baseType: !78)
!329 = !DIDerivedType(tag: DW_TAG_pointer_type, baseType: !330, size: 64, flags: DIFlagArtificial | DIFlagObjectPointer)
!330 = !DIDerivedType(tag: DW_TAG_const_type, baseType: !322)
!331 = !DISubprogram(name: "operator()", linkageName: "_ZNKSt17integral_constantIbLb0EEclEv", scope: !322, file: !303, line: 67, type: !326, scopeLine: 67, flags: DIFlagPrototyped, spFlags: 0)
!332 = !{!316, !333}
!333 = !DITemplateValueParameter(name: "__v", type: !78, value: i1 false)
!334 = !DISubprogram(name: "_S_use_relocate", linkageName: "_ZNSt6vectorIiSaIiEE15_S_use_relocateEv", scope: !89, file: !88, line: 444, type: !76, scopeLine: 444, flags: DIFlagPrototyped | DIFlagStaticMember, spFlags: 0)
!335 = !DISubprogram(name: "_S_do_relocate", linkageName: "_ZNSt6vectorIiSaIiEE14_S_do_relocateEPiS2_S2_RS0_St17integral_constantIbLb1EE", scope: !89, file: !88, line: 453, type: !336, scopeLine: 453, flags: DIFlagPrototyped | DIFlagStaticMember, spFlags: 0)
!336 = !DISubroutineType(types: !337)
!337 = !{!338, !338, !338, !338, !339, !302}
!338 = !DIDerivedType(tag: DW_TAG_typedef, name: "pointer", scope: !89, file: !88, line: 415, baseType: !208)
!339 = !DIDerivedType(tag: DW_TAG_reference_type, baseType: !87, size: 64)
!340 = !DISubprogram(name: "_S_do_relocate", linkageName: "_ZNSt6vectorIiSaIiEE14_S_do_relocateEPiS2_S2_RS0_St17integral_constantIbLb0EE", scope: !89, file: !88, line: 460, type: !341, scopeLine: 460, flags: DIFlagPrototyped | DIFlagStaticMember, spFlags: 0)
!341 = !DISubroutineType(types: !342)
!342 = !{!338, !338, !338, !338, !339, !321}
!343 = !DISubprogram(name: "_S_relocate", linkageName: "_ZNSt6vectorIiSaIiEE11_S_relocateEPiS2_S2_RS0_", scope: !89, file: !88, line: 465, type: !344, scopeLine: 465, flags: DIFlagPrototyped | DIFlagStaticMember, spFlags: 0)
!344 = !DISubroutineType(types: !345)
!345 = !{!338, !338, !338, !338, !339}
!346 = !DISubprogram(name: "vector", scope: !89, file: !88, line: 487, type: !347, scopeLine: 487, flags: DIFlagPublic | DIFlagPrototyped, spFlags: 0)
!347 = !DISubroutineType(types: !348)
!348 = !{null, !349}
!349 = !DIDerivedType(tag: DW_TAG_pointer_type, baseType: !89, size: 64, flags: DIFlagArtificial | DIFlagObjectPointer)
!350 = !DISubprogram(name: "vector", scope: !89, file: !88, line: 497, type: !351, scopeLine: 497, flags: DIFlagPublic | DIFlagExplicit | DIFlagPrototyped, spFlags: 0)
!351 = !DISubroutineType(types: !352)
!352 = !{null, !349, !353}
!353 = !DIDerivedType(tag: DW_TAG_reference_type, baseType: !354, size: 64)
!354 = !DIDerivedType(tag: DW_TAG_const_type, baseType: !355)
!355 = !DIDerivedType(tag: DW_TAG_typedef, name: "allocator_type", scope: !89, file: !88, line: 426, baseType: !112)
!356 = !DISubprogram(name: "vector", scope: !89, file: !88, line: 510, type: !357, scopeLine: 510, flags: DIFlagPublic | DIFlagExplicit | DIFlagPrototyped, spFlags: 0)
!357 = !DISubroutineType(types: !358)
!358 = !{null, !349, !359, !353}
!359 = !DIDerivedType(tag: DW_TAG_typedef, name: "size_type", file: !88, line: 424, baseType: !43)
!360 = !DISubprogram(name: "vector", scope: !89, file: !88, line: 522, type: !361, scopeLine: 522, flags: DIFlagPublic | DIFlagPrototyped, spFlags: 0)
!361 = !DISubroutineType(types: !362)
!362 = !{null, !349, !359, !363, !353}
!363 = !DIDerivedType(tag: DW_TAG_reference_type, baseType: !364, size: 64)
!364 = !DIDerivedType(tag: DW_TAG_const_type, baseType: !365)
!365 = !DIDerivedType(tag: DW_TAG_typedef, name: "value_type", scope: !89, file: !88, line: 414, baseType: !86)
!366 = !DISubprogram(name: "vector", scope: !89, file: !88, line: 553, type: !367, scopeLine: 553, flags: DIFlagPublic | DIFlagPrototyped, spFlags: 0)
!367 = !DISubroutineType(types: !368)
!368 = !{null, !349, !369}
!369 = !DIDerivedType(tag: DW_TAG_reference_type, baseType: !370, size: 64)
!370 = !DIDerivedType(tag: DW_TAG_const_type, baseType: !89)
!371 = !DISubprogram(name: "vector", scope: !89, file: !88, line: 572, type: !372, scopeLine: 572, flags: DIFlagPublic | DIFlagPrototyped, spFlags: 0)
!372 = !DISubroutineType(types: !373)
!373 = !{null, !349, !374}
!374 = !DIDerivedType(tag: DW_TAG_rvalue_reference_type, baseType: !89, size: 64)
!375 = !DISubprogram(name: "vector", scope: !89, file: !88, line: 575, type: !376, scopeLine: 575, flags: DIFlagPublic | DIFlagPrototyped, spFlags: 0)
!376 = !DISubroutineType(types: !377)
!377 = !{null, !349, !369, !353}
!378 = !DISubprogram(name: "vector", scope: !89, file: !88, line: 585, type: !379, scopeLine: 585, flags: DIFlagPrototyped, spFlags: 0)
!379 = !DISubroutineType(types: !380)
!380 = !{null, !349, !374, !353, !302}
!381 = !DISubprogram(name: "vector", scope: !89, file: !88, line: 589, type: !382, scopeLine: 589, flags: DIFlagPrototyped, spFlags: 0)
!382 = !DISubroutineType(types: !383)
!383 = !{null, !349, !374, !353, !321}
!384 = !DISubprogram(name: "vector", scope: !89, file: !88, line: 607, type: !385, scopeLine: 607, flags: DIFlagPublic | DIFlagPrototyped, spFlags: 0)
!385 = !DISubroutineType(types: !386)
!386 = !{null, !349, !374, !353}
!387 = !DISubprogram(name: "vector", scope: !89, file: !88, line: 625, type: !388, scopeLine: 625, flags: DIFlagPublic | DIFlagPrototyped, spFlags: 0)
!388 = !DISubroutineType(types: !389)
!389 = !{null, !349, !390, !353}
!390 = distinct !DICompositeType(tag: DW_TAG_class_type, name: "initializer_list<int>", scope: !5, file: !391, line: 47, size: 128, flags: DIFlagTypePassByValue | DIFlagNonTrivial, elements: !392, templateParams: !414, identifier: "_ZTSSt16initializer_listIiE")
!391 = !DIFile(filename: "/usr/bin/../lib/gcc/x86_64-linux-gnu/10/../../../../include/c++/10/initializer_list", directory: "")
!392 = !{!393, !395, !397, !402, !405, !410, !413}
!393 = !DIDerivedType(tag: DW_TAG_member, name: "_M_array", scope: !390, file: !391, line: 58, baseType: !394, size: 64)
!394 = !DIDerivedType(tag: DW_TAG_typedef, name: "iterator", scope: !390, file: !391, line: 54, baseType: !141)
!395 = !DIDerivedType(tag: DW_TAG_member, name: "_M_len", scope: !390, file: !391, line: 59, baseType: !396, size: 64, offset: 64)
!396 = !DIDerivedType(tag: DW_TAG_typedef, name: "size_type", file: !391, line: 53, baseType: !43)
!397 = !DISubprogram(name: "initializer_list", scope: !390, file: !391, line: 62, type: !398, scopeLine: 62, flags: DIFlagPrototyped, spFlags: 0)
!398 = !DISubroutineType(types: !399)
!399 = !{null, !400, !401, !396}
!400 = !DIDerivedType(tag: DW_TAG_pointer_type, baseType: !390, size: 64, flags: DIFlagArtificial | DIFlagObjectPointer)
!401 = !DIDerivedType(tag: DW_TAG_typedef, name: "const_iterator", scope: !390, file: !391, line: 55, baseType: !141)
!402 = !DISubprogram(name: "initializer_list", scope: !390, file: !391, line: 66, type: !403, scopeLine: 66, flags: DIFlagPublic | DIFlagPrototyped, spFlags: 0)
!403 = !DISubroutineType(types: !404)
!404 = !{null, !400}
!405 = !DISubprogram(name: "size", linkageName: "_ZNKSt16initializer_listIiE4sizeEv", scope: !390, file: !391, line: 71, type: !406, scopeLine: 71, flags: DIFlagPublic | DIFlagPrototyped, spFlags: 0)
!406 = !DISubroutineType(types: !407)
!407 = !{!396, !408}
!408 = !DIDerivedType(tag: DW_TAG_pointer_type, baseType: !409, size: 64, flags: DIFlagArtificial | DIFlagObjectPointer)
!409 = !DIDerivedType(tag: DW_TAG_const_type, baseType: !390)
!410 = !DISubprogram(name: "begin", linkageName: "_ZNKSt16initializer_listIiE5beginEv", scope: !390, file: !391, line: 75, type: !411, scopeLine: 75, flags: DIFlagPublic | DIFlagPrototyped, spFlags: 0)
!411 = !DISubroutineType(types: !412)
!412 = !{!401, !408}
!413 = !DISubprogram(name: "end", linkageName: "_ZNKSt16initializer_listIiE3endEv", scope: !390, file: !391, line: 79, type: !411, scopeLine: 79, flags: DIFlagPublic | DIFlagPrototyped, spFlags: 0)
!414 = !{!415}
!415 = !DITemplateTypeParameter(name: "_E", type: !86)
!416 = !DISubprogram(name: "~vector", scope: !89, file: !88, line: 678, type: !347, scopeLine: 678, flags: DIFlagPublic | DIFlagPrototyped, spFlags: 0)
!417 = !DISubprogram(name: "operator=", linkageName: "_ZNSt6vectorIiSaIiEEaSERKS1_", scope: !89, file: !88, line: 695, type: !418, scopeLine: 695, flags: DIFlagPublic | DIFlagPrototyped, spFlags: 0)
!418 = !DISubroutineType(types: !419)
!419 = !{!420, !349, !369}
!420 = !DIDerivedType(tag: DW_TAG_reference_type, baseType: !89, size: 64)
!421 = !DISubprogram(name: "operator=", linkageName: "_ZNSt6vectorIiSaIiEEaSEOS1_", scope: !89, file: !88, line: 709, type: !422, scopeLine: 709, flags: DIFlagPublic | DIFlagPrototyped, spFlags: 0)
!422 = !DISubroutineType(types: !423)
!423 = !{!420, !349, !374}
!424 = !DISubprogram(name: "operator=", linkageName: "_ZNSt6vectorIiSaIiEEaSESt16initializer_listIiE", scope: !89, file: !88, line: 730, type: !425, scopeLine: 730, flags: DIFlagPublic | DIFlagPrototyped, spFlags: 0)
!425 = !DISubroutineType(types: !426)
!426 = !{!420, !349, !390}
!427 = !DISubprogram(name: "assign", linkageName: "_ZNSt6vectorIiSaIiEE6assignEmRKi", scope: !89, file: !88, line: 749, type: !428, scopeLine: 749, flags: DIFlagPublic | DIFlagPrototyped, spFlags: 0)
!428 = !DISubroutineType(types: !429)
!429 = !{null, !349, !359, !363}
!430 = !DISubprogram(name: "assign", linkageName: "_ZNSt6vectorIiSaIiEE6assignESt16initializer_listIiE", scope: !89, file: !88, line: 794, type: !431, scopeLine: 794, flags: DIFlagPublic | DIFlagPrototyped, spFlags: 0)
!431 = !DISubroutineType(types: !432)
!432 = !{null, !349, !390}
!433 = !DISubprogram(name: "begin", linkageName: "_ZNSt6vectorIiSaIiEE5beginEv", scope: !89, file: !88, line: 811, type: !434, scopeLine: 811, flags: DIFlagPublic | DIFlagPrototyped, spFlags: 0)
!434 = !DISubroutineType(types: !435)
!435 = !{!436, !349}
!436 = !DIDerivedType(tag: DW_TAG_typedef, name: "iterator", scope: !89, file: !88, line: 419, baseType: !437)
!437 = !DICompositeType(tag: DW_TAG_class_type, name: "__normal_iterator<int *, std::vector<int, std::allocator<int> > >", scope: !28, file: !438, line: 952, flags: DIFlagFwdDecl, identifier: "_ZTSN9__gnu_cxx17__normal_iteratorIPiSt6vectorIiSaIiEEEE")
!438 = !DIFile(filename: "/usr/bin/../lib/gcc/x86_64-linux-gnu/10/../../../../include/c++/10/bits/stl_iterator.h", directory: "")
!439 = !DISubprogram(name: "begin", linkageName: "_ZNKSt6vectorIiSaIiEE5beginEv", scope: !89, file: !88, line: 820, type: !440, scopeLine: 820, flags: DIFlagPublic | DIFlagPrototyped, spFlags: 0)
!440 = !DISubroutineType(types: !441)
!441 = !{!442, !444}
!442 = !DIDerivedType(tag: DW_TAG_typedef, name: "const_iterator", scope: !89, file: !88, line: 421, baseType: !443)
!443 = !DICompositeType(tag: DW_TAG_class_type, name: "__normal_iterator<const int *, std::vector<int, std::allocator<int> > >", scope: !28, file: !438, line: 952, flags: DIFlagFwdDecl, identifier: "_ZTSN9__gnu_cxx17__normal_iteratorIPKiSt6vectorIiSaIiEEEE")
!444 = !DIDerivedType(tag: DW_TAG_pointer_type, baseType: !370, size: 64, flags: DIFlagArtificial | DIFlagObjectPointer)
!445 = !DISubprogram(name: "end", linkageName: "_ZNSt6vectorIiSaIiEE3endEv", scope: !89, file: !88, line: 829, type: !434, scopeLine: 829, flags: DIFlagPublic | DIFlagPrototyped, spFlags: 0)
!446 = !DISubprogram(name: "end", linkageName: "_ZNKSt6vectorIiSaIiEE3endEv", scope: !89, file: !88, line: 838, type: !440, scopeLine: 838, flags: DIFlagPublic | DIFlagPrototyped, spFlags: 0)
!447 = !DISubprogram(name: "rbegin", linkageName: "_ZNSt6vectorIiSaIiEE6rbeginEv", scope: !89, file: !88, line: 847, type: !448, scopeLine: 847, flags: DIFlagPublic | DIFlagPrototyped, spFlags: 0)
!448 = !DISubroutineType(types: !449)
!449 = !{!450, !349}
!450 = !DIDerivedType(tag: DW_TAG_typedef, name: "reverse_iterator", scope: !89, file: !88, line: 423, baseType: !451)
!451 = !DICompositeType(tag: DW_TAG_class_type, name: "reverse_iterator<__gnu_cxx::__normal_iterator<int *, std::vector<int, std::allocator<int> > > >", scope: !5, file: !438, line: 125, flags: DIFlagFwdDecl, identifier: "_ZTSSt16reverse_iteratorIN9__gnu_cxx17__normal_iteratorIPiSt6vectorIiSaIiEEEEE")
!452 = !DISubprogram(name: "rbegin", linkageName: "_ZNKSt6vectorIiSaIiEE6rbeginEv", scope: !89, file: !88, line: 856, type: !453, scopeLine: 856, flags: DIFlagPublic | DIFlagPrototyped, spFlags: 0)
!453 = !DISubroutineType(types: !454)
!454 = !{!455, !444}
!455 = !DIDerivedType(tag: DW_TAG_typedef, name: "const_reverse_iterator", scope: !89, file: !88, line: 422, baseType: !456)
!456 = !DICompositeType(tag: DW_TAG_class_type, name: "reverse_iterator<__gnu_cxx::__normal_iterator<const int *, std::vector<int, std::allocator<int> > > >", scope: !5, file: !438, line: 125, flags: DIFlagFwdDecl, identifier: "_ZTSSt16reverse_iteratorIN9__gnu_cxx17__normal_iteratorIPKiSt6vectorIiSaIiEEEEE")
!457 = !DISubprogram(name: "rend", linkageName: "_ZNSt6vectorIiSaIiEE4rendEv", scope: !89, file: !88, line: 865, type: !448, scopeLine: 865, flags: DIFlagPublic | DIFlagPrototyped, spFlags: 0)
!458 = !DISubprogram(name: "rend", linkageName: "_ZNKSt6vectorIiSaIiEE4rendEv", scope: !89, file: !88, line: 874, type: !453, scopeLine: 874, flags: DIFlagPublic | DIFlagPrototyped, spFlags: 0)
!459 = !DISubprogram(name: "cbegin", linkageName: "_ZNKSt6vectorIiSaIiEE6cbeginEv", scope: !89, file: !88, line: 884, type: !440, scopeLine: 884, flags: DIFlagPublic | DIFlagPrototyped, spFlags: 0)
!460 = !DISubprogram(name: "cend", linkageName: "_ZNKSt6vectorIiSaIiEE4cendEv", scope: !89, file: !88, line: 893, type: !440, scopeLine: 893, flags: DIFlagPublic | DIFlagPrototyped, spFlags: 0)
!461 = !DISubprogram(name: "crbegin", linkageName: "_ZNKSt6vectorIiSaIiEE7crbeginEv", scope: !89, file: !88, line: 902, type: !453, scopeLine: 902, flags: DIFlagPublic | DIFlagPrototyped, spFlags: 0)
!462 = !DISubprogram(name: "crend", linkageName: "_ZNKSt6vectorIiSaIiEE5crendEv", scope: !89, file: !88, line: 911, type: !453, scopeLine: 911, flags: DIFlagPublic | DIFlagPrototyped, spFlags: 0)
!463 = !DISubprogram(name: "size", linkageName: "_ZNKSt6vectorIiSaIiEE4sizeEv", scope: !89, file: !88, line: 918, type: !464, scopeLine: 918, flags: DIFlagPublic | DIFlagPrototyped, spFlags: 0)
!464 = !DISubroutineType(types: !465)
!465 = !{!359, !444}
!466 = !DISubprogram(name: "max_size", linkageName: "_ZNKSt6vectorIiSaIiEE8max_sizeEv", scope: !89, file: !88, line: 923, type: !464, scopeLine: 923, flags: DIFlagPublic | DIFlagPrototyped, spFlags: 0)
!467 = !DISubprogram(name: "resize", linkageName: "_ZNSt6vectorIiSaIiEE6resizeEm", scope: !89, file: !88, line: 937, type: !468, scopeLine: 937, flags: DIFlagPublic | DIFlagPrototyped, spFlags: 0)
!468 = !DISubroutineType(types: !469)
!469 = !{null, !349, !359}
!470 = !DISubprogram(name: "resize", linkageName: "_ZNSt6vectorIiSaIiEE6resizeEmRKi", scope: !89, file: !88, line: 957, type: !428, scopeLine: 957, flags: DIFlagPublic | DIFlagPrototyped, spFlags: 0)
!471 = !DISubprogram(name: "shrink_to_fit", linkageName: "_ZNSt6vectorIiSaIiEE13shrink_to_fitEv", scope: !89, file: !88, line: 989, type: !347, scopeLine: 989, flags: DIFlagPublic | DIFlagPrototyped, spFlags: 0)
!472 = !DISubprogram(name: "capacity", linkageName: "_ZNKSt6vectorIiSaIiEE8capacityEv", scope: !89, file: !88, line: 998, type: !464, scopeLine: 998, flags: DIFlagPublic | DIFlagPrototyped, spFlags: 0)
!473 = !DISubprogram(name: "empty", linkageName: "_ZNKSt6vectorIiSaIiEE5emptyEv", scope: !89, file: !88, line: 1007, type: !474, scopeLine: 1007, flags: DIFlagPublic | DIFlagPrototyped, spFlags: 0)
!474 = !DISubroutineType(types: !475)
!475 = !{!78, !444}
!476 = !DISubprogram(name: "reserve", linkageName: "_ZNSt6vectorIiSaIiEE7reserveEm", scope: !89, file: !88, line: 1028, type: !468, scopeLine: 1028, flags: DIFlagPublic | DIFlagPrototyped, spFlags: 0)
!477 = !DISubprogram(name: "operator[]", linkageName: "_ZNSt6vectorIiSaIiEEixEm", scope: !89, file: !88, line: 1043, type: !478, scopeLine: 1043, flags: DIFlagPublic | DIFlagPrototyped, spFlags: 0)
!478 = !DISubroutineType(types: !479)
!479 = !{!480, !349, !359}
!480 = !DIDerivedType(tag: DW_TAG_typedef, name: "reference", scope: !89, file: !88, line: 417, baseType: !481)
!481 = !DIDerivedType(tag: DW_TAG_typedef, name: "reference", scope: !101, file: !26, line: 62, baseType: !482)
!482 = !DIDerivedType(tag: DW_TAG_reference_type, baseType: !483, size: 64)
!483 = !DIDerivedType(tag: DW_TAG_typedef, name: "value_type", scope: !101, file: !26, line: 56, baseType: !484)
!484 = !DIDerivedType(tag: DW_TAG_typedef, name: "value_type", scope: !104, file: !32, line: 413, baseType: !86)
!485 = !DISubprogram(name: "operator[]", linkageName: "_ZNKSt6vectorIiSaIiEEixEm", scope: !89, file: !88, line: 1061, type: !486, scopeLine: 1061, flags: DIFlagPublic | DIFlagPrototyped, spFlags: 0)
!486 = !DISubroutineType(types: !487)
!487 = !{!488, !444, !359}
!488 = !DIDerivedType(tag: DW_TAG_typedef, name: "const_reference", scope: !89, file: !88, line: 418, baseType: !489)
!489 = !DIDerivedType(tag: DW_TAG_typedef, name: "const_reference", scope: !101, file: !26, line: 63, baseType: !490)
!490 = !DIDerivedType(tag: DW_TAG_reference_type, baseType: !491, size: 64)
!491 = !DIDerivedType(tag: DW_TAG_const_type, baseType: !483)
!492 = !DISubprogram(name: "_M_range_check", linkageName: "_ZNKSt6vectorIiSaIiEE14_M_range_checkEm", scope: !89, file: !88, line: 1070, type: !493, scopeLine: 1070, flags: DIFlagProtected | DIFlagPrototyped, spFlags: 0)
!493 = !DISubroutineType(types: !494)
!494 = !{null, !444, !359}
!495 = !DISubprogram(name: "at", linkageName: "_ZNSt6vectorIiSaIiEE2atEm", scope: !89, file: !88, line: 1092, type: !478, scopeLine: 1092, flags: DIFlagPublic | DIFlagPrototyped, spFlags: 0)
!496 = !DISubprogram(name: "at", linkageName: "_ZNKSt6vectorIiSaIiEE2atEm", scope: !89, file: !88, line: 1110, type: !486, scopeLine: 1110, flags: DIFlagPublic | DIFlagPrototyped, spFlags: 0)
!497 = !DISubprogram(name: "front", linkageName: "_ZNSt6vectorIiSaIiEE5frontEv", scope: !89, file: !88, line: 1121, type: !498, scopeLine: 1121, flags: DIFlagPublic | DIFlagPrototyped, spFlags: 0)
!498 = !DISubroutineType(types: !499)
!499 = !{!480, !349}
!500 = !DISubprogram(name: "front", linkageName: "_ZNKSt6vectorIiSaIiEE5frontEv", scope: !89, file: !88, line: 1132, type: !501, scopeLine: 1132, flags: DIFlagPublic | DIFlagPrototyped, spFlags: 0)
!501 = !DISubroutineType(types: !502)
!502 = !{!488, !444}
!503 = !DISubprogram(name: "back", linkageName: "_ZNSt6vectorIiSaIiEE4backEv", scope: !89, file: !88, line: 1143, type: !498, scopeLine: 1143, flags: DIFlagPublic | DIFlagPrototyped, spFlags: 0)
!504 = !DISubprogram(name: "back", linkageName: "_ZNKSt6vectorIiSaIiEE4backEv", scope: !89, file: !88, line: 1154, type: !501, scopeLine: 1154, flags: DIFlagPublic | DIFlagPrototyped, spFlags: 0)
!505 = !DISubprogram(name: "data", linkageName: "_ZNSt6vectorIiSaIiEE4dataEv", scope: !89, file: !88, line: 1168, type: !506, scopeLine: 1168, flags: DIFlagPublic | DIFlagPrototyped, spFlags: 0)
!506 = !DISubroutineType(types: !507)
!507 = !{!85, !349}
!508 = !DISubprogram(name: "data", linkageName: "_ZNKSt6vectorIiSaIiEE4dataEv", scope: !89, file: !88, line: 1172, type: !509, scopeLine: 1172, flags: DIFlagPublic | DIFlagPrototyped, spFlags: 0)
!509 = !DISubroutineType(types: !510)
!510 = !{!141, !444}
!511 = !DISubprogram(name: "push_back", linkageName: "_ZNSt6vectorIiSaIiEE9push_backERKi", scope: !89, file: !88, line: 1187, type: !512, scopeLine: 1187, flags: DIFlagPublic | DIFlagPrototyped, spFlags: 0)
!512 = !DISubroutineType(types: !513)
!513 = !{null, !349, !363}
!514 = !DISubprogram(name: "push_back", linkageName: "_ZNSt6vectorIiSaIiEE9push_backEOi", scope: !89, file: !88, line: 1203, type: !515, scopeLine: 1203, flags: DIFlagPublic | DIFlagPrototyped, spFlags: 0)
!515 = !DISubroutineType(types: !516)
!516 = !{null, !349, !517}
!517 = !DIDerivedType(tag: DW_TAG_rvalue_reference_type, baseType: !365, size: 64)
!518 = !DISubprogram(name: "pop_back", linkageName: "_ZNSt6vectorIiSaIiEE8pop_backEv", scope: !89, file: !88, line: 1225, type: !347, scopeLine: 1225, flags: DIFlagPublic | DIFlagPrototyped, spFlags: 0)
!519 = !DISubprogram(name: "insert", linkageName: "_ZNSt6vectorIiSaIiEE6insertEN9__gnu_cxx17__normal_iteratorIPKiS1_EERS4_", scope: !89, file: !88, line: 1263, type: !520, scopeLine: 1263, flags: DIFlagPublic | DIFlagPrototyped, spFlags: 0)
!520 = !DISubroutineType(types: !521)
!521 = !{!436, !349, !442, !363}
!522 = !DISubprogram(name: "insert", linkageName: "_ZNSt6vectorIiSaIiEE6insertEN9__gnu_cxx17__normal_iteratorIPKiS1_EEOi", scope: !89, file: !88, line: 1293, type: !523, scopeLine: 1293, flags: DIFlagPublic | DIFlagPrototyped, spFlags: 0)
!523 = !DISubroutineType(types: !524)
!524 = !{!436, !349, !442, !517}
!525 = !DISubprogram(name: "insert", linkageName: "_ZNSt6vectorIiSaIiEE6insertEN9__gnu_cxx17__normal_iteratorIPKiS1_EESt16initializer_listIiE", scope: !89, file: !88, line: 1310, type: !526, scopeLine: 1310, flags: DIFlagPublic | DIFlagPrototyped, spFlags: 0)
!526 = !DISubroutineType(types: !527)
!527 = !{!436, !349, !442, !390}
!528 = !DISubprogram(name: "insert", linkageName: "_ZNSt6vectorIiSaIiEE6insertEN9__gnu_cxx17__normal_iteratorIPKiS1_EEmRS4_", scope: !89, file: !88, line: 1335, type: !529, scopeLine: 1335, flags: DIFlagPublic | DIFlagPrototyped, spFlags: 0)
!529 = !DISubroutineType(types: !530)
!530 = !{!436, !349, !442, !359, !363}
!531 = !DISubprogram(name: "erase", linkageName: "_ZNSt6vectorIiSaIiEE5eraseEN9__gnu_cxx17__normal_iteratorIPKiS1_EE", scope: !89, file: !88, line: 1430, type: !532, scopeLine: 1430, flags: DIFlagPublic | DIFlagPrototyped, spFlags: 0)
!532 = !DISubroutineType(types: !533)
!533 = !{!436, !349, !442}
!534 = !DISubprogram(name: "erase", linkageName: "_ZNSt6vectorIiSaIiEE5eraseEN9__gnu_cxx17__normal_iteratorIPKiS1_EES6_", scope: !89, file: !88, line: 1457, type: !535, scopeLine: 1457, flags: DIFlagPublic | DIFlagPrototyped, spFlags: 0)
!535 = !DISubroutineType(types: !536)
!536 = !{!436, !349, !442, !442}
!537 = !DISubprogram(name: "swap", linkageName: "_ZNSt6vectorIiSaIiEE4swapERS1_", scope: !89, file: !88, line: 1480, type: !538, scopeLine: 1480, flags: DIFlagPublic | DIFlagPrototyped, spFlags: 0)
!538 = !DISubroutineType(types: !539)
!539 = !{null, !349, !420}
!540 = !DISubprogram(name: "clear", linkageName: "_ZNSt6vectorIiSaIiEE5clearEv", scope: !89, file: !88, line: 1498, type: !347, scopeLine: 1498, flags: DIFlagPublic | DIFlagPrototyped, spFlags: 0)
!541 = !DISubprogram(name: "_M_fill_initialize", linkageName: "_ZNSt6vectorIiSaIiEE18_M_fill_initializeEmRKi", scope: !89, file: !88, line: 1593, type: !428, scopeLine: 1593, flags: DIFlagProtected | DIFlagPrototyped, spFlags: 0)
!542 = !DISubprogram(name: "_M_default_initialize", linkageName: "_ZNSt6vectorIiSaIiEE21_M_default_initializeEm", scope: !89, file: !88, line: 1603, type: !468, scopeLine: 1603, flags: DIFlagProtected | DIFlagPrototyped, spFlags: 0)
!543 = !DISubprogram(name: "_M_fill_assign", linkageName: "_ZNSt6vectorIiSaIiEE14_M_fill_assignEmRKi", scope: !89, file: !88, line: 1645, type: !428, scopeLine: 1645, flags: DIFlagProtected | DIFlagPrototyped, spFlags: 0)
!544 = !DISubprogram(name: "_M_fill_insert", linkageName: "_ZNSt6vectorIiSaIiEE14_M_fill_insertEN9__gnu_cxx17__normal_iteratorIPiS1_EEmRKi", scope: !89, file: !88, line: 1684, type: !545, scopeLine: 1684, flags: DIFlagProtected | DIFlagPrototyped, spFlags: 0)
!545 = !DISubroutineType(types: !546)
!546 = !{null, !349, !436, !359, !363}
!547 = !DISubprogram(name: "_M_default_append", linkageName: "_ZNSt6vectorIiSaIiEE17_M_default_appendEm", scope: !89, file: !88, line: 1689, type: !468, scopeLine: 1689, flags: DIFlagProtected | DIFlagPrototyped, spFlags: 0)
!548 = !DISubprogram(name: "_M_shrink_to_fit", linkageName: "_ZNSt6vectorIiSaIiEE16_M_shrink_to_fitEv", scope: !89, file: !88, line: 1692, type: !549, scopeLine: 1692, flags: DIFlagProtected | DIFlagPrototyped, spFlags: 0)
!549 = !DISubroutineType(types: !550)
!550 = !{!78, !349}
!551 = !DISubprogram(name: "_M_insert_rval", linkageName: "_ZNSt6vectorIiSaIiEE14_M_insert_rvalEN9__gnu_cxx17__normal_iteratorIPKiS1_EEOi", scope: !89, file: !88, line: 1741, type: !523, scopeLine: 1741, flags: DIFlagProtected | DIFlagPrototyped, spFlags: 0)
!552 = !DISubprogram(name: "_M_emplace_aux", linkageName: "_ZNSt6vectorIiSaIiEE14_M_emplace_auxEN9__gnu_cxx17__normal_iteratorIPKiS1_EEOi", scope: !89, file: !88, line: 1750, type: !523, scopeLine: 1750, flags: DIFlagProtected | DIFlagPrototyped, spFlags: 0)
!553 = !DISubprogram(name: "_M_check_len", linkageName: "_ZNKSt6vectorIiSaIiEE12_M_check_lenEmPKc", scope: !89, file: !88, line: 1756, type: !554, scopeLine: 1756, flags: DIFlagProtected | DIFlagPrototyped, spFlags: 0)
!554 = !DISubroutineType(types: !555)
!555 = !{!556, !444, !359, !557}
!556 = !DIDerivedType(tag: DW_TAG_typedef, name: "size_type", scope: !89, file: !88, line: 424, baseType: !43)
!557 = !DIDerivedType(tag: DW_TAG_pointer_type, baseType: !558, size: 64)
!558 = !DIDerivedType(tag: DW_TAG_const_type, baseType: !9)
!559 = !DISubprogram(name: "_S_check_init_len", linkageName: "_ZNSt6vectorIiSaIiEE17_S_check_init_lenEmRKS0_", scope: !89, file: !88, line: 1767, type: !560, scopeLine: 1767, flags: DIFlagProtected | DIFlagPrototyped | DIFlagStaticMember, spFlags: 0)
!560 = !DISubroutineType(types: !561)
!561 = !{!556, !359, !353}
!562 = !DISubprogram(name: "_S_max_size", linkageName: "_ZNSt6vectorIiSaIiEE11_S_max_sizeERKS0_", scope: !89, file: !88, line: 1776, type: !563, scopeLine: 1776, flags: DIFlagProtected | DIFlagPrototyped | DIFlagStaticMember, spFlags: 0)
!563 = !DISubroutineType(types: !564)
!564 = !{!556, !565}
!565 = !DIDerivedType(tag: DW_TAG_reference_type, baseType: !566, size: 64)
!566 = !DIDerivedType(tag: DW_TAG_const_type, baseType: !87)
!567 = !DISubprogram(name: "_M_erase_at_end", linkageName: "_ZNSt6vectorIiSaIiEE15_M_erase_at_endEPi", scope: !89, file: !88, line: 1792, type: !568, scopeLine: 1792, flags: DIFlagProtected | DIFlagPrototyped, spFlags: 0)
!568 = !DISubroutineType(types: !569)
!569 = !{null, !349, !338}
!570 = !DISubprogram(name: "_M_erase", linkageName: "_ZNSt6vectorIiSaIiEE8_M_eraseEN9__gnu_cxx17__normal_iteratorIPiS1_EE", scope: !89, file: !88, line: 1804, type: !571, scopeLine: 1804, flags: DIFlagProtected | DIFlagPrototyped, spFlags: 0)
!571 = !DISubroutineType(types: !572)
!572 = !{!436, !349, !436}
!573 = !DISubprogram(name: "_M_erase", linkageName: "_ZNSt6vectorIiSaIiEE8_M_eraseEN9__gnu_cxx17__normal_iteratorIPiS1_EES5_", scope: !89, file: !88, line: 1807, type: !574, scopeLine: 1807, flags: DIFlagProtected | DIFlagPrototyped, spFlags: 0)
!574 = !DISubroutineType(types: !575)
!575 = !{!436, !349, !436, !436}
!576 = !DISubprogram(name: "_M_move_assign", linkageName: "_ZNSt6vectorIiSaIiEE14_M_move_assignEOS1_St17integral_constantIbLb1EE", scope: !89, file: !88, line: 1815, type: !577, scopeLine: 1815, flags: DIFlagPrototyped, spFlags: 0)
!577 = !DISubroutineType(types: !578)
!578 = !{null, !349, !374, !302}
!579 = !DISubprogram(name: "_M_move_assign", linkageName: "_ZNSt6vectorIiSaIiEE14_M_move_assignEOS1_St17integral_constantIbLb0EE", scope: !89, file: !88, line: 1826, type: !580, scopeLine: 1826, flags: DIFlagPrototyped, spFlags: 0)
!580 = !DISubroutineType(types: !581)
!581 = !{null, !349, !374, !321}
!582 = !{!0}
!583 = !{!584, !588, !594, !598, !605, !609, !616, !621, !623, !627, !631, !635, !643, !645, !649, !653, !657, !661, !665, !669, !673, !677, !685, !689, !693, !695, !699, !703, !707, !713, !717, !721, !723, !731, !735, !742, !744, !748, !752, !756, !760, !765, !770, !775, !776, !777, !778, !780, !781, !782, !783, !784, !785, !786, !840, !844, !850, !852, !854, !858, !860, !862, !864, !866, !868, !870, !872, !876, !880, !882, !884, !888, !890, !892, !894, !896, !898, !900, !903, !905, !907, !911, !915, !917, !919, !921, !923, !925, !927, !929, !931, !933, !935, !939, !943, !945, !947, !949, !951, !953, !955, !957, !959, !961, !963, !965, !967, !969, !971, !973, !977, !981, !985, !987, !989, !991, !993, !995, !997, !999, !1001, !1003, !1007, !1011, !1015, !1017, !1019, !1021, !1025, !1029, !1033, !1035, !1037, !1039, !1041, !1043, !1045, !1047, !1049, !1051, !1053, !1055, !1057, !1061, !1065, !1069, !1071, !1073, !1075, !1077, !1081, !1085, !1087, !1089, !1091, !1093, !1095, !1097, !1101, !1105, !1107, !1109, !1111, !1113, !1117, !1121, !1125, !1127, !1129, !1131, !1133, !1135, !1137, !1141, !1145, !1149, !1151, !1155, !1159, !1161, !1163, !1165, !1167, !1169, !1171, !1188, !1191, !1196, !1204, !1209, !1213, !1217, !1221, !1225, !1227, !1229, !1233, !1239, !1243, !1249, !1255, !1257, !1261, !1265, !1269, !1273, !1284, !1286, !1290, !1294, !1298, !1300, !1304, !1308, !1312, !1314, !1316, !1320, !1328, !1332, !1336, !1340, !1342, !1348, !1350, !1356, !1360, !1364, !1368, !1372, !1376, !1380, !1382, !1384, !1388, !1392, !1396, !1398, !1402, !1406, !1408, !1410, !1414, !1418, !1422, !1426, !1427, !1428, !1429, !1430, !1431, !1432, !1433, !1434, !1435, !1436, !1443, !1447, !1450, !1453, !1456, !1458, !1460, !1462, !1465, !1468, !1471, !1474, !1477, !1479, !1484, !1488, !1491, !1494, !1496, !1498, !1500, !1502, !1505, !1508, !1511, !1514, !1517, !1519, !1523, !1527, !1532, !1536, !1538, !1540, !1542, !1544, !1546, !1548, !1550, !1552, !1554, !1556, !1558, !1560, !1562, !1566, !1572, !1577, !1581, !1583, !1585, !1587, !1589, !1596, !1600, !1604, !1608, !1612, !1616, !1621, !1625, !1627, !1631, !1637, !1641, !1646, !1648, !1650, !1654, !1658, !1660, !1662, !1664, !1666, !1670, !1672, !1674, !1678, !1682, !1686, !1690, !1694, !1698, !1700, !1704, !1708, !1712, !1716, !1718, !1720, !1724, !1728, !1729, !1730, !1731, !1732}
!584 = !DIImportedEntity(tag: DW_TAG_imported_module, scope: !585, entity: !586, file: !587, line: 58)
!585 = !DINamespace(name: "__gnu_debug", scope: null)
!586 = !DINamespace(name: "__debug", scope: !5)
!587 = !DIFile(filename: "/usr/bin/../lib/gcc/x86_64-linux-gnu/10/../../../../include/c++/10/debug/debug.h", directory: "")
!588 = !DIImportedEntity(tag: DW_TAG_imported_declaration, scope: !5, entity: !589, file: !593, line: 52)
!589 = !DISubprogram(name: "abs", scope: !590, file: !590, line: 840, type: !591, flags: DIFlagPrototyped, spFlags: 0)
!590 = !DIFile(filename: "/usr/include/stdlib.h", directory: "")
!591 = !DISubroutineType(types: !592)
!592 = !{!86, !86}
!593 = !DIFile(filename: "/usr/bin/../lib/gcc/x86_64-linux-gnu/10/../../../../include/c++/10/bits/std_abs.h", directory: "")
!594 = !DIImportedEntity(tag: DW_TAG_imported_declaration, scope: !5, entity: !595, file: !597, line: 127)
!595 = !DIDerivedType(tag: DW_TAG_typedef, name: "div_t", file: !590, line: 62, baseType: !596)
!596 = !DICompositeType(tag: DW_TAG_structure_type, file: !590, line: 58, flags: DIFlagFwdDecl, identifier: "_ZTS5div_t")
!597 = !DIFile(filename: "/usr/bin/../lib/gcc/x86_64-linux-gnu/10/../../../../include/c++/10/cstdlib", directory: "")
!598 = !DIImportedEntity(tag: DW_TAG_imported_declaration, scope: !5, entity: !599, file: !597, line: 128)
!599 = !DIDerivedType(tag: DW_TAG_typedef, name: "ldiv_t", file: !590, line: 70, baseType: !600)
!600 = distinct !DICompositeType(tag: DW_TAG_structure_type, file: !590, line: 66, size: 128, flags: DIFlagTypePassByValue, elements: !601, identifier: "_ZTS6ldiv_t")
!601 = !{!602, !604}
!602 = !DIDerivedType(tag: DW_TAG_member, name: "quot", scope: !600, file: !590, line: 68, baseType: !603, size: 64)
!603 = !DIBasicType(name: "long int", size: 64, encoding: DW_ATE_signed)
!604 = !DIDerivedType(tag: DW_TAG_member, name: "rem", scope: !600, file: !590, line: 69, baseType: !603, size: 64, offset: 64)
!605 = !DIImportedEntity(tag: DW_TAG_imported_declaration, scope: !5, entity: !606, file: !597, line: 130)
!606 = !DISubprogram(name: "abort", scope: !590, file: !590, line: 591, type: !607, flags: DIFlagPrototyped | DIFlagNoReturn, spFlags: 0)
!607 = !DISubroutineType(types: !608)
!608 = !{null}
!609 = !DIImportedEntity(tag: DW_TAG_imported_declaration, scope: !5, entity: !610, file: !597, line: 132)
!610 = !DISubprogram(name: "aligned_alloc", scope: !590, file: !590, line: 586, type: !611, flags: DIFlagPrototyped, spFlags: 0)
!611 = !DISubroutineType(types: !612)
!612 = !{!613, !614, !614}
!613 = !DIDerivedType(tag: DW_TAG_pointer_type, baseType: null, size: 64)
!614 = !DIDerivedType(tag: DW_TAG_typedef, name: "size_t", file: !615, line: 46, baseType: !45)
!615 = !DIFile(filename: "/usr/lib/llvm-10/lib/clang/10.0.0/include/stddef.h", directory: "")
!616 = !DIImportedEntity(tag: DW_TAG_imported_declaration, scope: !5, entity: !617, file: !597, line: 134)
!617 = !DISubprogram(name: "atexit", scope: !590, file: !590, line: 595, type: !618, flags: DIFlagPrototyped, spFlags: 0)
!618 = !DISubroutineType(types: !619)
!619 = !{!86, !620}
!620 = !DIDerivedType(tag: DW_TAG_pointer_type, baseType: !607, size: 64)
!621 = !DIImportedEntity(tag: DW_TAG_imported_declaration, scope: !5, entity: !622, file: !597, line: 137)
!622 = !DISubprogram(name: "at_quick_exit", scope: !590, file: !590, line: 600, type: !618, flags: DIFlagPrototyped, spFlags: 0)
!623 = !DIImportedEntity(tag: DW_TAG_imported_declaration, scope: !5, entity: !624, file: !597, line: 140)
!624 = !DISubprogram(name: "atof", scope: !590, file: !590, line: 101, type: !625, flags: DIFlagPrototyped, spFlags: 0)
!625 = !DISubroutineType(types: !626)
!626 = !{!22, !557}
!627 = !DIImportedEntity(tag: DW_TAG_imported_declaration, scope: !5, entity: !628, file: !597, line: 141)
!628 = !DISubprogram(name: "atoi", scope: !590, file: !590, line: 104, type: !629, flags: DIFlagPrototyped, spFlags: 0)
!629 = !DISubroutineType(types: !630)
!630 = !{!86, !557}
!631 = !DIImportedEntity(tag: DW_TAG_imported_declaration, scope: !5, entity: !632, file: !597, line: 142)
!632 = !DISubprogram(name: "atol", scope: !590, file: !590, line: 107, type: !633, flags: DIFlagPrototyped, spFlags: 0)
!633 = !DISubroutineType(types: !634)
!634 = !{!603, !557}
!635 = !DIImportedEntity(tag: DW_TAG_imported_declaration, scope: !5, entity: !636, file: !597, line: 143)
!636 = !DISubprogram(name: "bsearch", scope: !590, file: !590, line: 820, type: !637, flags: DIFlagPrototyped, spFlags: 0)
!637 = !DISubroutineType(types: !638)
!638 = !{!613, !50, !50, !614, !614, !639}
!639 = !DIDerivedType(tag: DW_TAG_typedef, name: "__compar_fn_t", file: !590, line: 808, baseType: !640)
!640 = !DIDerivedType(tag: DW_TAG_pointer_type, baseType: !641, size: 64)
!641 = !DISubroutineType(types: !642)
!642 = !{!86, !50, !50}
!643 = !DIImportedEntity(tag: DW_TAG_imported_declaration, scope: !5, entity: !644, file: !597, line: 144)
!644 = !DISubprogram(name: "calloc", scope: !590, file: !590, line: 542, type: !611, flags: DIFlagPrototyped, spFlags: 0)
!645 = !DIImportedEntity(tag: DW_TAG_imported_declaration, scope: !5, entity: !646, file: !597, line: 145)
!646 = !DISubprogram(name: "div", scope: !590, file: !590, line: 852, type: !647, flags: DIFlagPrototyped, spFlags: 0)
!647 = !DISubroutineType(types: !648)
!648 = !{!595, !86, !86}
!649 = !DIImportedEntity(tag: DW_TAG_imported_declaration, scope: !5, entity: !650, file: !597, line: 146)
!650 = !DISubprogram(name: "exit", scope: !590, file: !590, line: 617, type: !651, flags: DIFlagPrototyped | DIFlagNoReturn, spFlags: 0)
!651 = !DISubroutineType(types: !652)
!652 = !{null, !86}
!653 = !DIImportedEntity(tag: DW_TAG_imported_declaration, scope: !5, entity: !654, file: !597, line: 147)
!654 = !DISubprogram(name: "free", scope: !590, file: !590, line: 565, type: !655, flags: DIFlagPrototyped, spFlags: 0)
!655 = !DISubroutineType(types: !656)
!656 = !{null, !613}
!657 = !DIImportedEntity(tag: DW_TAG_imported_declaration, scope: !5, entity: !658, file: !597, line: 148)
!658 = !DISubprogram(name: "getenv", scope: !590, file: !590, line: 634, type: !659, flags: DIFlagPrototyped, spFlags: 0)
!659 = !DISubroutineType(types: !660)
!660 = !{!8, !557}
!661 = !DIImportedEntity(tag: DW_TAG_imported_declaration, scope: !5, entity: !662, file: !597, line: 149)
!662 = !DISubprogram(name: "labs", scope: !590, file: !590, line: 841, type: !663, flags: DIFlagPrototyped, spFlags: 0)
!663 = !DISubroutineType(types: !664)
!664 = !{!603, !603}
!665 = !DIImportedEntity(tag: DW_TAG_imported_declaration, scope: !5, entity: !666, file: !597, line: 150)
!666 = !DISubprogram(name: "ldiv", scope: !590, file: !590, line: 854, type: !667, flags: DIFlagPrototyped, spFlags: 0)
!667 = !DISubroutineType(types: !668)
!668 = !{!599, !603, !603}
!669 = !DIImportedEntity(tag: DW_TAG_imported_declaration, scope: !5, entity: !670, file: !597, line: 151)
!670 = !DISubprogram(name: "malloc", scope: !590, file: !590, line: 539, type: !671, flags: DIFlagPrototyped, spFlags: 0)
!671 = !DISubroutineType(types: !672)
!672 = !{!613, !614}
!673 = !DIImportedEntity(tag: DW_TAG_imported_declaration, scope: !5, entity: !674, file: !597, line: 153)
!674 = !DISubprogram(name: "mblen", scope: !590, file: !590, line: 922, type: !675, flags: DIFlagPrototyped, spFlags: 0)
!675 = !DISubroutineType(types: !676)
!676 = !{!86, !557, !614}
!677 = !DIImportedEntity(tag: DW_TAG_imported_declaration, scope: !5, entity: !678, file: !597, line: 154)
!678 = !DISubprogram(name: "mbstowcs", scope: !590, file: !590, line: 933, type: !679, flags: DIFlagPrototyped, spFlags: 0)
!679 = !DISubroutineType(types: !680)
!680 = !{!614, !681, !684, !614}
!681 = !DIDerivedType(tag: DW_TAG_restrict_type, baseType: !682)
!682 = !DIDerivedType(tag: DW_TAG_pointer_type, baseType: !683, size: 64)
!683 = !DIBasicType(name: "wchar_t", size: 32, encoding: DW_ATE_signed)
!684 = !DIDerivedType(tag: DW_TAG_restrict_type, baseType: !557)
!685 = !DIImportedEntity(tag: DW_TAG_imported_declaration, scope: !5, entity: !686, file: !597, line: 155)
!686 = !DISubprogram(name: "mbtowc", scope: !590, file: !590, line: 925, type: !687, flags: DIFlagPrototyped, spFlags: 0)
!687 = !DISubroutineType(types: !688)
!688 = !{!86, !681, !684, !614}
!689 = !DIImportedEntity(tag: DW_TAG_imported_declaration, scope: !5, entity: !690, file: !597, line: 157)
!690 = !DISubprogram(name: "qsort", scope: !590, file: !590, line: 830, type: !691, flags: DIFlagPrototyped, spFlags: 0)
!691 = !DISubroutineType(types: !692)
!692 = !{null, !613, !614, !614, !639}
!693 = !DIImportedEntity(tag: DW_TAG_imported_declaration, scope: !5, entity: !694, file: !597, line: 160)
!694 = !DISubprogram(name: "quick_exit", scope: !590, file: !590, line: 623, type: !651, flags: DIFlagPrototyped | DIFlagNoReturn, spFlags: 0)
!695 = !DIImportedEntity(tag: DW_TAG_imported_declaration, scope: !5, entity: !696, file: !597, line: 163)
!696 = !DISubprogram(name: "rand", scope: !590, file: !590, line: 453, type: !697, flags: DIFlagPrototyped, spFlags: 0)
!697 = !DISubroutineType(types: !698)
!698 = !{!86}
!699 = !DIImportedEntity(tag: DW_TAG_imported_declaration, scope: !5, entity: !700, file: !597, line: 164)
!700 = !DISubprogram(name: "realloc", scope: !590, file: !590, line: 550, type: !701, flags: DIFlagPrototyped, spFlags: 0)
!701 = !DISubroutineType(types: !702)
!702 = !{!613, !613, !614}
!703 = !DIImportedEntity(tag: DW_TAG_imported_declaration, scope: !5, entity: !704, file: !597, line: 165)
!704 = !DISubprogram(name: "srand", scope: !590, file: !590, line: 455, type: !705, flags: DIFlagPrototyped, spFlags: 0)
!705 = !DISubroutineType(types: !706)
!706 = !{null, !10}
!707 = !DIImportedEntity(tag: DW_TAG_imported_declaration, scope: !5, entity: !708, file: !597, line: 166)
!708 = !DISubprogram(name: "strtod", scope: !590, file: !590, line: 117, type: !709, flags: DIFlagPrototyped, spFlags: 0)
!709 = !DISubroutineType(types: !710)
!710 = !{!22, !684, !711}
!711 = !DIDerivedType(tag: DW_TAG_restrict_type, baseType: !712)
!712 = !DIDerivedType(tag: DW_TAG_pointer_type, baseType: !8, size: 64)
!713 = !DIImportedEntity(tag: DW_TAG_imported_declaration, scope: !5, entity: !714, file: !597, line: 167)
!714 = !DISubprogram(name: "strtol", scope: !590, file: !590, line: 176, type: !715, flags: DIFlagPrototyped, spFlags: 0)
!715 = !DISubroutineType(types: !716)
!716 = !{!603, !684, !711, !86}
!717 = !DIImportedEntity(tag: DW_TAG_imported_declaration, scope: !5, entity: !718, file: !597, line: 168)
!718 = !DISubprogram(name: "strtoul", scope: !590, file: !590, line: 180, type: !719, flags: DIFlagPrototyped, spFlags: 0)
!719 = !DISubroutineType(types: !720)
!720 = !{!45, !684, !711, !86}
!721 = !DIImportedEntity(tag: DW_TAG_imported_declaration, scope: !5, entity: !722, file: !597, line: 169)
!722 = !DISubprogram(name: "system", scope: !590, file: !590, line: 784, type: !629, flags: DIFlagPrototyped, spFlags: 0)
!723 = !DIImportedEntity(tag: DW_TAG_imported_declaration, scope: !5, entity: !724, file: !597, line: 171)
!724 = !DISubprogram(name: "wcstombs", scope: !590, file: !590, line: 936, type: !725, flags: DIFlagPrototyped, spFlags: 0)
!725 = !DISubroutineType(types: !726)
!726 = !{!614, !727, !728, !614}
!727 = !DIDerivedType(tag: DW_TAG_restrict_type, baseType: !8)
!728 = !DIDerivedType(tag: DW_TAG_restrict_type, baseType: !729)
!729 = !DIDerivedType(tag: DW_TAG_pointer_type, baseType: !730, size: 64)
!730 = !DIDerivedType(tag: DW_TAG_const_type, baseType: !683)
!731 = !DIImportedEntity(tag: DW_TAG_imported_declaration, scope: !5, entity: !732, file: !597, line: 172)
!732 = !DISubprogram(name: "wctomb", scope: !590, file: !590, line: 929, type: !733, flags: DIFlagPrototyped, spFlags: 0)
!733 = !DISubroutineType(types: !734)
!734 = !{!86, !8, !683}
!735 = !DIImportedEntity(tag: DW_TAG_imported_declaration, scope: !28, entity: !736, file: !597, line: 200)
!736 = !DIDerivedType(tag: DW_TAG_typedef, name: "lldiv_t", file: !590, line: 80, baseType: !737)
!737 = distinct !DICompositeType(tag: DW_TAG_structure_type, file: !590, line: 76, size: 128, flags: DIFlagTypePassByValue, elements: !738, identifier: "_ZTS7lldiv_t")
!738 = !{!739, !741}
!739 = !DIDerivedType(tag: DW_TAG_member, name: "quot", scope: !737, file: !590, line: 78, baseType: !740, size: 64)
!740 = !DIBasicType(name: "long long int", size: 64, encoding: DW_ATE_signed)
!741 = !DIDerivedType(tag: DW_TAG_member, name: "rem", scope: !737, file: !590, line: 79, baseType: !740, size: 64, offset: 64)
!742 = !DIImportedEntity(tag: DW_TAG_imported_declaration, scope: !28, entity: !743, file: !597, line: 206)
!743 = !DISubprogram(name: "_Exit", scope: !590, file: !590, line: 629, type: !651, flags: DIFlagPrototyped | DIFlagNoReturn, spFlags: 0)
!744 = !DIImportedEntity(tag: DW_TAG_imported_declaration, scope: !28, entity: !745, file: !597, line: 210)
!745 = !DISubprogram(name: "llabs", scope: !590, file: !590, line: 844, type: !746, flags: DIFlagPrototyped, spFlags: 0)
!746 = !DISubroutineType(types: !747)
!747 = !{!740, !740}
!748 = !DIImportedEntity(tag: DW_TAG_imported_declaration, scope: !28, entity: !749, file: !597, line: 216)
!749 = !DISubprogram(name: "lldiv", scope: !590, file: !590, line: 858, type: !750, flags: DIFlagPrototyped, spFlags: 0)
!750 = !DISubroutineType(types: !751)
!751 = !{!736, !740, !740}
!752 = !DIImportedEntity(tag: DW_TAG_imported_declaration, scope: !28, entity: !753, file: !597, line: 227)
!753 = !DISubprogram(name: "atoll", scope: !590, file: !590, line: 112, type: !754, flags: DIFlagPrototyped, spFlags: 0)
!754 = !DISubroutineType(types: !755)
!755 = !{!740, !557}
!756 = !DIImportedEntity(tag: DW_TAG_imported_declaration, scope: !28, entity: !757, file: !597, line: 228)
!757 = !DISubprogram(name: "strtoll", scope: !590, file: !590, line: 200, type: !758, flags: DIFlagPrototyped, spFlags: 0)
!758 = !DISubroutineType(types: !759)
!759 = !{!740, !684, !711, !86}
!760 = !DIImportedEntity(tag: DW_TAG_imported_declaration, scope: !28, entity: !761, file: !597, line: 229)
!761 = !DISubprogram(name: "strtoull", scope: !590, file: !590, line: 205, type: !762, flags: DIFlagPrototyped, spFlags: 0)
!762 = !DISubroutineType(types: !763)
!763 = !{!764, !684, !711, !86}
!764 = !DIBasicType(name: "long long unsigned int", size: 64, encoding: DW_ATE_unsigned)
!765 = !DIImportedEntity(tag: DW_TAG_imported_declaration, scope: !28, entity: !766, file: !597, line: 231)
!766 = !DISubprogram(name: "strtof", scope: !590, file: !590, line: 123, type: !767, flags: DIFlagPrototyped, spFlags: 0)
!767 = !DISubroutineType(types: !768)
!768 = !{!769, !684, !711}
!769 = !DIBasicType(name: "float", size: 32, encoding: DW_ATE_float)
!770 = !DIImportedEntity(tag: DW_TAG_imported_declaration, scope: !28, entity: !771, file: !597, line: 232)
!771 = !DISubprogram(name: "strtold", scope: !590, file: !590, line: 126, type: !772, flags: DIFlagPrototyped, spFlags: 0)
!772 = !DISubroutineType(types: !773)
!773 = !{!774, !684, !711}
!774 = !DIBasicType(name: "long double", size: 128, encoding: DW_ATE_float)
!775 = !DIImportedEntity(tag: DW_TAG_imported_declaration, scope: !5, entity: !736, file: !597, line: 240)
!776 = !DIImportedEntity(tag: DW_TAG_imported_declaration, scope: !5, entity: !743, file: !597, line: 242)
!777 = !DIImportedEntity(tag: DW_TAG_imported_declaration, scope: !5, entity: !745, file: !597, line: 244)
!778 = !DIImportedEntity(tag: DW_TAG_imported_declaration, scope: !5, entity: !779, file: !597, line: 245)
!779 = !DISubprogram(name: "div", linkageName: "_ZN9__gnu_cxx3divExx", scope: !28, file: !597, line: 213, type: !750, flags: DIFlagPrototyped, spFlags: 0)
!780 = !DIImportedEntity(tag: DW_TAG_imported_declaration, scope: !5, entity: !749, file: !597, line: 246)
!781 = !DIImportedEntity(tag: DW_TAG_imported_declaration, scope: !5, entity: !753, file: !597, line: 248)
!782 = !DIImportedEntity(tag: DW_TAG_imported_declaration, scope: !5, entity: !766, file: !597, line: 249)
!783 = !DIImportedEntity(tag: DW_TAG_imported_declaration, scope: !5, entity: !757, file: !597, line: 250)
!784 = !DIImportedEntity(tag: DW_TAG_imported_declaration, scope: !5, entity: !761, file: !597, line: 251)
!785 = !DIImportedEntity(tag: DW_TAG_imported_declaration, scope: !5, entity: !771, file: !597, line: 252)
!786 = !DIImportedEntity(tag: DW_TAG_imported_declaration, scope: !5, entity: !787, file: !788, line: 58)
!787 = distinct !DICompositeType(tag: DW_TAG_class_type, name: "exception_ptr", scope: !789, file: !788, line: 80, size: 64, flags: DIFlagTypePassByReference | DIFlagNonTrivial, elements: !790, identifier: "_ZTSNSt15__exception_ptr13exception_ptrE")
!788 = !DIFile(filename: "/usr/bin/../lib/gcc/x86_64-linux-gnu/10/../../../../include/c++/10/bits/exception_ptr.h", directory: "")
!789 = !DINamespace(name: "__exception_ptr", scope: !5)
!790 = !{!791, !792, !796, !799, !800, !805, !806, !810, !815, !819, !823, !826, !827, !830, !833}
!791 = !DIDerivedType(tag: DW_TAG_member, name: "_M_exception_object", scope: !787, file: !788, line: 82, baseType: !613, size: 64)
!792 = !DISubprogram(name: "exception_ptr", scope: !787, file: !788, line: 84, type: !793, scopeLine: 84, flags: DIFlagExplicit | DIFlagPrototyped, spFlags: 0)
!793 = !DISubroutineType(types: !794)
!794 = !{null, !795, !613}
!795 = !DIDerivedType(tag: DW_TAG_pointer_type, baseType: !787, size: 64, flags: DIFlagArtificial | DIFlagObjectPointer)
!796 = !DISubprogram(name: "_M_addref", linkageName: "_ZNSt15__exception_ptr13exception_ptr9_M_addrefEv", scope: !787, file: !788, line: 86, type: !797, scopeLine: 86, flags: DIFlagPrototyped, spFlags: 0)
!797 = !DISubroutineType(types: !798)
!798 = !{null, !795}
!799 = !DISubprogram(name: "_M_release", linkageName: "_ZNSt15__exception_ptr13exception_ptr10_M_releaseEv", scope: !787, file: !788, line: 87, type: !797, scopeLine: 87, flags: DIFlagPrototyped, spFlags: 0)
!800 = !DISubprogram(name: "_M_get", linkageName: "_ZNKSt15__exception_ptr13exception_ptr6_M_getEv", scope: !787, file: !788, line: 89, type: !801, scopeLine: 89, flags: DIFlagPrototyped, spFlags: 0)
!801 = !DISubroutineType(types: !802)
!802 = !{!613, !803}
!803 = !DIDerivedType(tag: DW_TAG_pointer_type, baseType: !804, size: 64, flags: DIFlagArtificial | DIFlagObjectPointer)
!804 = !DIDerivedType(tag: DW_TAG_const_type, baseType: !787)
!805 = !DISubprogram(name: "exception_ptr", scope: !787, file: !788, line: 97, type: !797, scopeLine: 97, flags: DIFlagPublic | DIFlagPrototyped, spFlags: 0)
!806 = !DISubprogram(name: "exception_ptr", scope: !787, file: !788, line: 99, type: !807, scopeLine: 99, flags: DIFlagPublic | DIFlagPrototyped, spFlags: 0)
!807 = !DISubroutineType(types: !808)
!808 = !{null, !795, !809}
!809 = !DIDerivedType(tag: DW_TAG_reference_type, baseType: !804, size: 64)
!810 = !DISubprogram(name: "exception_ptr", scope: !787, file: !788, line: 102, type: !811, scopeLine: 102, flags: DIFlagPublic | DIFlagPrototyped, spFlags: 0)
!811 = !DISubroutineType(types: !812)
!812 = !{null, !795, !813}
!813 = !DIDerivedType(tag: DW_TAG_typedef, name: "nullptr_t", scope: !5, file: !44, line: 268, baseType: !814)
!814 = !DIBasicType(tag: DW_TAG_unspecified_type, name: "decltype(nullptr)")
!815 = !DISubprogram(name: "exception_ptr", scope: !787, file: !788, line: 106, type: !816, scopeLine: 106, flags: DIFlagPublic | DIFlagPrototyped, spFlags: 0)
!816 = !DISubroutineType(types: !817)
!817 = !{null, !795, !818}
!818 = !DIDerivedType(tag: DW_TAG_rvalue_reference_type, baseType: !787, size: 64)
!819 = !DISubprogram(name: "operator=", linkageName: "_ZNSt15__exception_ptr13exception_ptraSERKS0_", scope: !787, file: !788, line: 119, type: !820, scopeLine: 119, flags: DIFlagPublic | DIFlagPrototyped, spFlags: 0)
!820 = !DISubroutineType(types: !821)
!821 = !{!822, !795, !809}
!822 = !DIDerivedType(tag: DW_TAG_reference_type, baseType: !787, size: 64)
!823 = !DISubprogram(name: "operator=", linkageName: "_ZNSt15__exception_ptr13exception_ptraSEOS0_", scope: !787, file: !788, line: 123, type: !824, scopeLine: 123, flags: DIFlagPublic | DIFlagPrototyped, spFlags: 0)
!824 = !DISubroutineType(types: !825)
!825 = !{!822, !795, !818}
!826 = !DISubprogram(name: "~exception_ptr", scope: !787, file: !788, line: 130, type: !797, scopeLine: 130, flags: DIFlagPublic | DIFlagPrototyped, spFlags: 0)
!827 = !DISubprogram(name: "swap", linkageName: "_ZNSt15__exception_ptr13exception_ptr4swapERS0_", scope: !787, file: !788, line: 133, type: !828, scopeLine: 133, flags: DIFlagPublic | DIFlagPrototyped, spFlags: 0)
!828 = !DISubroutineType(types: !829)
!829 = !{null, !795, !822}
!830 = !DISubprogram(name: "operator bool", linkageName: "_ZNKSt15__exception_ptr13exception_ptrcvbEv", scope: !787, file: !788, line: 145, type: !831, scopeLine: 145, flags: DIFlagPublic | DIFlagExplicit | DIFlagPrototyped, spFlags: 0)
!831 = !DISubroutineType(types: !832)
!832 = !{!78, !803}
!833 = !DISubprogram(name: "__cxa_exception_type", linkageName: "_ZNKSt15__exception_ptr13exception_ptr20__cxa_exception_typeEv", scope: !787, file: !788, line: 154, type: !834, scopeLine: 154, flags: DIFlagPublic | DIFlagPrototyped, spFlags: 0)
!834 = !DISubroutineType(types: !835)
!835 = !{!836, !803}
!836 = !DIDerivedType(tag: DW_TAG_pointer_type, baseType: !837, size: 64)
!837 = !DIDerivedType(tag: DW_TAG_const_type, baseType: !838)
!838 = !DICompositeType(tag: DW_TAG_class_type, name: "type_info", scope: !5, file: !839, line: 88, flags: DIFlagFwdDecl)
!839 = !DIFile(filename: "/usr/bin/../lib/gcc/x86_64-linux-gnu/10/../../../../include/c++/10/typeinfo", directory: "")
!840 = !DIImportedEntity(tag: DW_TAG_imported_declaration, scope: !789, entity: !841, file: !788, line: 74)
!841 = !DISubprogram(name: "rethrow_exception", linkageName: "_ZSt17rethrow_exceptionNSt15__exception_ptr13exception_ptrE", scope: !5, file: !788, line: 70, type: !842, flags: DIFlagPrototyped | DIFlagNoReturn, spFlags: 0)
!842 = !DISubroutineType(types: !843)
!843 = !{null, !787}
!844 = !DIImportedEntity(tag: DW_TAG_imported_declaration, scope: !5, entity: !845, file: !849, line: 83)
!845 = !DISubprogram(name: "acos", scope: !846, file: !846, line: 53, type: !847, flags: DIFlagPrototyped, spFlags: 0)
!846 = !DIFile(filename: "/usr/include/x86_64-linux-gnu/bits/mathcalls.h", directory: "")
!847 = !DISubroutineType(types: !848)
!848 = !{!22, !22}
!849 = !DIFile(filename: "/usr/bin/../lib/gcc/x86_64-linux-gnu/10/../../../../include/c++/10/cmath", directory: "")
!850 = !DIImportedEntity(tag: DW_TAG_imported_declaration, scope: !5, entity: !851, file: !849, line: 102)
!851 = !DISubprogram(name: "asin", scope: !846, file: !846, line: 55, type: !847, flags: DIFlagPrototyped, spFlags: 0)
!852 = !DIImportedEntity(tag: DW_TAG_imported_declaration, scope: !5, entity: !853, file: !849, line: 121)
!853 = !DISubprogram(name: "atan", scope: !846, file: !846, line: 57, type: !847, flags: DIFlagPrototyped, spFlags: 0)
!854 = !DIImportedEntity(tag: DW_TAG_imported_declaration, scope: !5, entity: !855, file: !849, line: 140)
!855 = !DISubprogram(name: "atan2", scope: !846, file: !846, line: 59, type: !856, flags: DIFlagPrototyped, spFlags: 0)
!856 = !DISubroutineType(types: !857)
!857 = !{!22, !22, !22}
!858 = !DIImportedEntity(tag: DW_TAG_imported_declaration, scope: !5, entity: !859, file: !849, line: 161)
!859 = !DISubprogram(name: "ceil", scope: !846, file: !846, line: 159, type: !847, flags: DIFlagPrototyped, spFlags: 0)
!860 = !DIImportedEntity(tag: DW_TAG_imported_declaration, scope: !5, entity: !861, file: !849, line: 180)
!861 = !DISubprogram(name: "cos", scope: !846, file: !846, line: 62, type: !847, flags: DIFlagPrototyped, spFlags: 0)
!862 = !DIImportedEntity(tag: DW_TAG_imported_declaration, scope: !5, entity: !863, file: !849, line: 199)
!863 = !DISubprogram(name: "cosh", scope: !846, file: !846, line: 71, type: !847, flags: DIFlagPrototyped, spFlags: 0)
!864 = !DIImportedEntity(tag: DW_TAG_imported_declaration, scope: !5, entity: !865, file: !849, line: 218)
!865 = !DISubprogram(name: "exp", scope: !846, file: !846, line: 95, type: !847, flags: DIFlagPrototyped, spFlags: 0)
!866 = !DIImportedEntity(tag: DW_TAG_imported_declaration, scope: !5, entity: !867, file: !849, line: 237)
!867 = !DISubprogram(name: "fabs", scope: !846, file: !846, line: 162, type: !847, flags: DIFlagPrototyped, spFlags: 0)
!868 = !DIImportedEntity(tag: DW_TAG_imported_declaration, scope: !5, entity: !869, file: !849, line: 256)
!869 = !DISubprogram(name: "floor", scope: !846, file: !846, line: 165, type: !847, flags: DIFlagPrototyped, spFlags: 0)
!870 = !DIImportedEntity(tag: DW_TAG_imported_declaration, scope: !5, entity: !871, file: !849, line: 275)
!871 = !DISubprogram(name: "fmod", scope: !846, file: !846, line: 168, type: !856, flags: DIFlagPrototyped, spFlags: 0)
!872 = !DIImportedEntity(tag: DW_TAG_imported_declaration, scope: !5, entity: !873, file: !849, line: 296)
!873 = !DISubprogram(name: "frexp", scope: !846, file: !846, line: 98, type: !874, flags: DIFlagPrototyped, spFlags: 0)
!874 = !DISubroutineType(types: !875)
!875 = !{!22, !22, !85}
!876 = !DIImportedEntity(tag: DW_TAG_imported_declaration, scope: !5, entity: !877, file: !849, line: 315)
!877 = !DISubprogram(name: "ldexp", scope: !846, file: !846, line: 101, type: !878, flags: DIFlagPrototyped, spFlags: 0)
!878 = !DISubroutineType(types: !879)
!879 = !{!22, !22, !86}
!880 = !DIImportedEntity(tag: DW_TAG_imported_declaration, scope: !5, entity: !881, file: !849, line: 334)
!881 = !DISubprogram(name: "log", scope: !846, file: !846, line: 104, type: !847, flags: DIFlagPrototyped, spFlags: 0)
!882 = !DIImportedEntity(tag: DW_TAG_imported_declaration, scope: !5, entity: !883, file: !849, line: 353)
!883 = !DISubprogram(name: "log10", scope: !846, file: !846, line: 107, type: !847, flags: DIFlagPrototyped, spFlags: 0)
!884 = !DIImportedEntity(tag: DW_TAG_imported_declaration, scope: !5, entity: !885, file: !849, line: 372)
!885 = !DISubprogram(name: "modf", scope: !846, file: !846, line: 110, type: !886, flags: DIFlagPrototyped, spFlags: 0)
!886 = !DISubroutineType(types: !887)
!887 = !{!22, !22, !23}
!888 = !DIImportedEntity(tag: DW_TAG_imported_declaration, scope: !5, entity: !889, file: !849, line: 384)
!889 = !DISubprogram(name: "pow", scope: !846, file: !846, line: 140, type: !856, flags: DIFlagPrototyped, spFlags: 0)
!890 = !DIImportedEntity(tag: DW_TAG_imported_declaration, scope: !5, entity: !891, file: !849, line: 421)
!891 = !DISubprogram(name: "sin", scope: !846, file: !846, line: 64, type: !847, flags: DIFlagPrototyped, spFlags: 0)
!892 = !DIImportedEntity(tag: DW_TAG_imported_declaration, scope: !5, entity: !893, file: !849, line: 440)
!893 = !DISubprogram(name: "sinh", scope: !846, file: !846, line: 73, type: !847, flags: DIFlagPrototyped, spFlags: 0)
!894 = !DIImportedEntity(tag: DW_TAG_imported_declaration, scope: !5, entity: !895, file: !849, line: 459)
!895 = !DISubprogram(name: "sqrt", scope: !846, file: !846, line: 143, type: !847, flags: DIFlagPrototyped, spFlags: 0)
!896 = !DIImportedEntity(tag: DW_TAG_imported_declaration, scope: !5, entity: !897, file: !849, line: 478)
!897 = !DISubprogram(name: "tan", scope: !846, file: !846, line: 66, type: !847, flags: DIFlagPrototyped, spFlags: 0)
!898 = !DIImportedEntity(tag: DW_TAG_imported_declaration, scope: !5, entity: !899, file: !849, line: 497)
!899 = !DISubprogram(name: "tanh", scope: !846, file: !846, line: 75, type: !847, flags: DIFlagPrototyped, spFlags: 0)
!900 = !DIImportedEntity(tag: DW_TAG_imported_declaration, scope: !5, entity: !901, file: !849, line: 1065)
!901 = !DIDerivedType(tag: DW_TAG_typedef, name: "double_t", file: !902, line: 150, baseType: !22)
!902 = !DIFile(filename: "/usr/include/math.h", directory: "")
!903 = !DIImportedEntity(tag: DW_TAG_imported_declaration, scope: !5, entity: !904, file: !849, line: 1066)
!904 = !DIDerivedType(tag: DW_TAG_typedef, name: "float_t", file: !902, line: 149, baseType: !769)
!905 = !DIImportedEntity(tag: DW_TAG_imported_declaration, scope: !5, entity: !906, file: !849, line: 1069)
!906 = !DISubprogram(name: "acosh", scope: !846, file: !846, line: 85, type: !847, flags: DIFlagPrototyped, spFlags: 0)
!907 = !DIImportedEntity(tag: DW_TAG_imported_declaration, scope: !5, entity: !908, file: !849, line: 1070)
!908 = !DISubprogram(name: "acoshf", scope: !846, file: !846, line: 85, type: !909, flags: DIFlagPrototyped, spFlags: 0)
!909 = !DISubroutineType(types: !910)
!910 = !{!769, !769}
!911 = !DIImportedEntity(tag: DW_TAG_imported_declaration, scope: !5, entity: !912, file: !849, line: 1071)
!912 = !DISubprogram(name: "acoshl", scope: !846, file: !846, line: 85, type: !913, flags: DIFlagPrototyped, spFlags: 0)
!913 = !DISubroutineType(types: !914)
!914 = !{!774, !774}
!915 = !DIImportedEntity(tag: DW_TAG_imported_declaration, scope: !5, entity: !916, file: !849, line: 1073)
!916 = !DISubprogram(name: "asinh", scope: !846, file: !846, line: 87, type: !847, flags: DIFlagPrototyped, spFlags: 0)
!917 = !DIImportedEntity(tag: DW_TAG_imported_declaration, scope: !5, entity: !918, file: !849, line: 1074)
!918 = !DISubprogram(name: "asinhf", scope: !846, file: !846, line: 87, type: !909, flags: DIFlagPrototyped, spFlags: 0)
!919 = !DIImportedEntity(tag: DW_TAG_imported_declaration, scope: !5, entity: !920, file: !849, line: 1075)
!920 = !DISubprogram(name: "asinhl", scope: !846, file: !846, line: 87, type: !913, flags: DIFlagPrototyped, spFlags: 0)
!921 = !DIImportedEntity(tag: DW_TAG_imported_declaration, scope: !5, entity: !922, file: !849, line: 1077)
!922 = !DISubprogram(name: "atanh", scope: !846, file: !846, line: 89, type: !847, flags: DIFlagPrototyped, spFlags: 0)
!923 = !DIImportedEntity(tag: DW_TAG_imported_declaration, scope: !5, entity: !924, file: !849, line: 1078)
!924 = !DISubprogram(name: "atanhf", scope: !846, file: !846, line: 89, type: !909, flags: DIFlagPrototyped, spFlags: 0)
!925 = !DIImportedEntity(tag: DW_TAG_imported_declaration, scope: !5, entity: !926, file: !849, line: 1079)
!926 = !DISubprogram(name: "atanhl", scope: !846, file: !846, line: 89, type: !913, flags: DIFlagPrototyped, spFlags: 0)
!927 = !DIImportedEntity(tag: DW_TAG_imported_declaration, scope: !5, entity: !928, file: !849, line: 1081)
!928 = !DISubprogram(name: "cbrt", scope: !846, file: !846, line: 152, type: !847, flags: DIFlagPrototyped, spFlags: 0)
!929 = !DIImportedEntity(tag: DW_TAG_imported_declaration, scope: !5, entity: !930, file: !849, line: 1082)
!930 = !DISubprogram(name: "cbrtf", scope: !846, file: !846, line: 152, type: !909, flags: DIFlagPrototyped, spFlags: 0)
!931 = !DIImportedEntity(tag: DW_TAG_imported_declaration, scope: !5, entity: !932, file: !849, line: 1083)
!932 = !DISubprogram(name: "cbrtl", scope: !846, file: !846, line: 152, type: !913, flags: DIFlagPrototyped, spFlags: 0)
!933 = !DIImportedEntity(tag: DW_TAG_imported_declaration, scope: !5, entity: !934, file: !849, line: 1085)
!934 = !DISubprogram(name: "copysign", scope: !846, file: !846, line: 196, type: !856, flags: DIFlagPrototyped, spFlags: 0)
!935 = !DIImportedEntity(tag: DW_TAG_imported_declaration, scope: !5, entity: !936, file: !849, line: 1086)
!936 = !DISubprogram(name: "copysignf", scope: !846, file: !846, line: 196, type: !937, flags: DIFlagPrototyped, spFlags: 0)
!937 = !DISubroutineType(types: !938)
!938 = !{!769, !769, !769}
!939 = !DIImportedEntity(tag: DW_TAG_imported_declaration, scope: !5, entity: !940, file: !849, line: 1087)
!940 = !DISubprogram(name: "copysignl", scope: !846, file: !846, line: 196, type: !941, flags: DIFlagPrototyped, spFlags: 0)
!941 = !DISubroutineType(types: !942)
!942 = !{!774, !774, !774}
!943 = !DIImportedEntity(tag: DW_TAG_imported_declaration, scope: !5, entity: !944, file: !849, line: 1089)
!944 = !DISubprogram(name: "erf", scope: !846, file: !846, line: 228, type: !847, flags: DIFlagPrototyped, spFlags: 0)
!945 = !DIImportedEntity(tag: DW_TAG_imported_declaration, scope: !5, entity: !946, file: !849, line: 1090)
!946 = !DISubprogram(name: "erff", scope: !846, file: !846, line: 228, type: !909, flags: DIFlagPrototyped, spFlags: 0)
!947 = !DIImportedEntity(tag: DW_TAG_imported_declaration, scope: !5, entity: !948, file: !849, line: 1091)
!948 = !DISubprogram(name: "erfl", scope: !846, file: !846, line: 228, type: !913, flags: DIFlagPrototyped, spFlags: 0)
!949 = !DIImportedEntity(tag: DW_TAG_imported_declaration, scope: !5, entity: !950, file: !849, line: 1093)
!950 = !DISubprogram(name: "erfc", scope: !846, file: !846, line: 229, type: !847, flags: DIFlagPrototyped, spFlags: 0)
!951 = !DIImportedEntity(tag: DW_TAG_imported_declaration, scope: !5, entity: !952, file: !849, line: 1094)
!952 = !DISubprogram(name: "erfcf", scope: !846, file: !846, line: 229, type: !909, flags: DIFlagPrototyped, spFlags: 0)
!953 = !DIImportedEntity(tag: DW_TAG_imported_declaration, scope: !5, entity: !954, file: !849, line: 1095)
!954 = !DISubprogram(name: "erfcl", scope: !846, file: !846, line: 229, type: !913, flags: DIFlagPrototyped, spFlags: 0)
!955 = !DIImportedEntity(tag: DW_TAG_imported_declaration, scope: !5, entity: !956, file: !849, line: 1097)
!956 = !DISubprogram(name: "exp2", scope: !846, file: !846, line: 130, type: !847, flags: DIFlagPrototyped, spFlags: 0)
!957 = !DIImportedEntity(tag: DW_TAG_imported_declaration, scope: !5, entity: !958, file: !849, line: 1098)
!958 = !DISubprogram(name: "exp2f", scope: !846, file: !846, line: 130, type: !909, flags: DIFlagPrototyped, spFlags: 0)
!959 = !DIImportedEntity(tag: DW_TAG_imported_declaration, scope: !5, entity: !960, file: !849, line: 1099)
!960 = !DISubprogram(name: "exp2l", scope: !846, file: !846, line: 130, type: !913, flags: DIFlagPrototyped, spFlags: 0)
!961 = !DIImportedEntity(tag: DW_TAG_imported_declaration, scope: !5, entity: !962, file: !849, line: 1101)
!962 = !DISubprogram(name: "expm1", scope: !846, file: !846, line: 119, type: !847, flags: DIFlagPrototyped, spFlags: 0)
!963 = !DIImportedEntity(tag: DW_TAG_imported_declaration, scope: !5, entity: !964, file: !849, line: 1102)
!964 = !DISubprogram(name: "expm1f", scope: !846, file: !846, line: 119, type: !909, flags: DIFlagPrototyped, spFlags: 0)
!965 = !DIImportedEntity(tag: DW_TAG_imported_declaration, scope: !5, entity: !966, file: !849, line: 1103)
!966 = !DISubprogram(name: "expm1l", scope: !846, file: !846, line: 119, type: !913, flags: DIFlagPrototyped, spFlags: 0)
!967 = !DIImportedEntity(tag: DW_TAG_imported_declaration, scope: !5, entity: !968, file: !849, line: 1105)
!968 = !DISubprogram(name: "fdim", scope: !846, file: !846, line: 326, type: !856, flags: DIFlagPrototyped, spFlags: 0)
!969 = !DIImportedEntity(tag: DW_TAG_imported_declaration, scope: !5, entity: !970, file: !849, line: 1106)
!970 = !DISubprogram(name: "fdimf", scope: !846, file: !846, line: 326, type: !937, flags: DIFlagPrototyped, spFlags: 0)
!971 = !DIImportedEntity(tag: DW_TAG_imported_declaration, scope: !5, entity: !972, file: !849, line: 1107)
!972 = !DISubprogram(name: "fdiml", scope: !846, file: !846, line: 326, type: !941, flags: DIFlagPrototyped, spFlags: 0)
!973 = !DIImportedEntity(tag: DW_TAG_imported_declaration, scope: !5, entity: !974, file: !849, line: 1109)
!974 = !DISubprogram(name: "fma", scope: !846, file: !846, line: 335, type: !975, flags: DIFlagPrototyped, spFlags: 0)
!975 = !DISubroutineType(types: !976)
!976 = !{!22, !22, !22, !22}
!977 = !DIImportedEntity(tag: DW_TAG_imported_declaration, scope: !5, entity: !978, file: !849, line: 1110)
!978 = !DISubprogram(name: "fmaf", scope: !846, file: !846, line: 335, type: !979, flags: DIFlagPrototyped, spFlags: 0)
!979 = !DISubroutineType(types: !980)
!980 = !{!769, !769, !769, !769}
!981 = !DIImportedEntity(tag: DW_TAG_imported_declaration, scope: !5, entity: !982, file: !849, line: 1111)
!982 = !DISubprogram(name: "fmal", scope: !846, file: !846, line: 335, type: !983, flags: DIFlagPrototyped, spFlags: 0)
!983 = !DISubroutineType(types: !984)
!984 = !{!774, !774, !774, !774}
!985 = !DIImportedEntity(tag: DW_TAG_imported_declaration, scope: !5, entity: !986, file: !849, line: 1113)
!986 = !DISubprogram(name: "fmax", scope: !846, file: !846, line: 329, type: !856, flags: DIFlagPrototyped, spFlags: 0)
!987 = !DIImportedEntity(tag: DW_TAG_imported_declaration, scope: !5, entity: !988, file: !849, line: 1114)
!988 = !DISubprogram(name: "fmaxf", scope: !846, file: !846, line: 329, type: !937, flags: DIFlagPrototyped, spFlags: 0)
!989 = !DIImportedEntity(tag: DW_TAG_imported_declaration, scope: !5, entity: !990, file: !849, line: 1115)
!990 = !DISubprogram(name: "fmaxl", scope: !846, file: !846, line: 329, type: !941, flags: DIFlagPrototyped, spFlags: 0)
!991 = !DIImportedEntity(tag: DW_TAG_imported_declaration, scope: !5, entity: !992, file: !849, line: 1117)
!992 = !DISubprogram(name: "fmin", scope: !846, file: !846, line: 332, type: !856, flags: DIFlagPrototyped, spFlags: 0)
!993 = !DIImportedEntity(tag: DW_TAG_imported_declaration, scope: !5, entity: !994, file: !849, line: 1118)
!994 = !DISubprogram(name: "fminf", scope: !846, file: !846, line: 332, type: !937, flags: DIFlagPrototyped, spFlags: 0)
!995 = !DIImportedEntity(tag: DW_TAG_imported_declaration, scope: !5, entity: !996, file: !849, line: 1119)
!996 = !DISubprogram(name: "fminl", scope: !846, file: !846, line: 332, type: !941, flags: DIFlagPrototyped, spFlags: 0)
!997 = !DIImportedEntity(tag: DW_TAG_imported_declaration, scope: !5, entity: !998, file: !849, line: 1121)
!998 = !DISubprogram(name: "hypot", scope: !846, file: !846, line: 147, type: !856, flags: DIFlagPrototyped, spFlags: 0)
!999 = !DIImportedEntity(tag: DW_TAG_imported_declaration, scope: !5, entity: !1000, file: !849, line: 1122)
!1000 = !DISubprogram(name: "hypotf", scope: !846, file: !846, line: 147, type: !937, flags: DIFlagPrototyped, spFlags: 0)
!1001 = !DIImportedEntity(tag: DW_TAG_imported_declaration, scope: !5, entity: !1002, file: !849, line: 1123)
!1002 = !DISubprogram(name: "hypotl", scope: !846, file: !846, line: 147, type: !941, flags: DIFlagPrototyped, spFlags: 0)
!1003 = !DIImportedEntity(tag: DW_TAG_imported_declaration, scope: !5, entity: !1004, file: !849, line: 1125)
!1004 = !DISubprogram(name: "ilogb", scope: !846, file: !846, line: 280, type: !1005, flags: DIFlagPrototyped, spFlags: 0)
!1005 = !DISubroutineType(types: !1006)
!1006 = !{!86, !22}
!1007 = !DIImportedEntity(tag: DW_TAG_imported_declaration, scope: !5, entity: !1008, file: !849, line: 1126)
!1008 = !DISubprogram(name: "ilogbf", scope: !846, file: !846, line: 280, type: !1009, flags: DIFlagPrototyped, spFlags: 0)
!1009 = !DISubroutineType(types: !1010)
!1010 = !{!86, !769}
!1011 = !DIImportedEntity(tag: DW_TAG_imported_declaration, scope: !5, entity: !1012, file: !849, line: 1127)
!1012 = !DISubprogram(name: "ilogbl", scope: !846, file: !846, line: 280, type: !1013, flags: DIFlagPrototyped, spFlags: 0)
!1013 = !DISubroutineType(types: !1014)
!1014 = !{!86, !774}
!1015 = !DIImportedEntity(tag: DW_TAG_imported_declaration, scope: !5, entity: !1016, file: !849, line: 1129)
!1016 = !DISubprogram(name: "lgamma", scope: !846, file: !846, line: 230, type: !847, flags: DIFlagPrototyped, spFlags: 0)
!1017 = !DIImportedEntity(tag: DW_TAG_imported_declaration, scope: !5, entity: !1018, file: !849, line: 1130)
!1018 = !DISubprogram(name: "lgammaf", scope: !846, file: !846, line: 230, type: !909, flags: DIFlagPrototyped, spFlags: 0)
!1019 = !DIImportedEntity(tag: DW_TAG_imported_declaration, scope: !5, entity: !1020, file: !849, line: 1131)
!1020 = !DISubprogram(name: "lgammal", scope: !846, file: !846, line: 230, type: !913, flags: DIFlagPrototyped, spFlags: 0)
!1021 = !DIImportedEntity(tag: DW_TAG_imported_declaration, scope: !5, entity: !1022, file: !849, line: 1134)
!1022 = !DISubprogram(name: "llrint", scope: !846, file: !846, line: 316, type: !1023, flags: DIFlagPrototyped, spFlags: 0)
!1023 = !DISubroutineType(types: !1024)
!1024 = !{!740, !22}
!1025 = !DIImportedEntity(tag: DW_TAG_imported_declaration, scope: !5, entity: !1026, file: !849, line: 1135)
!1026 = !DISubprogram(name: "llrintf", scope: !846, file: !846, line: 316, type: !1027, flags: DIFlagPrototyped, spFlags: 0)
!1027 = !DISubroutineType(types: !1028)
!1028 = !{!740, !769}
!1029 = !DIImportedEntity(tag: DW_TAG_imported_declaration, scope: !5, entity: !1030, file: !849, line: 1136)
!1030 = !DISubprogram(name: "llrintl", scope: !846, file: !846, line: 316, type: !1031, flags: DIFlagPrototyped, spFlags: 0)
!1031 = !DISubroutineType(types: !1032)
!1032 = !{!740, !774}
!1033 = !DIImportedEntity(tag: DW_TAG_imported_declaration, scope: !5, entity: !1034, file: !849, line: 1138)
!1034 = !DISubprogram(name: "llround", scope: !846, file: !846, line: 322, type: !1023, flags: DIFlagPrototyped, spFlags: 0)
!1035 = !DIImportedEntity(tag: DW_TAG_imported_declaration, scope: !5, entity: !1036, file: !849, line: 1139)
!1036 = !DISubprogram(name: "llroundf", scope: !846, file: !846, line: 322, type: !1027, flags: DIFlagPrototyped, spFlags: 0)
!1037 = !DIImportedEntity(tag: DW_TAG_imported_declaration, scope: !5, entity: !1038, file: !849, line: 1140)
!1038 = !DISubprogram(name: "llroundl", scope: !846, file: !846, line: 322, type: !1031, flags: DIFlagPrototyped, spFlags: 0)
!1039 = !DIImportedEntity(tag: DW_TAG_imported_declaration, scope: !5, entity: !1040, file: !849, line: 1143)
!1040 = !DISubprogram(name: "log1p", scope: !846, file: !846, line: 122, type: !847, flags: DIFlagPrototyped, spFlags: 0)
!1041 = !DIImportedEntity(tag: DW_TAG_imported_declaration, scope: !5, entity: !1042, file: !849, line: 1144)
!1042 = !DISubprogram(name: "log1pf", scope: !846, file: !846, line: 122, type: !909, flags: DIFlagPrototyped, spFlags: 0)
!1043 = !DIImportedEntity(tag: DW_TAG_imported_declaration, scope: !5, entity: !1044, file: !849, line: 1145)
!1044 = !DISubprogram(name: "log1pl", scope: !846, file: !846, line: 122, type: !913, flags: DIFlagPrototyped, spFlags: 0)
!1045 = !DIImportedEntity(tag: DW_TAG_imported_declaration, scope: !5, entity: !1046, file: !849, line: 1147)
!1046 = !DISubprogram(name: "log2", scope: !846, file: !846, line: 133, type: !847, flags: DIFlagPrototyped, spFlags: 0)
!1047 = !DIImportedEntity(tag: DW_TAG_imported_declaration, scope: !5, entity: !1048, file: !849, line: 1148)
!1048 = !DISubprogram(name: "log2f", scope: !846, file: !846, line: 133, type: !909, flags: DIFlagPrototyped, spFlags: 0)
!1049 = !DIImportedEntity(tag: DW_TAG_imported_declaration, scope: !5, entity: !1050, file: !849, line: 1149)
!1050 = !DISubprogram(name: "log2l", scope: !846, file: !846, line: 133, type: !913, flags: DIFlagPrototyped, spFlags: 0)
!1051 = !DIImportedEntity(tag: DW_TAG_imported_declaration, scope: !5, entity: !1052, file: !849, line: 1151)
!1052 = !DISubprogram(name: "logb", scope: !846, file: !846, line: 125, type: !847, flags: DIFlagPrototyped, spFlags: 0)
!1053 = !DIImportedEntity(tag: DW_TAG_imported_declaration, scope: !5, entity: !1054, file: !849, line: 1152)
!1054 = !DISubprogram(name: "logbf", scope: !846, file: !846, line: 125, type: !909, flags: DIFlagPrototyped, spFlags: 0)
!1055 = !DIImportedEntity(tag: DW_TAG_imported_declaration, scope: !5, entity: !1056, file: !849, line: 1153)
!1056 = !DISubprogram(name: "logbl", scope: !846, file: !846, line: 125, type: !913, flags: DIFlagPrototyped, spFlags: 0)
!1057 = !DIImportedEntity(tag: DW_TAG_imported_declaration, scope: !5, entity: !1058, file: !849, line: 1155)
